
encoder:     file format elf64-x86-64


Disassembly of section .init:

0000000000001000 <_init>:
    1000:	f3 0f 1e fa          	endbr64 
    1004:	48 83 ec 08          	sub    $0x8,%rsp
    1008:	48 8b 05 d9 cf 00 00 	mov    0xcfd9(%rip),%rax        # dfe8 <__gmon_start__>
    100f:	48 85 c0             	test   %rax,%rax
    1012:	74 02                	je     1016 <_init+0x16>
    1014:	ff d0                	callq  *%rax
    1016:	48 83 c4 08          	add    $0x8,%rsp
    101a:	c3                   	retq   

Disassembly of section .plt:

0000000000001020 <.plt>:
    1020:	ff 35 82 ce 00 00    	pushq  0xce82(%rip)        # dea8 <_GLOBAL_OFFSET_TABLE_+0x8>
    1026:	f2 ff 25 83 ce 00 00 	bnd jmpq *0xce83(%rip)        # deb0 <_GLOBAL_OFFSET_TABLE_+0x10>
    102d:	0f 1f 00             	nopl   (%rax)
    1030:	f3 0f 1e fa          	endbr64 
    1034:	68 00 00 00 00       	pushq  $0x0
    1039:	f2 e9 e1 ff ff ff    	bnd jmpq 1020 <.plt>
    103f:	90                   	nop
    1040:	f3 0f 1e fa          	endbr64 
    1044:	68 01 00 00 00       	pushq  $0x1
    1049:	f2 e9 d1 ff ff ff    	bnd jmpq 1020 <.plt>
    104f:	90                   	nop
    1050:	f3 0f 1e fa          	endbr64 
    1054:	68 02 00 00 00       	pushq  $0x2
    1059:	f2 e9 c1 ff ff ff    	bnd jmpq 1020 <.plt>
    105f:	90                   	nop
    1060:	f3 0f 1e fa          	endbr64 
    1064:	68 03 00 00 00       	pushq  $0x3
    1069:	f2 e9 b1 ff ff ff    	bnd jmpq 1020 <.plt>
    106f:	90                   	nop
    1070:	f3 0f 1e fa          	endbr64 
    1074:	68 04 00 00 00       	pushq  $0x4
    1079:	f2 e9 a1 ff ff ff    	bnd jmpq 1020 <.plt>
    107f:	90                   	nop
    1080:	f3 0f 1e fa          	endbr64 
    1084:	68 05 00 00 00       	pushq  $0x5
    1089:	f2 e9 91 ff ff ff    	bnd jmpq 1020 <.plt>
    108f:	90                   	nop
    1090:	f3 0f 1e fa          	endbr64 
    1094:	68 06 00 00 00       	pushq  $0x6
    1099:	f2 e9 81 ff ff ff    	bnd jmpq 1020 <.plt>
    109f:	90                   	nop
    10a0:	f3 0f 1e fa          	endbr64 
    10a4:	68 07 00 00 00       	pushq  $0x7
    10a9:	f2 e9 71 ff ff ff    	bnd jmpq 1020 <.plt>
    10af:	90                   	nop
    10b0:	f3 0f 1e fa          	endbr64 
    10b4:	68 08 00 00 00       	pushq  $0x8
    10b9:	f2 e9 61 ff ff ff    	bnd jmpq 1020 <.plt>
    10bf:	90                   	nop
    10c0:	f3 0f 1e fa          	endbr64 
    10c4:	68 09 00 00 00       	pushq  $0x9
    10c9:	f2 e9 51 ff ff ff    	bnd jmpq 1020 <.plt>
    10cf:	90                   	nop
    10d0:	f3 0f 1e fa          	endbr64 
    10d4:	68 0a 00 00 00       	pushq  $0xa
    10d9:	f2 e9 41 ff ff ff    	bnd jmpq 1020 <.plt>
    10df:	90                   	nop
    10e0:	f3 0f 1e fa          	endbr64 
    10e4:	68 0b 00 00 00       	pushq  $0xb
    10e9:	f2 e9 31 ff ff ff    	bnd jmpq 1020 <.plt>
    10ef:	90                   	nop
    10f0:	f3 0f 1e fa          	endbr64 
    10f4:	68 0c 00 00 00       	pushq  $0xc
    10f9:	f2 e9 21 ff ff ff    	bnd jmpq 1020 <.plt>
    10ff:	90                   	nop
    1100:	f3 0f 1e fa          	endbr64 
    1104:	68 0d 00 00 00       	pushq  $0xd
    1109:	f2 e9 11 ff ff ff    	bnd jmpq 1020 <.plt>
    110f:	90                   	nop
    1110:	f3 0f 1e fa          	endbr64 
    1114:	68 0e 00 00 00       	pushq  $0xe
    1119:	f2 e9 01 ff ff ff    	bnd jmpq 1020 <.plt>
    111f:	90                   	nop
    1120:	f3 0f 1e fa          	endbr64 
    1124:	68 0f 00 00 00       	pushq  $0xf
    1129:	f2 e9 f1 fe ff ff    	bnd jmpq 1020 <.plt>
    112f:	90                   	nop
    1130:	f3 0f 1e fa          	endbr64 
    1134:	68 10 00 00 00       	pushq  $0x10
    1139:	f2 e9 e1 fe ff ff    	bnd jmpq 1020 <.plt>
    113f:	90                   	nop
    1140:	f3 0f 1e fa          	endbr64 
    1144:	68 11 00 00 00       	pushq  $0x11
    1149:	f2 e9 d1 fe ff ff    	bnd jmpq 1020 <.plt>
    114f:	90                   	nop
    1150:	f3 0f 1e fa          	endbr64 
    1154:	68 12 00 00 00       	pushq  $0x12
    1159:	f2 e9 c1 fe ff ff    	bnd jmpq 1020 <.plt>
    115f:	90                   	nop
    1160:	f3 0f 1e fa          	endbr64 
    1164:	68 13 00 00 00       	pushq  $0x13
    1169:	f2 e9 b1 fe ff ff    	bnd jmpq 1020 <.plt>
    116f:	90                   	nop
    1170:	f3 0f 1e fa          	endbr64 
    1174:	68 14 00 00 00       	pushq  $0x14
    1179:	f2 e9 a1 fe ff ff    	bnd jmpq 1020 <.plt>
    117f:	90                   	nop
    1180:	f3 0f 1e fa          	endbr64 
    1184:	68 15 00 00 00       	pushq  $0x15
    1189:	f2 e9 91 fe ff ff    	bnd jmpq 1020 <.plt>
    118f:	90                   	nop
    1190:	f3 0f 1e fa          	endbr64 
    1194:	68 16 00 00 00       	pushq  $0x16
    1199:	f2 e9 81 fe ff ff    	bnd jmpq 1020 <.plt>
    119f:	90                   	nop
    11a0:	f3 0f 1e fa          	endbr64 
    11a4:	68 17 00 00 00       	pushq  $0x17
    11a9:	f2 e9 71 fe ff ff    	bnd jmpq 1020 <.plt>
    11af:	90                   	nop
    11b0:	f3 0f 1e fa          	endbr64 
    11b4:	68 18 00 00 00       	pushq  $0x18
    11b9:	f2 e9 61 fe ff ff    	bnd jmpq 1020 <.plt>
    11bf:	90                   	nop
    11c0:	f3 0f 1e fa          	endbr64 
    11c4:	68 19 00 00 00       	pushq  $0x19
    11c9:	f2 e9 51 fe ff ff    	bnd jmpq 1020 <.plt>
    11cf:	90                   	nop
    11d0:	f3 0f 1e fa          	endbr64 
    11d4:	68 1a 00 00 00       	pushq  $0x1a
    11d9:	f2 e9 41 fe ff ff    	bnd jmpq 1020 <.plt>
    11df:	90                   	nop
    11e0:	f3 0f 1e fa          	endbr64 
    11e4:	68 1b 00 00 00       	pushq  $0x1b
    11e9:	f2 e9 31 fe ff ff    	bnd jmpq 1020 <.plt>
    11ef:	90                   	nop
    11f0:	f3 0f 1e fa          	endbr64 
    11f4:	68 1c 00 00 00       	pushq  $0x1c
    11f9:	f2 e9 21 fe ff ff    	bnd jmpq 1020 <.plt>
    11ff:	90                   	nop
    1200:	f3 0f 1e fa          	endbr64 
    1204:	68 1d 00 00 00       	pushq  $0x1d
    1209:	f2 e9 11 fe ff ff    	bnd jmpq 1020 <.plt>
    120f:	90                   	nop
    1210:	f3 0f 1e fa          	endbr64 
    1214:	68 1e 00 00 00       	pushq  $0x1e
    1219:	f2 e9 01 fe ff ff    	bnd jmpq 1020 <.plt>
    121f:	90                   	nop
    1220:	f3 0f 1e fa          	endbr64 
    1224:	68 1f 00 00 00       	pushq  $0x1f
    1229:	f2 e9 f1 fd ff ff    	bnd jmpq 1020 <.plt>
    122f:	90                   	nop
    1230:	f3 0f 1e fa          	endbr64 
    1234:	68 20 00 00 00       	pushq  $0x20
    1239:	f2 e9 e1 fd ff ff    	bnd jmpq 1020 <.plt>
    123f:	90                   	nop
    1240:	f3 0f 1e fa          	endbr64 
    1244:	68 21 00 00 00       	pushq  $0x21
    1249:	f2 e9 d1 fd ff ff    	bnd jmpq 1020 <.plt>
    124f:	90                   	nop
    1250:	f3 0f 1e fa          	endbr64 
    1254:	68 22 00 00 00       	pushq  $0x22
    1259:	f2 e9 c1 fd ff ff    	bnd jmpq 1020 <.plt>
    125f:	90                   	nop
    1260:	f3 0f 1e fa          	endbr64 
    1264:	68 23 00 00 00       	pushq  $0x23
    1269:	f2 e9 b1 fd ff ff    	bnd jmpq 1020 <.plt>
    126f:	90                   	nop

Disassembly of section .plt.got:

0000000000001270 <__cxa_finalize@plt>:
    1270:	f3 0f 1e fa          	endbr64 
    1274:	f2 ff 25 7d cd 00 00 	bnd jmpq *0xcd7d(%rip)        # dff8 <__cxa_finalize@GLIBC_2.2.5>
    127b:	0f 1f 44 00 00       	nopl   0x0(%rax,%rax,1)

Disassembly of section .plt.sec:

0000000000001280 <free@plt>:
    1280:	f3 0f 1e fa          	endbr64 
    1284:	f2 ff 25 2d cc 00 00 	bnd jmpq *0xcc2d(%rip)        # deb8 <free@GLIBC_2.2.5>
    128b:	0f 1f 44 00 00       	nopl   0x0(%rax,%rax,1)

0000000000001290 <putchar@plt>:
    1290:	f3 0f 1e fa          	endbr64 
    1294:	f2 ff 25 25 cc 00 00 	bnd jmpq *0xcc25(%rip)        # dec0 <putchar@GLIBC_2.2.5>
    129b:	0f 1f 44 00 00       	nopl   0x0(%rax,%rax,1)

00000000000012a0 <__errno_location@plt>:
    12a0:	f3 0f 1e fa          	endbr64 
    12a4:	f2 ff 25 1d cc 00 00 	bnd jmpq *0xcc1d(%rip)        # dec8 <__errno_location@GLIBC_2.2.5>
    12ab:	0f 1f 44 00 00       	nopl   0x0(%rax,%rax,1)

00000000000012b0 <strcpy@plt>:
    12b0:	f3 0f 1e fa          	endbr64 
    12b4:	f2 ff 25 15 cc 00 00 	bnd jmpq *0xcc15(%rip)        # ded0 <strcpy@GLIBC_2.2.5>
    12bb:	0f 1f 44 00 00       	nopl   0x0(%rax,%rax,1)

00000000000012c0 <mkdir@plt>:
    12c0:	f3 0f 1e fa          	endbr64 
    12c4:	f2 ff 25 0d cc 00 00 	bnd jmpq *0xcc0d(%rip)        # ded8 <mkdir@GLIBC_2.2.5>
    12cb:	0f 1f 44 00 00       	nopl   0x0(%rax,%rax,1)

00000000000012d0 <fread@plt>:
    12d0:	f3 0f 1e fa          	endbr64 
    12d4:	f2 ff 25 05 cc 00 00 	bnd jmpq *0xcc05(%rip)        # dee0 <fread@GLIBC_2.2.5>
    12db:	0f 1f 44 00 00       	nopl   0x0(%rax,%rax,1)

00000000000012e0 <clock_gettime@plt>:
    12e0:	f3 0f 1e fa          	endbr64 
    12e4:	f2 ff 25 fd cb 00 00 	bnd jmpq *0xcbfd(%rip)        # dee8 <clock_gettime@GLIBC_2.17>
    12eb:	0f 1f 44 00 00       	nopl   0x0(%rax,%rax,1)

00000000000012f0 <fclose@plt>:
    12f0:	f3 0f 1e fa          	endbr64 
    12f4:	f2 ff 25 f5 cb 00 00 	bnd jmpq *0xcbf5(%rip)        # def0 <fclose@GLIBC_2.2.5>
    12fb:	0f 1f 44 00 00       	nopl   0x0(%rax,%rax,1)

0000000000001300 <ctime@plt>:
    1300:	f3 0f 1e fa          	endbr64 
    1304:	f2 ff 25 ed cb 00 00 	bnd jmpq *0xcbed(%rip)        # def8 <ctime@GLIBC_2.2.5>
    130b:	0f 1f 44 00 00       	nopl   0x0(%rax,%rax,1)

0000000000001310 <__stack_chk_fail@plt>:
    1310:	f3 0f 1e fa          	endbr64 
    1314:	f2 ff 25 e5 cb 00 00 	bnd jmpq *0xcbe5(%rip)        # df00 <__stack_chk_fail@GLIBC_2.4>
    131b:	0f 1f 44 00 00       	nopl   0x0(%rax,%rax,1)

0000000000001320 <strchr@plt>:
    1320:	f3 0f 1e fa          	endbr64 
    1324:	f2 ff 25 dd cb 00 00 	bnd jmpq *0xcbdd(%rip)        # df08 <strchr@GLIBC_2.2.5>
    132b:	0f 1f 44 00 00       	nopl   0x0(%rax,%rax,1)

0000000000001330 <strrchr@plt>:
    1330:	f3 0f 1e fa          	endbr64 
    1334:	f2 ff 25 d5 cb 00 00 	bnd jmpq *0xcbd5(%rip)        # df10 <strrchr@GLIBC_2.2.5>
    133b:	0f 1f 44 00 00       	nopl   0x0(%rax,%rax,1)

0000000000001340 <__assert_fail@plt>:
    1340:	f3 0f 1e fa          	endbr64 
    1344:	f2 ff 25 cd cb 00 00 	bnd jmpq *0xcbcd(%rip)        # df18 <__assert_fail@GLIBC_2.2.5>
    134b:	0f 1f 44 00 00       	nopl   0x0(%rax,%rax,1)

0000000000001350 <memset@plt>:
    1350:	f3 0f 1e fa          	endbr64 
    1354:	f2 ff 25 c5 cb 00 00 	bnd jmpq *0xcbc5(%rip)        # df20 <memset@GLIBC_2.2.5>
    135b:	0f 1f 44 00 00       	nopl   0x0(%rax,%rax,1)

0000000000001360 <getcwd@plt>:
    1360:	f3 0f 1e fa          	endbr64 
    1364:	f2 ff 25 bd cb 00 00 	bnd jmpq *0xcbbd(%rip)        # df28 <getcwd@GLIBC_2.2.5>
    136b:	0f 1f 44 00 00       	nopl   0x0(%rax,%rax,1)

0000000000001370 <mrand48@plt>:
    1370:	f3 0f 1e fa          	endbr64 
    1374:	f2 ff 25 b5 cb 00 00 	bnd jmpq *0xcbb5(%rip)        # df30 <mrand48@GLIBC_2.2.5>
    137b:	0f 1f 44 00 00       	nopl   0x0(%rax,%rax,1)

0000000000001380 <calloc@plt>:
    1380:	f3 0f 1e fa          	endbr64 
    1384:	f2 ff 25 ad cb 00 00 	bnd jmpq *0xcbad(%rip)        # df38 <calloc@GLIBC_2.2.5>
    138b:	0f 1f 44 00 00       	nopl   0x0(%rax,%rax,1)

0000000000001390 <strcmp@plt>:
    1390:	f3 0f 1e fa          	endbr64 
    1394:	f2 ff 25 a5 cb 00 00 	bnd jmpq *0xcba5(%rip)        # df40 <strcmp@GLIBC_2.2.5>
    139b:	0f 1f 44 00 00       	nopl   0x0(%rax,%rax,1)

00000000000013a0 <signal@plt>:
    13a0:	f3 0f 1e fa          	endbr64 
    13a4:	f2 ff 25 9d cb 00 00 	bnd jmpq *0xcb9d(%rip)        # df48 <signal@GLIBC_2.2.5>
    13ab:	0f 1f 44 00 00       	nopl   0x0(%rax,%rax,1)

00000000000013b0 <__memcpy_chk@plt>:
    13b0:	f3 0f 1e fa          	endbr64 
    13b4:	f2 ff 25 95 cb 00 00 	bnd jmpq *0xcb95(%rip)        # df50 <__memcpy_chk@GLIBC_2.3.4>
    13bb:	0f 1f 44 00 00       	nopl   0x0(%rax,%rax,1)

00000000000013c0 <memcpy@plt>:
    13c0:	f3 0f 1e fa          	endbr64 
    13c4:	f2 ff 25 8d cb 00 00 	bnd jmpq *0xcb8d(%rip)        # df58 <memcpy@GLIBC_2.14>
    13cb:	0f 1f 44 00 00       	nopl   0x0(%rax,%rax,1)

00000000000013d0 <time@plt>:
    13d0:	f3 0f 1e fa          	endbr64 
    13d4:	f2 ff 25 85 cb 00 00 	bnd jmpq *0xcb85(%rip)        # df60 <time@GLIBC_2.2.5>
    13db:	0f 1f 44 00 00       	nopl   0x0(%rax,%rax,1)

00000000000013e0 <__stpcpy_chk@plt>:
    13e0:	f3 0f 1e fa          	endbr64 
    13e4:	f2 ff 25 7d cb 00 00 	bnd jmpq *0xcb7d(%rip)        # df68 <__stpcpy_chk@GLIBC_2.3.4>
    13eb:	0f 1f 44 00 00       	nopl   0x0(%rax,%rax,1)

00000000000013f0 <__xstat@plt>:
    13f0:	f3 0f 1e fa          	endbr64 
    13f4:	f2 ff 25 75 cb 00 00 	bnd jmpq *0xcb75(%rip)        # df70 <__xstat@GLIBC_2.2.5>
    13fb:	0f 1f 44 00 00       	nopl   0x0(%rax,%rax,1)

0000000000001400 <malloc@plt>:
    1400:	f3 0f 1e fa          	endbr64 
    1404:	f2 ff 25 6d cb 00 00 	bnd jmpq *0xcb6d(%rip)        # df78 <malloc@GLIBC_2.2.5>
    140b:	0f 1f 44 00 00       	nopl   0x0(%rax,%rax,1)

0000000000001410 <__isoc99_sscanf@plt>:
    1410:	f3 0f 1e fa          	endbr64 
    1414:	f2 ff 25 65 cb 00 00 	bnd jmpq *0xcb65(%rip)        # df80 <__isoc99_sscanf@GLIBC_2.7>
    141b:	0f 1f 44 00 00       	nopl   0x0(%rax,%rax,1)

0000000000001420 <srand48@plt>:
    1420:	f3 0f 1e fa          	endbr64 
    1424:	f2 ff 25 5d cb 00 00 	bnd jmpq *0xcb5d(%rip)        # df88 <srand48@GLIBC_2.2.5>
    142b:	0f 1f 44 00 00       	nopl   0x0(%rax,%rax,1)

0000000000001430 <__printf_chk@plt>:
    1430:	f3 0f 1e fa          	endbr64 
    1434:	f2 ff 25 55 cb 00 00 	bnd jmpq *0xcb55(%rip)        # df90 <__printf_chk@GLIBC_2.3.4>
    143b:	0f 1f 44 00 00       	nopl   0x0(%rax,%rax,1)

0000000000001440 <fopen@plt>:
    1440:	f3 0f 1e fa          	endbr64 
    1444:	f2 ff 25 4d cb 00 00 	bnd jmpq *0xcb4d(%rip)        # df98 <fopen@GLIBC_2.2.5>
    144b:	0f 1f 44 00 00       	nopl   0x0(%rax,%rax,1)

0000000000001450 <perror@plt>:
    1450:	f3 0f 1e fa          	endbr64 
    1454:	f2 ff 25 45 cb 00 00 	bnd jmpq *0xcb45(%rip)        # dfa0 <perror@GLIBC_2.2.5>
    145b:	0f 1f 44 00 00       	nopl   0x0(%rax,%rax,1)

0000000000001460 <exit@plt>:
    1460:	f3 0f 1e fa          	endbr64 
    1464:	f2 ff 25 3d cb 00 00 	bnd jmpq *0xcb3d(%rip)        # dfa8 <exit@GLIBC_2.2.5>
    146b:	0f 1f 44 00 00       	nopl   0x0(%rax,%rax,1)

0000000000001470 <fwrite@plt>:
    1470:	f3 0f 1e fa          	endbr64 
    1474:	f2 ff 25 35 cb 00 00 	bnd jmpq *0xcb35(%rip)        # dfb0 <fwrite@GLIBC_2.2.5>
    147b:	0f 1f 44 00 00       	nopl   0x0(%rax,%rax,1)

0000000000001480 <__fprintf_chk@plt>:
    1480:	f3 0f 1e fa          	endbr64 
    1484:	f2 ff 25 2d cb 00 00 	bnd jmpq *0xcb2d(%rip)        # dfb8 <__fprintf_chk@GLIBC_2.3.4>
    148b:	0f 1f 44 00 00       	nopl   0x0(%rax,%rax,1)

0000000000001490 <posix_memalign@plt>:
    1490:	f3 0f 1e fa          	endbr64 
    1494:	f2 ff 25 25 cb 00 00 	bnd jmpq *0xcb25(%rip)        # dfc0 <posix_memalign@GLIBC_2.2.5>
    149b:	0f 1f 44 00 00       	nopl   0x0(%rax,%rax,1)

00000000000014a0 <strdup@plt>:
    14a0:	f3 0f 1e fa          	endbr64 
    14a4:	f2 ff 25 1d cb 00 00 	bnd jmpq *0xcb1d(%rip)        # dfc8 <strdup@GLIBC_2.2.5>
    14ab:	0f 1f 44 00 00       	nopl   0x0(%rax,%rax,1)

00000000000014b0 <__sprintf_chk@plt>:
    14b0:	f3 0f 1e fa          	endbr64 
    14b4:	f2 ff 25 15 cb 00 00 	bnd jmpq *0xcb15(%rip)        # dfd0 <__sprintf_chk@GLIBC_2.3.4>
    14bb:	0f 1f 44 00 00       	nopl   0x0(%rax,%rax,1)

Disassembly of section .text:

00000000000014c0 <main>:
    14c0:	f3 0f 1e fa          	endbr64 
    14c4:	41 57                	push   %r15
    14c6:	41 56                	push   %r14
    14c8:	41 55                	push   %r13
    14ca:	41 54                	push   %r12
    14cc:	41 89 fc             	mov    %edi,%r12d
    14cf:	bf 03 00 00 00       	mov    $0x3,%edi
    14d4:	55                   	push   %rbp
    14d5:	53                   	push   %rbx
    14d6:	48 89 f3             	mov    %rsi,%rbx
    14d9:	48 8d 35 90 13 00 00 	lea    0x1390(%rip),%rsi        # 2870 <ctrl_bs_handler>
    14e0:	48 81 ec a8 01 00 00 	sub    $0x1a8,%rsp
    14e7:	48 8d ac 24 c0 00 00 	lea    0xc0(%rsp),%rbp
    14ee:	00 
    14ef:	64 48 8b 04 25 28 00 	mov    %fs:0x28,%rax
    14f6:	00 00 
    14f8:	48 89 84 24 98 01 00 	mov    %rax,0x198(%rsp)
    14ff:	00 
    1500:	31 c0                	xor    %eax,%eax
    1502:	e8 99 fe ff ff       	callq  13a0 <signal@plt>
    1507:	31 ff                	xor    %edi,%edi
    1509:	48 89 ee             	mov    %rbp,%rsi
    150c:	e8 cf fd ff ff       	callq  12e0 <clock_gettime@plt>
    1511:	41 83 fc 08          	cmp    $0x8,%r12d
    1515:	0f 84 98 00 00 00    	je     15b3 <main+0xf3>

# ifdef __va_arg_pack
__fortify_function int
fprintf (FILE *__restrict __stream, const char *__restrict __fmt, ...)
{
  return __fprintf_chk (__stream, __USE_FORTIFY_LEVEL - 1, __fmt,
    151b:	48 8b 0d 1e fc 00 00 	mov    0xfc1e(%rip),%rcx        # 11140 <stderr@@GLIBC_2.2.5>
    1522:	ba 3e 00 00 00       	mov    $0x3e,%edx
    1527:	be 01 00 00 00       	mov    $0x1,%esi
    152c:	48 8d 3d 6d 8d 00 00 	lea    0x8d6d(%rip),%rdi        # a2a0 <_IO_stdin_used+0x2a0>
    1533:	e8 38 ff ff ff       	callq  1470 <fwrite@plt>
    1538:	48 8b 0d 01 fc 00 00 	mov    0xfc01(%rip),%rcx        # 11140 <stderr@@GLIBC_2.2.5>
    153f:	ba 91 00 00 00       	mov    $0x91,%edx
    1544:	be 01 00 00 00       	mov    $0x1,%esi
    1549:	48 8d 3d 90 8d 00 00 	lea    0x8d90(%rip),%rdi        # a2e0 <_IO_stdin_used+0x2e0>
    1550:	e8 1b ff ff ff       	callq  1470 <fwrite@plt>
    1555:	48 8b 0d e4 fb 00 00 	mov    0xfbe4(%rip),%rcx        # 11140 <stderr@@GLIBC_2.2.5>
    155c:	ba 2a 00 00 00       	mov    $0x2a,%edx
    1561:	be 01 00 00 00       	mov    $0x1,%esi
    1566:	48 8d 3d 0b 8e 00 00 	lea    0x8e0b(%rip),%rdi        # a378 <_IO_stdin_used+0x378>
    156d:	e8 fe fe ff ff       	callq  1470 <fwrite@plt>
    1572:	48 8b 0d c7 fb 00 00 	mov    0xfbc7(%rip),%rcx        # 11140 <stderr@@GLIBC_2.2.5>
    1579:	ba 3f 00 00 00       	mov    $0x3f,%edx
    157e:	be 01 00 00 00       	mov    $0x1,%esi
    1583:	48 8d 3d 1e 8e 00 00 	lea    0x8e1e(%rip),%rdi        # a3a8 <_IO_stdin_used+0x3a8>
    158a:	e8 e1 fe ff ff       	callq  1470 <fwrite@plt>
    158f:	48 8b 0d aa fb 00 00 	mov    0xfbaa(%rip),%rcx        # 11140 <stderr@@GLIBC_2.2.5>
    1596:	48 8d 3d 4b 8e 00 00 	lea    0x8e4b(%rip),%rdi        # a3e8 <_IO_stdin_used+0x3e8>
    159d:	ba 7c 00 00 00       	mov    $0x7c,%edx
    15a2:	be 01 00 00 00       	mov    $0x1,%esi
    15a7:	e8 c4 fe ff ff       	callq  1470 <fwrite@plt>
    15ac:	31 ff                	xor    %edi,%edi
    15ae:	e8 ad fe ff ff       	callq  1460 <exit@plt>
    15b3:	48 8b 7b 10          	mov    0x10(%rbx),%rdi
    15b7:	31 c0                	xor    %eax,%eax
    15b9:	48 8d 94 24 90 00 00 	lea    0x90(%rsp),%rdx
    15c0:	00 
    15c1:	48 8d 35 6f 8a 00 00 	lea    0x8a6f(%rip),%rsi        # a037 <_IO_stdin_used+0x37>
    15c8:	e8 43 fe ff ff       	callq  1410 <__isoc99_sscanf@plt>
    15cd:	85 c0                	test   %eax,%eax
    15cf:	74 0a                	je     15db <main+0x11b>
    15d1:	83 bc 24 90 00 00 00 	cmpl   $0x0,0x90(%rsp)
    15d8:	00 
    15d9:	7f 24                	jg     15ff <main+0x13f>
    15db:	48 8b 0d 5e fb 00 00 	mov    0xfb5e(%rip),%rcx        # 11140 <stderr@@GLIBC_2.2.5>
    15e2:	48 8d 3d 51 8a 00 00 	lea    0x8a51(%rip),%rdi        # a03a <_IO_stdin_used+0x3a>
    15e9:	ba 14 00 00 00       	mov    $0x14,%edx
    15ee:	be 01 00 00 00       	mov    $0x1,%esi
    15f3:	e8 78 fe ff ff       	callq  1470 <fwrite@plt>
    15f8:	31 ff                	xor    %edi,%edi
    15fa:	e8 61 fe ff ff       	callq  1460 <exit@plt>
    15ff:	48 8b 7b 18          	mov    0x18(%rbx),%rdi
    1603:	31 c0                	xor    %eax,%eax
    1605:	48 8d 94 24 94 00 00 	lea    0x94(%rsp),%rdx
    160c:	00 
    160d:	48 8d 35 23 8a 00 00 	lea    0x8a23(%rip),%rsi        # a037 <_IO_stdin_used+0x37>
    1614:	e8 f7 fd ff ff       	callq  1410 <__isoc99_sscanf@plt>
    1619:	85 c0                	test   %eax,%eax
    161b:	74 0a                	je     1627 <main+0x167>
    161d:	83 bc 24 94 00 00 00 	cmpl   $0x0,0x94(%rsp)
    1624:	00 
    1625:	79 24                	jns    164b <main+0x18b>
    1627:	48 8b 0d 12 fb 00 00 	mov    0xfb12(%rip),%rcx        # 11140 <stderr@@GLIBC_2.2.5>
    162e:	48 8d 3d 1a 8a 00 00 	lea    0x8a1a(%rip),%rdi        # a04f <_IO_stdin_used+0x4f>
    1635:	ba 14 00 00 00       	mov    $0x14,%edx
    163a:	be 01 00 00 00       	mov    $0x1,%esi
    163f:	e8 2c fe ff ff       	callq  1470 <fwrite@plt>
    1644:	31 ff                	xor    %edi,%edi
    1646:	e8 15 fe ff ff       	callq  1460 <exit@plt>
    164b:	48 8b 7b 28          	mov    0x28(%rbx),%rdi
    164f:	31 c0                	xor    %eax,%eax
    1651:	48 8d 94 24 98 00 00 	lea    0x98(%rsp),%rdx
    1658:	00 
    1659:	48 8d 35 d7 89 00 00 	lea    0x89d7(%rip),%rsi        # a037 <_IO_stdin_used+0x37>
    1660:	e8 ab fd ff ff       	callq  1410 <__isoc99_sscanf@plt>
    1665:	85 c0                	test   %eax,%eax
    1667:	74 0a                	je     1673 <main+0x1b3>
    1669:	83 bc 24 98 00 00 00 	cmpl   $0x0,0x98(%rsp)
    1670:	00 
    1671:	7f 24                	jg     1697 <main+0x1d7>
    1673:	48 8b 0d c6 fa 00 00 	mov    0xfac6(%rip),%rcx        # 11140 <stderr@@GLIBC_2.2.5>
    167a:	48 8d 3d e3 89 00 00 	lea    0x89e3(%rip),%rdi        # a064 <_IO_stdin_used+0x64>
    1681:	ba 15 00 00 00       	mov    $0x15,%edx
    1686:	be 01 00 00 00       	mov    $0x1,%esi
    168b:	e8 e0 fd ff ff       	callq  1470 <fwrite@plt>
    1690:	31 ff                	xor    %edi,%edi
    1692:	e8 c9 fd ff ff       	callq  1460 <exit@plt>
    1697:	48 8b 7b 30          	mov    0x30(%rbx),%rdi
    169b:	31 c0                	xor    %eax,%eax
    169d:	48 8d 94 24 9c 00 00 	lea    0x9c(%rsp),%rdx
    16a4:	00 
    16a5:	48 8d 35 8b 89 00 00 	lea    0x898b(%rip),%rsi        # a037 <_IO_stdin_used+0x37>
    16ac:	e8 5f fd ff ff       	callq  1410 <__isoc99_sscanf@plt>
    16b1:	85 c0                	test   %eax,%eax
    16b3:	74 0a                	je     16bf <main+0x1ff>
    16b5:	83 bc 24 9c 00 00 00 	cmpl   $0x0,0x9c(%rsp)
    16bc:	00 
    16bd:	79 24                	jns    16e3 <main+0x223>
    16bf:	48 8b 0d 7a fa 00 00 	mov    0xfa7a(%rip),%rcx        # 11140 <stderr@@GLIBC_2.2.5>
    16c6:	48 8d 3d 9b 8d 00 00 	lea    0x8d9b(%rip),%rdi        # a468 <_IO_stdin_used+0x468>
    16cd:	ba 1e 00 00 00       	mov    $0x1e,%edx
    16d2:	be 01 00 00 00       	mov    $0x1,%esi
    16d7:	e8 94 fd ff ff       	callq  1470 <fwrite@plt>
    16dc:	31 ff                	xor    %edi,%edi
    16de:	e8 7d fd ff ff       	callq  1460 <exit@plt>
    16e3:	48 8b 7b 38          	mov    0x38(%rbx),%rdi
    16e7:	31 c0                	xor    %eax,%eax
    16e9:	48 8d 94 24 a8 00 00 	lea    0xa8(%rsp),%rdx
    16f0:	00 
    16f1:	48 8d 35 82 89 00 00 	lea    0x8982(%rip),%rsi        # a07a <_IO_stdin_used+0x7a>
    16f8:	e8 13 fd ff ff       	callq  1410 <__isoc99_sscanf@plt>
    16fd:	85 c0                	test   %eax,%eax
    16ff:	0f 84 aa 01 00 00    	je     18af <main+0x3ef>
    1705:	48 8b 8c 24 a8 00 00 	mov    0xa8(%rsp),%rcx
    170c:	00 
    170d:	48 85 c9             	test   %rcx,%rcx
    1710:	0f 88 99 01 00 00    	js     18af <main+0x3ef>
    1716:	74 64                	je     177c <main+0x2bc>
    1718:	48 63 b4 24 98 00 00 	movslq 0x98(%rsp),%rsi
    171f:	00 
    1720:	48 63 94 24 90 00 00 	movslq 0x90(%rsp),%rdx
    1727:	00 
    1728:	48 63 84 24 9c 00 00 	movslq 0x9c(%rsp),%rax
    172f:	00 
    1730:	48 0f af f2          	imul   %rdx,%rsi
    1734:	85 c0                	test   %eax,%eax
    1736:	0f 85 55 05 00 00    	jne    1c91 <main+0x7d1>
    173c:	48 c1 e6 03          	shl    $0x3,%rsi
    1740:	48 89 c8             	mov    %rcx,%rax
    1743:	31 d2                	xor    %edx,%edx
    1745:	48 f7 f6             	div    %rsi
    1748:	48 85 d2             	test   %rdx,%rdx
    174b:	74 2f                	je     177c <main+0x2bc>
    174d:	48 89 cf             	mov    %rcx,%rdi
    1750:	48 89 f8             	mov    %rdi,%rax
    1753:	31 d2                	xor    %edx,%edx
    1755:	48 f7 f6             	div    %rsi
    1758:	48 85 d2             	test   %rdx,%rdx
    175b:	0f 84 b9 0f 00 00    	je     271a <main+0x125a>
    1761:	48 ff c1             	inc    %rcx
    1764:	48 89 c8             	mov    %rcx,%rax
    1767:	31 d2                	xor    %edx,%edx
    1769:	48 f7 f6             	div    %rsi
    176c:	48 ff cf             	dec    %rdi
    176f:	48 85 d2             	test   %rdx,%rdx
    1772:	75 dc                	jne    1750 <main+0x290>
    1774:	48 89 8c 24 a8 00 00 	mov    %rcx,0xa8(%rsp)
    177b:	00 
    177c:	4c 8b 63 20          	mov    0x20(%rbx),%r12
    1780:	48 8d 35 16 89 00 00 	lea    0x8916(%rip),%rsi        # a09d <_IO_stdin_used+0x9d>
    1787:	4c 89 e7             	mov    %r12,%rdi
    178a:	e8 01 fc ff ff       	callq  1390 <strcmp@plt>
    178f:	85 c0                	test   %eax,%eax
    1791:	0f 84 85 01 00 00    	je     191c <main+0x45c>
    1797:	48 8d 35 09 89 00 00 	lea    0x8909(%rip),%rsi        # a0a7 <_IO_stdin_used+0xa7>
    179e:	4c 89 e7             	mov    %r12,%rdi
    17a1:	e8 ea fb ff ff       	callq  1390 <strcmp@plt>
    17a6:	85 c0                	test   %eax,%eax
    17a8:	0f 85 25 01 00 00    	jne    18d3 <main+0x413>
    17ae:	8b 84 24 98 00 00 00 	mov    0x98(%rsp),%eax
    17b5:	8d 50 f8             	lea    -0x8(%rax),%edx
    17b8:	83 e2 f7             	and    $0xfffffff7,%edx
    17bb:	74 09                	je     17c6 <main+0x306>
    17bd:	83 f8 20             	cmp    $0x20,%eax
    17c0:	0f 85 2f 05 00 00    	jne    1cf5 <main+0x835>
    17c6:	c7 44 24 60 00 00 00 	movl   $0x0,0x60(%rsp)
    17cd:	00 
    17ce:	8b 44 24 60          	mov    0x60(%rsp),%eax
    17d2:	bf d4 03 00 00       	mov    $0x3d4,%edi
    17d7:	89 05 3b 11 01 00    	mov    %eax,0x1113b(%rip)        # 12918 <method>
    17dd:	e8 1e fc ff ff       	callq  1400 <malloc@plt>
	return __getcwd_chk (__buf, __size, __bos (__buf));

      if (__size > __bos (__buf))
	return __getcwd_chk_warn (__buf, __size, __bos (__buf));
    }
  return __getcwd_alias (__buf, __size);
    17e2:	48 89 c7             	mov    %rax,%rdi
    17e5:	be d4 03 00 00       	mov    $0x3d4,%esi
    17ea:	49 89 c4             	mov    %rax,%r12
    17ed:	e8 6e fb ff ff       	callq  1360 <getcwd@plt>
    17f2:	49 39 c4             	cmp    %rax,%r12
    17f5:	0f 85 58 0f 00 00    	jne    2753 <main+0x1293>
    17fb:	bf e8 03 00 00       	mov    $0x3e8,%edi
    1800:	e8 fb fb ff ff       	callq  1400 <malloc@plt>
    1805:	49 89 c7             	mov    %rax,%r15
#endif

__fortify_function char *
__NTH (strcpy (char *__restrict __dest, const char *__restrict __src))
{
  return __builtin___strcpy_chk (__dest, __src, __bos (__dest));
    1808:	ba e8 03 00 00       	mov    $0x3e8,%edx
    180d:	4c 89 e6             	mov    %r12,%rsi
    1810:	48 89 c7             	mov    %rax,%rdi
    1813:	48 89 44 24 78       	mov    %rax,0x78(%rsp)
    1818:	e8 c3 fb ff ff       	callq  13e0 <__stpcpy_chk@plt>


__fortify_function char *
__NTH (strcat (char *__restrict __dest, const char *__restrict __src))
{
  return __builtin___strcat_chk (__dest, __src, __bos (__dest));
    181d:	4c 89 f9             	mov    %r15,%rcx
    1820:	48 29 c1             	sub    %rax,%rcx
  return __builtin___strcpy_chk (__dest, __src, __bos (__dest));
    1823:	48 89 c7             	mov    %rax,%rdi
  return __builtin___strcat_chk (__dest, __src, __bos (__dest));
    1826:	48 81 c1 e8 03 00 00 	add    $0x3e8,%rcx
    182d:	ba 0c 00 00 00       	mov    $0xc,%edx
    1832:	48 8d 35 4a 89 00 00 	lea    0x894a(%rip),%rsi        # a183 <_IO_stdin_used+0x183>
    1839:	e8 72 fb ff ff       	callq  13b0 <__memcpy_chk@plt>
    183e:	48 8b 7b 08          	mov    0x8(%rbx),%rdi
    1842:	80 3f 2d             	cmpb   $0x2d,(%rdi)
    1845:	0f 84 fa 03 00 00    	je     1c45 <main+0x785>
    184b:	48 8d 35 3d 89 00 00 	lea    0x893d(%rip),%rsi        # a18f <_IO_stdin_used+0x18f>
    1852:	e8 e9 fb ff ff       	callq  1440 <fopen@plt>
    1857:	48 89 04 24          	mov    %rax,(%rsp)
    185b:	48 85 c0             	test   %rax,%rax
    185e:	0f 84 5b 04 00 00    	je     1cbf <main+0x7ff>
    1864:	be c0 01 00 00       	mov    $0x1c0,%esi
    1869:	48 8d 3d 38 89 00 00 	lea    0x8938(%rip),%rdi        # a1a8 <_IO_stdin_used+0x1a8>
    1870:	e8 4b fa ff ff       	callq  12c0 <mkdir@plt>
    1875:	ff c0                	inc    %eax
    1877:	0f 85 ac 00 00 00    	jne    1929 <main+0x469>
    187d:	e8 1e fa ff ff       	callq  12a0 <__errno_location@plt>
    1882:	83 38 11             	cmpl   $0x11,(%rax)
    1885:	0f 84 9e 00 00 00    	je     1929 <main+0x469>
    188b:	48 8b 0d ae f8 00 00 	mov    0xf8ae(%rip),%rcx        # 11140 <stderr@@GLIBC_2.2.5>
    1892:	48 8d 3d 7f 8d 00 00 	lea    0x8d7f(%rip),%rdi        # a618 <_IO_stdin_used+0x618>
    1899:	ba 23 00 00 00       	mov    $0x23,%edx
    189e:	be 01 00 00 00       	mov    $0x1,%esi
    18a3:	e8 c8 fb ff ff       	callq  1470 <fwrite@plt>
    18a8:	31 ff                	xor    %edi,%edi
    18aa:	e8 b1 fb ff ff       	callq  1460 <exit@plt>
    18af:	48 8b 0d 8a f8 00 00 	mov    0xf88a(%rip),%rcx        # 11140 <stderr@@GLIBC_2.2.5>
    18b6:	48 8d 3d c2 87 00 00 	lea    0x87c2(%rip),%rdi        # a07f <_IO_stdin_used+0x7f>
    18bd:	ba 1d 00 00 00       	mov    $0x1d,%edx
    18c2:	be 01 00 00 00       	mov    $0x1,%esi
    18c7:	e8 a4 fb ff ff       	callq  1470 <fwrite@plt>
    18cc:	31 ff                	xor    %edi,%edi
    18ce:	e8 8d fb ff ff       	callq  1460 <exit@plt>
    18d3:	48 8d 35 f8 87 00 00 	lea    0x87f8(%rip),%rsi        # a0d2 <_IO_stdin_used+0xd2>
    18da:	4c 89 e7             	mov    %r12,%rdi
    18dd:	e8 ae fa ff ff       	callq  1390 <strcmp@plt>
    18e2:	85 c0                	test   %eax,%eax
    18e4:	0f 85 02 0b 00 00    	jne    23ec <main+0xf2c>
    18ea:	83 bc 24 94 00 00 00 	cmpl   $0x2,0x94(%rsp)
    18f1:	02 
    18f2:	0f 84 cf 0a 00 00    	je     23c7 <main+0xf07>
    18f8:	48 8b 0d 41 f8 00 00 	mov    0xf841(%rip),%rcx        # 11140 <stderr@@GLIBC_2.2.5>
    18ff:	48 8d 3d db 87 00 00 	lea    0x87db(%rip),%rdi        # a0e1 <_IO_stdin_used+0xe1>
    1906:	ba 15 00 00 00       	mov    $0x15,%edx
    190b:	be 01 00 00 00       	mov    $0x1,%esi
    1910:	e8 5b fb ff ff       	callq  1470 <fwrite@plt>
    1915:	31 ff                	xor    %edi,%edi
    1917:	e8 44 fb ff ff       	callq  1460 <exit@plt>
    191c:	c7 44 24 60 09 00 00 	movl   $0x9,0x60(%rsp)
    1923:	00 
    1924:	e9 a5 fe ff ff       	jmpq   17ce <main+0x30e>
/* Inlined versions of the real stat and mknod functions.  */

__extern_inline int
__NTH (stat (const char *__path, struct stat *__statbuf))
{
  return __xstat (_STAT_VER, __path, __statbuf);
    1929:	48 8b 73 08          	mov    0x8(%rbx),%rsi
    192d:	48 8d 94 24 00 01 00 	lea    0x100(%rsp),%rdx
    1934:	00 
    1935:	bf 01 00 00 00       	mov    $0x1,%edi
    193a:	e8 b1 fa ff ff       	callq  13f0 <__xstat@plt>
    193f:	48 8b 84 24 30 01 00 	mov    0x130(%rsp),%rax
    1946:	00 
    1947:	48 89 84 24 a0 00 00 	mov    %rax,0xa0(%rsp)
    194e:	00 
    194f:	48 63 bc 24 90 00 00 	movslq 0x90(%rsp),%rdi
    1956:	00 
    1957:	8b 8c 24 98 00 00 00 	mov    0x98(%rsp),%ecx
    195e:	8b 84 24 9c 00 00 00 	mov    0x9c(%rsp),%eax
    1965:	0f af cf             	imul   %edi,%ecx
    1968:	48 8b b4 24 a0 00 00 	mov    0xa0(%rsp),%rsi
    196f:	00 
    1970:	85 c0                	test   %eax,%eax
    1972:	0f 84 9d 02 00 00    	je     1c15 <main+0x755>
    1978:	0f af c8             	imul   %eax,%ecx
    197b:	31 d2                	xor    %edx,%edx
    197d:	48 89 f0             	mov    %rsi,%rax
    1980:	48 63 c9             	movslq %ecx,%rcx
    1983:	48 c1 e1 03          	shl    $0x3,%rcx
    1987:	48 f7 f1             	div    %rcx
    198a:	49 89 f0             	mov    %rsi,%r8
    198d:	48 85 d2             	test   %rdx,%rdx
    1990:	0f 85 4b 02 00 00    	jne    1be1 <main+0x721>
    1996:	4c 8b a4 24 a8 00 00 	mov    0xa8(%rsp),%r12
    199d:	00 
    199e:	4d 85 e4             	test   %r12,%r12
    19a1:	75 55                	jne    19f8 <main+0x538>
    19a3:	4c 89 c0             	mov    %r8,%rax
    19a6:	48 99                	cqto   
    19a8:	48 f7 ff             	idiv   %rdi
    19ab:	48 89 b4 24 a8 00 00 	mov    %rsi,0xa8(%rsp)
    19b2:	00 
    19b3:	c7 05 53 0f 01 00 01 	movl   $0x1,0x10f53(%rip)        # 12910 <readins>
    19ba:	00 00 00 
    19bd:	48 8d bc 24 b8 00 00 	lea    0xb8(%rsp),%rdi
    19c4:	00 
    19c5:	4c 89 c2             	mov    %r8,%rdx
    19c8:	be 40 00 00 00       	mov    $0x40,%esi
    19cd:	48 89 44 24 50       	mov    %rax,0x50(%rsp)
    19d2:	e8 b9 fa ff ff       	callq  1490 <posix_memalign@plt>
    19d7:	85 c0                	test   %eax,%eax
    19d9:	0f 84 04 03 00 00    	je     1ce3 <main+0x823>
    19df:	48 8d 3d 62 88 00 00 	lea    0x8862(%rip),%rdi        # a248 <_IO_stdin_used+0x248>
    19e6:	e8 65 fa ff ff       	callq  1450 <perror@plt>
    19eb:	bf 01 00 00 00       	mov    $0x1,%edi
    19f0:	e8 6b fa ff ff       	callq  1460 <exit@plt>
    19f5:	49 ff c0             	inc    %r8
    19f8:	4c 89 c0             	mov    %r8,%rax
    19fb:	48 99                	cqto   
    19fd:	49 f7 fc             	idiv   %r12
    1a00:	48 85 d2             	test   %rdx,%rdx
    1a03:	75 f0                	jne    19f5 <main+0x535>
    1a05:	49 39 f4             	cmp    %rsi,%r12
    1a08:	7d 99                	jge    19a3 <main+0x4e3>
    1a0a:	48 8d bc 24 b0 00 00 	lea    0xb0(%rsp),%rdi
    1a11:	00 
    1a12:	4c 89 e2             	mov    %r12,%rdx
    1a15:	be 40 00 00 00       	mov    $0x40,%esi
    1a1a:	89 05 f0 0e 01 00    	mov    %eax,0x10ef0(%rip)        # 12910 <readins>
    1a20:	e8 6b fa ff ff       	callq  1490 <posix_memalign@plt>
    1a25:	85 c0                	test   %eax,%eax
    1a27:	75 b6                	jne    19df <main+0x51f>
    1a29:	48 8b 84 24 b0 00 00 	mov    0xb0(%rsp),%rax
    1a30:	00 
    1a31:	48 63 8c 24 90 00 00 	movslq 0x90(%rsp),%rcx
    1a38:	00 
    1a39:	48 89 44 24 40       	mov    %rax,0x40(%rsp)
    1a3e:	4c 89 e0             	mov    %r12,%rax
    1a41:	48 99                	cqto   
    1a43:	48 f7 f9             	idiv   %rcx
    1a46:	48 89 44 24 50       	mov    %rax,0x50(%rsp)
    1a4b:	4c 8b 63 08          	mov    0x8(%rbx),%r12
    1a4f:	31 c0                	xor    %eax,%eax
    1a51:	48 83 c9 ff          	or     $0xffffffffffffffff,%rcx
    1a55:	4c 89 e7             	mov    %r12,%rdi
    1a58:	f2 ae                	repnz scas %es:(%rdi),%al
    1a5a:	48 f7 d1             	not    %rcx
    1a5d:	48 8d 79 13          	lea    0x13(%rcx),%rdi
    1a61:	49 89 cd             	mov    %rcx,%r13
    1a64:	e8 97 f9 ff ff       	callq  1400 <malloc@plt>
    1a69:	be 2f 00 00 00       	mov    $0x2f,%esi
    1a6e:	4c 89 e7             	mov    %r12,%rdi
    1a71:	48 89 44 24 70       	mov    %rax,0x70(%rsp)
    1a76:	49 89 c7             	mov    %rax,%r15
    1a79:	e8 b2 f8 ff ff       	callq  1330 <strrchr@plt>
    1a7e:	48 85 c0             	test   %rax,%rax
    1a81:	0f 84 2b 09 00 00    	je     23b2 <main+0xef2>
    1a87:	48 8d 70 01          	lea    0x1(%rax),%rsi
  return __builtin___strcpy_chk (__dest, __src, __bos (__dest));
    1a8b:	4c 89 ff             	mov    %r15,%rdi
    1a8e:	e8 1d f8 ff ff       	callq  12b0 <strcpy@plt>
    1a93:	48 8b 7c 24 70       	mov    0x70(%rsp),%rdi
    1a98:	be 2e 00 00 00       	mov    $0x2e,%esi
    1a9d:	e8 7e f8 ff ff       	callq  1320 <strchr@plt>
    1aa2:	49 89 c5             	mov    %rax,%r13
    1aa5:	48 85 c0             	test   %rax,%rax
    1aa8:	0f 84 ae 09 00 00    	je     245c <main+0xf9c>
    1aae:	48 89 c7             	mov    %rax,%rdi
    1ab1:	e8 ea f9 ff ff       	callq  14a0 <strdup@plt>
    1ab6:	48 89 44 24 08       	mov    %rax,0x8(%rsp)
    1abb:	41 c6 45 00 00       	movb   $0x0,0x0(%r13)
    1ac0:	49 83 c9 ff          	or     $0xffffffffffffffff,%r9
    1ac4:	45 31 f6             	xor    %r14d,%r14d
    1ac7:	4c 89 c9             	mov    %r9,%rcx
    1aca:	44 89 f0             	mov    %r14d,%eax
    1acd:	4c 89 e7             	mov    %r12,%rdi
    1ad0:	f2 ae                	repnz scas %es:(%rdi),%al
    1ad2:	48 8b 7c 24 78       	mov    0x78(%rsp),%rdi
  return __builtin___sprintf_chk (__s, __USE_FORTIFY_LEVEL - 1,
    1ad7:	4c 8d a4 24 93 01 00 	lea    0x193(%rsp),%r12
    1ade:	00 
    1adf:	48 89 ca             	mov    %rcx,%rdx
    1ae2:	4c 89 c9             	mov    %r9,%rcx
    1ae5:	f2 ae                	repnz scas %es:(%rdi),%al
    1ae7:	48 f7 d2             	not    %rdx
    1aea:	48 f7 d1             	not    %rcx
    1aed:	48 8d 7c 0a 12       	lea    0x12(%rdx,%rcx,1),%rdi
    1af2:	e8 09 f9 ff ff       	callq  1400 <malloc@plt>
    1af7:	44 8b 84 24 90 00 00 	mov    0x90(%rsp),%r8d
    1afe:	00 
    1aff:	ba 05 00 00 00       	mov    $0x5,%edx
    1b04:	be 01 00 00 00       	mov    $0x1,%esi
    1b09:	4c 89 e7             	mov    %r12,%rdi
    1b0c:	48 8d 0d 24 85 00 00 	lea    0x8524(%rip),%rcx        # a037 <_IO_stdin_used+0x37>
    1b13:	49 89 c5             	mov    %rax,%r13
    1b16:	31 c0                	xor    %eax,%eax
    1b18:	e8 93 f9 ff ff       	callq  14b0 <__sprintf_chk@plt>
    1b1d:	49 83 c9 ff          	or     $0xffffffffffffffff,%r9
    1b21:	4c 89 c9             	mov    %r9,%rcx
    1b24:	4c 89 e7             	mov    %r12,%rdi
    1b27:	44 89 f0             	mov    %r14d,%eax
    1b2a:	f2 ae                	repnz scas %es:(%rdi),%al
    1b2c:	48 63 bc 24 90 00 00 	movslq 0x90(%rsp),%rdi
    1b33:	00 
    1b34:	45 31 e4             	xor    %r12d,%r12d
    1b37:	48 c1 e7 03          	shl    $0x3,%rdi
    1b3b:	48 f7 d1             	not    %rcx
    1b3e:	8d 41 ff             	lea    -0x1(%rcx),%eax
    1b41:	89 44 24 14          	mov    %eax,0x14(%rsp)
    1b45:	e8 b6 f8 ff ff       	callq  1400 <malloc@plt>
    1b4a:	48 63 bc 24 94 00 00 	movslq 0x94(%rsp),%rdi
    1b51:	00 
    1b52:	49 89 c6             	mov    %rax,%r14
    1b55:	48 c1 e7 03          	shl    $0x3,%rdi
    1b59:	e8 a2 f8 ff ff       	callq  1400 <malloc@plt>
    1b5e:	4c 63 7c 24 50       	movslq 0x50(%rsp),%r15
    1b63:	48 89 44 24 30       	mov    %rax,0x30(%rsp)
    1b68:	48 89 5c 24 18       	mov    %rbx,0x18(%rsp)
    1b6d:	48 89 c3             	mov    %rax,%rbx
    1b70:	4c 89 f8             	mov    %r15,%rax
    1b73:	49 89 ef             	mov    %rbp,%r15
    1b76:	48 89 c5             	mov    %rax,%rbp
    1b79:	eb 1f                	jmp    1b9a <main+0x6da>
    1b7b:	48 89 ea             	mov    %rbp,%rdx
    1b7e:	be 40 00 00 00       	mov    $0x40,%esi
    1b83:	48 89 df             	mov    %rbx,%rdi
    1b86:	e8 05 f9 ff ff       	callq  1490 <posix_memalign@plt>
    1b8b:	85 c0                	test   %eax,%eax
    1b8d:	0f 85 4c fe ff ff    	jne    19df <main+0x51f>
    1b93:	41 ff c4             	inc    %r12d
    1b96:	48 83 c3 08          	add    $0x8,%rbx
    1b9a:	44 39 a4 24 94 00 00 	cmp    %r12d,0x94(%rsp)
    1ba1:	00 
    1ba2:	7f d7                	jg     1b7b <main+0x6bb>
    1ba4:	48 8d 84 24 e0 00 00 	lea    0xe0(%rsp),%rax
    1bab:	00 
    1bac:	48 89 c6             	mov    %rax,%rsi
    1baf:	31 ff                	xor    %edi,%edi
    1bb1:	48 89 44 24 38       	mov    %rax,0x38(%rsp)
    1bb6:	48 8b 5c 24 18       	mov    0x18(%rsp),%rbx
    1bbb:	e8 20 f7 ff ff       	callq  12e0 <clock_gettime@plt>
    1bc0:	8b 44 24 60          	mov    0x60(%rsp),%eax
    1bc4:	4c 89 fd             	mov    %r15,%rbp
    1bc7:	83 f8 08             	cmp    $0x8,%eax
    1bca:	0f 87 fd 08 00 00    	ja     24cd <main+0x100d>
    1bd0:	48 8d 15 b1 8a 00 00 	lea    0x8ab1(%rip),%rdx        # a688 <_IO_stdin_used+0x688>
    1bd7:	48 63 04 82          	movslq (%rdx,%rax,4),%rax
    1bdb:	48 01 d0             	add    %rdx,%rax
    1bde:	3e ff e0             	notrack jmpq *%rax
    1be1:	49 ff c0             	inc    %r8
    1be4:	4c 89 c0             	mov    %r8,%rax
    1be7:	31 d2                	xor    %edx,%edx
    1be9:	48 f7 f1             	div    %rcx
    1bec:	48 85 d2             	test   %rdx,%rdx
    1bef:	75 f0                	jne    1be1 <main+0x721>
    1bf1:	e9 a0 fd ff ff       	jmpq   1996 <main+0x4d6>
    1bf6:	48 8d 0d dc 8a 00 00 	lea    0x8adc(%rip),%rcx        # a6d9 <__PRETTY_FUNCTION__.5741>
    1bfd:	ba df 01 00 00       	mov    $0x1df,%edx
    1c02:	48 8d 35 22 84 00 00 	lea    0x8422(%rip),%rsi        # a02b <_IO_stdin_used+0x2b>
    1c09:	48 8d 3d 25 84 00 00 	lea    0x8425(%rip),%rdi        # a035 <_IO_stdin_used+0x35>
    1c10:	e8 2b f7 ff ff       	callq  1340 <__assert_fail@plt>
    1c15:	48 63 c9             	movslq %ecx,%rcx
    1c18:	48 c1 e1 03          	shl    $0x3,%rcx
    1c1c:	48 89 f0             	mov    %rsi,%rax
    1c1f:	31 d2                	xor    %edx,%edx
    1c21:	48 f7 f1             	div    %rcx
    1c24:	49 89 f0             	mov    %rsi,%r8
    1c27:	48 85 d2             	test   %rdx,%rdx
    1c2a:	0f 84 66 fd ff ff    	je     1996 <main+0x4d6>
    1c30:	49 ff c0             	inc    %r8
    1c33:	4c 89 c0             	mov    %r8,%rax
    1c36:	31 d2                	xor    %edx,%edx
    1c38:	48 f7 f1             	div    %rcx
    1c3b:	48 85 d2             	test   %rdx,%rdx
    1c3e:	75 f0                	jne    1c30 <main+0x770>
    1c40:	e9 51 fd ff ff       	jmpq   1996 <main+0x4d6>
    1c45:	48 ff c7             	inc    %rdi
    1c48:	31 c0                	xor    %eax,%eax
    1c4a:	48 8d 94 24 a0 00 00 	lea    0xa0(%rsp),%rdx
    1c51:	00 
    1c52:	48 8d 35 21 84 00 00 	lea    0x8421(%rip),%rsi        # a07a <_IO_stdin_used+0x7a>
    1c59:	e8 b2 f7 ff ff       	callq  1410 <__isoc99_sscanf@plt>
    1c5e:	ff c8                	dec    %eax
    1c60:	0f 85 c1 0a 00 00    	jne    2727 <main+0x1267>
    1c66:	48 83 bc 24 a0 00 00 	cmpq   $0x0,0xa0(%rsp)
    1c6d:	00 00 
    1c6f:	0f 8e b2 0a 00 00    	jle    2727 <main+0x1267>
    1c75:	31 ff                	xor    %edi,%edi
    1c77:	e8 54 f7 ff ff       	callq  13d0 <time@plt>
    1c7c:	48 89 c7             	mov    %rax,%rdi
    1c7f:	e8 9c f7 ff ff       	callq  1420 <srand48@plt>
    1c84:	48 c7 04 24 00 00 00 	movq   $0x0,(%rsp)
    1c8b:	00 
    1c8c:	e9 be fc ff ff       	jmpq   194f <main+0x48f>
    1c91:	48 0f af f0          	imul   %rax,%rsi
    1c95:	31 d2                	xor    %edx,%edx
    1c97:	48 89 c8             	mov    %rcx,%rax
    1c9a:	48 c1 e6 03          	shl    $0x3,%rsi
    1c9e:	48 f7 f6             	div    %rsi
    1ca1:	48 85 d2             	test   %rdx,%rdx
    1ca4:	0f 84 d2 fa ff ff    	je     177c <main+0x2bc>
    1caa:	48 ff c1             	inc    %rcx
    1cad:	48 89 c8             	mov    %rcx,%rax
    1cb0:	31 d2                	xor    %edx,%edx
    1cb2:	48 f7 f6             	div    %rsi
    1cb5:	48 85 d2             	test   %rdx,%rdx
    1cb8:	75 f0                	jne    1caa <main+0x7ea>
    1cba:	e9 b5 fa ff ff       	jmpq   1774 <main+0x2b4>
  return __fprintf_chk (__stream, __USE_FORTIFY_LEVEL - 1, __fmt,
    1cbf:	48 8b 0d 7a f4 00 00 	mov    0xf47a(%rip),%rcx        # 11140 <stderr@@GLIBC_2.2.5>
    1cc6:	48 8d 3d c5 84 00 00 	lea    0x84c5(%rip),%rdi        # a192 <_IO_stdin_used+0x192>
    1ccd:	ba 15 00 00 00       	mov    $0x15,%edx
    1cd2:	be 01 00 00 00       	mov    $0x1,%esi
    1cd7:	e8 94 f7 ff ff       	callq  1470 <fwrite@plt>
    1cdc:	31 ff                	xor    %edi,%edi
    1cde:	e8 7d f7 ff ff       	callq  1460 <exit@plt>
    1ce3:	48 8b 84 24 b8 00 00 	mov    0xb8(%rsp),%rax
    1cea:	00 
    1ceb:	48 89 44 24 40       	mov    %rax,0x40(%rsp)
    1cf0:	e9 56 fd ff ff       	jmpq   1a4b <main+0x58b>
    1cf5:	48 8b 0d 44 f4 00 00 	mov    0xf444(%rip),%rcx        # 11140 <stderr@@GLIBC_2.2.5>
    1cfc:	48 8d 3d b1 83 00 00 	lea    0x83b1(%rip),%rdi        # a0b4 <_IO_stdin_used+0xb4>
    1d03:	ba 1d 00 00 00       	mov    $0x1d,%edx
    1d08:	be 01 00 00 00       	mov    $0x1,%esi
    1d0d:	e8 5e f7 ff ff       	callq  1470 <fwrite@plt>
    1d12:	31 ff                	xor    %edi,%edi
    1d14:	e8 47 f7 ff ff       	callq  1460 <exit@plt>
    1d19:	8b bc 24 90 00 00 00 	mov    0x90(%rsp),%edi
    1d20:	e8 6b 10 00 00       	callq  2d90 <liber8tion_coding_bitmatrix>
    1d25:	8b 94 24 98 00 00 00 	mov    0x98(%rsp),%edx
    1d2c:	8b b4 24 94 00 00 00 	mov    0x94(%rsp),%esi
    1d33:	8b bc 24 90 00 00 00 	mov    0x90(%rsp),%edi
    1d3a:	48 89 c1             	mov    %rax,%rcx
    1d3d:	e8 0e 46 00 00       	callq  6350 <jerasure_smart_bitmatrix_to_schedule>
    1d42:	48 89 44 24 58       	mov    %rax,0x58(%rsp)
    1d47:	48 c7 44 24 68 00 00 	movq   $0x0,0x68(%rsp)
    1d4e:	00 00 
    1d50:	48 8d 84 24 f0 00 00 	lea    0xf0(%rsp),%rax
    1d57:	00 
    1d58:	48 89 c6             	mov    %rax,%rsi
    1d5b:	31 ff                	xor    %edi,%edi
    1d5d:	49 89 c7             	mov    %rax,%r15
    1d60:	48 89 44 24 48       	mov    %rax,0x48(%rsp)
    1d65:	e8 76 f5 ff ff       	callq  12e0 <clock_gettime@plt>
    1d6a:	48 8b 7c 24 38       	mov    0x38(%rsp),%rdi
    1d6f:	4c 89 fe             	mov    %r15,%rsi
    1d72:	e8 49 7d 00 00       	callq  9ac0 <timing_delta>
    1d77:	c5 fb 58 2d 61 89 00 	vaddsd 0x8961(%rip),%xmm0,%xmm5        # a6e0 <__PRETTY_FUNCTION__.5741+0x7>
    1d7e:	00 
    1d7f:	c7 05 8b 0b 01 00 01 	movl   $0x1,0x10b8b(%rip)        # 12914 <n>
    1d86:	00 00 00 
    1d89:	c7 44 24 64 00 00 00 	movl   $0x0,0x64(%rsp)
    1d90:	00 
    1d91:	48 89 9c 24 80 00 00 	mov    %rbx,0x80(%rsp)
    1d98:	00 
    1d99:	48 89 ac 24 88 00 00 	mov    %rbp,0x88(%rsp)
    1da0:	00 
    1da1:	4c 63 64 24 50       	movslq 0x50(%rsp),%r12
    1da6:	4c 8b 7c 24 70       	mov    0x70(%rsp),%r15
    1dab:	48 8b 6c 24 78       	mov    0x78(%rsp),%rbp
    1db0:	c5 fb 11 6c 24 28    	vmovsd %xmm5,0x28(%rsp)
    1db6:	8b 05 54 0b 01 00    	mov    0x10b54(%rip),%eax        # 12910 <readins>
    1dbc:	39 05 52 0b 01 00    	cmp    %eax,0x10b52(%rip)        # 12914 <n>
    1dc2:	0f 8f 4e 03 00 00    	jg     2116 <main+0xc56>
    1dc8:	48 63 44 24 64       	movslq 0x64(%rsp),%rax
    1dcd:	48 8b 94 24 a0 00 00 	mov    0xa0(%rsp),%rdx
    1dd4:	00 
    1dd5:	48 39 d0             	cmp    %rdx,%rax
    1dd8:	0f 8c ba 02 00 00    	jl     2098 <main+0xbd8>
    1dde:	0f 84 10 03 00 00    	je     20f4 <main+0xc34>
    1de4:	8b 8c 24 90 00 00 00 	mov    0x90(%rsp),%ecx
    1deb:	48 8b 54 24 40       	mov    0x40(%rsp),%rdx
    1df0:	31 c0                	xor    %eax,%eax
    1df2:	eb 0a                	jmp    1dfe <main+0x93e>
    1df4:	49 89 14 c6          	mov    %rdx,(%r14,%rax,8)
    1df8:	48 ff c0             	inc    %rax
    1dfb:	4c 01 e2             	add    %r12,%rdx
    1dfe:	39 c1                	cmp    %eax,%ecx
    1e00:	7f f2                	jg     1df4 <main+0x934>
    1e02:	48 8b 74 24 38       	mov    0x38(%rsp),%rsi
    1e07:	31 ff                	xor    %edi,%edi
    1e09:	e8 d2 f4 ff ff       	callq  12e0 <clock_gettime@plt>
    1e0e:	8b 44 24 60          	mov    0x60(%rsp),%eax
    1e12:	83 f8 08             	cmp    $0x8,%eax
    1e15:	77 48                	ja     1e5f <main+0x99f>
    1e17:	48 8d 1d 8e 88 00 00 	lea    0x888e(%rip),%rbx        # a6ac <_IO_stdin_used+0x6ac>
    1e1e:	48 63 04 83          	movslq (%rbx,%rax,4),%rax
    1e22:	48 01 d8             	add    %rbx,%rax
    1e25:	3e ff e0             	notrack jmpq *%rax
    1e28:	8b 84 24 9c 00 00 00 	mov    0x9c(%rsp),%eax
    1e2f:	4d 89 f0             	mov    %r14,%r8
    1e32:	50                   	push   %rax
    1e33:	8b 44 24 58          	mov    0x58(%rsp),%eax
    1e37:	50                   	push   %rax
    1e38:	4c 8b 4c 24 40       	mov    0x40(%rsp),%r9
    1e3d:	48 8b 4c 24 68       	mov    0x68(%rsp),%rcx
    1e42:	8b 94 24 a8 00 00 00 	mov    0xa8(%rsp),%edx
    1e49:	8b b4 24 a4 00 00 00 	mov    0xa4(%rsp),%esi
    1e50:	8b bc 24 a0 00 00 00 	mov    0xa0(%rsp),%edi
    1e57:	e8 54 42 00 00       	callq  60b0 <jerasure_schedule_encode>
    1e5c:	5f                   	pop    %rdi
    1e5d:	41 58                	pop    %r8
    1e5f:	48 8b 74 24 48       	mov    0x48(%rsp),%rsi
    1e64:	31 ff                	xor    %edi,%edi
    1e66:	e8 75 f4 ff ff       	callq  12e0 <clock_gettime@plt>
    1e6b:	bb 01 00 00 00       	mov    $0x1,%ebx
    1e70:	eb 78                	jmp    1eea <main+0xa2a>
  return __builtin___sprintf_chk (__s, __USE_FORTIFY_LEVEL - 1,
    1e72:	56                   	push   %rsi
    1e73:	48 83 ca ff          	or     $0xffffffffffffffff,%rdx
    1e77:	4d 89 f9             	mov    %r15,%r9
    1e7a:	ff 74 24 10          	pushq  0x10(%rsp)
    1e7e:	49 89 e8             	mov    %rbp,%r8
    1e81:	48 8d 0d 32 83 00 00 	lea    0x8332(%rip),%rcx        # a1ba <_IO_stdin_used+0x1ba>
    1e88:	53                   	push   %rbx
    1e89:	be 01 00 00 00       	mov    $0x1,%esi
    1e8e:	4c 89 ef             	mov    %r13,%rdi
    1e91:	8b 44 24 2c          	mov    0x2c(%rsp),%eax
    1e95:	50                   	push   %rax
    1e96:	31 c0                	xor    %eax,%eax
    1e98:	e8 13 f6 ff ff       	callq  14b0 <__sprintf_chk@plt>
    1e9d:	48 83 c4 20          	add    $0x20,%rsp
    1ea1:	83 3d 6c 0a 01 00 01 	cmpl   $0x1,0x10a6c(%rip)        # 12914 <n>
    1ea8:	0f 84 e0 00 00 00    	je     1f8e <main+0xace>
    1eae:	48 8d 35 1d 83 00 00 	lea    0x831d(%rip),%rsi        # a1d2 <_IO_stdin_used+0x1d2>
    1eb5:	4c 89 ef             	mov    %r13,%rdi
    1eb8:	e8 83 f5 ff ff       	callq  1440 <fopen@plt>
    1ebd:	49 89 c0             	mov    %rax,%r8
    1ec0:	49 8b 7c de f8       	mov    -0x8(%r14,%rbx,8),%rdi
    1ec5:	4c 89 c1             	mov    %r8,%rcx
    1ec8:	4c 89 e2             	mov    %r12,%rdx
    1ecb:	be 01 00 00 00       	mov    $0x1,%esi
    1ed0:	4c 89 44 24 18       	mov    %r8,0x18(%rsp)
    1ed5:	e8 96 f5 ff ff       	callq  1470 <fwrite@plt>
    1eda:	4c 8b 44 24 18       	mov    0x18(%rsp),%r8
    1edf:	4c 89 c7             	mov    %r8,%rdi
    1ee2:	e8 09 f4 ff ff       	callq  12f0 <fclose@plt>
    1ee7:	48 ff c3             	inc    %rbx
    1eea:	39 9c 24 90 00 00 00 	cmp    %ebx,0x90(%rsp)
    1ef1:	0f 8c ae 00 00 00    	jl     1fa5 <main+0xae5>
    1ef7:	48 83 3c 24 00       	cmpq   $0x0,(%rsp)
    1efc:	0f 85 70 ff ff ff    	jne    1e72 <main+0x9b2>
}

__fortify_function void
__NTH (bzero (void *__dest, size_t __len))
{
  (void) __builtin___memset_chk (__dest, '\0', __len, __bos0 (__dest));
    1f02:	49 8b 7c de f8       	mov    -0x8(%r14,%rbx,8),%rdi
    1f07:	4c 89 e2             	mov    %r12,%rdx
    1f0a:	31 f6                	xor    %esi,%esi
    1f0c:	e8 3f f4 ff ff       	callq  1350 <memset@plt>
}
    1f11:	eb d4                	jmp    1ee7 <main+0xa27>
    1f13:	48 8d 0d bf 87 00 00 	lea    0x87bf(%rip),%rcx        # a6d9 <__PRETTY_FUNCTION__.5741>
    1f1a:	ba 1b 02 00 00       	mov    $0x21b,%edx
    1f1f:	48 8d 35 05 81 00 00 	lea    0x8105(%rip),%rsi        # a02b <_IO_stdin_used+0x2b>
    1f26:	48 8d 3d 08 81 00 00 	lea    0x8108(%rip),%rdi        # a035 <_IO_stdin_used+0x35>
    1f2d:	e8 0e f4 ff ff       	callq  1340 <__assert_fail@plt>
    1f32:	44 8b 44 24 50       	mov    0x50(%rsp),%r8d
    1f37:	48 8b 4c 24 30       	mov    0x30(%rsp),%rcx
    1f3c:	8b b4 24 98 00 00 00 	mov    0x98(%rsp),%esi
    1f43:	8b bc 24 90 00 00 00 	mov    0x90(%rsp),%edi
    1f4a:	4c 89 f2             	mov    %r14,%rdx
    1f4d:	e8 de 6b 00 00       	callq  8b30 <reed_sol_r6_encode>
    1f52:	e9 08 ff ff ff       	jmpq   1e5f <main+0x99f>
    1f57:	41 51                	push   %r9
    1f59:	4d 89 f0             	mov    %r14,%r8
    1f5c:	8b 44 24 58          	mov    0x58(%rsp),%eax
    1f60:	50                   	push   %rax
    1f61:	4c 8b 4c 24 40       	mov    0x40(%rsp),%r9
    1f66:	48 8b 4c 24 78       	mov    0x78(%rsp),%rcx
    1f6b:	8b 94 24 a8 00 00 00 	mov    0xa8(%rsp),%edx
    1f72:	8b b4 24 a4 00 00 00 	mov    0xa4(%rsp),%esi
    1f79:	8b bc 24 a0 00 00 00 	mov    0xa0(%rsp),%edi
    1f80:	e8 7b 2f 00 00       	callq  4f00 <jerasure_matrix_encode>
    1f85:	41 5a                	pop    %r10
    1f87:	41 5b                	pop    %r11
    1f89:	e9 d1 fe ff ff       	jmpq   1e5f <main+0x99f>
    1f8e:	48 8d 35 3a 82 00 00 	lea    0x823a(%rip),%rsi        # a1cf <_IO_stdin_used+0x1cf>
    1f95:	4c 89 ef             	mov    %r13,%rdi
    1f98:	e8 a3 f4 ff ff       	callq  1440 <fopen@plt>
    1f9d:	49 89 c0             	mov    %rax,%r8
    1fa0:	e9 1b ff ff ff       	jmpq   1ec0 <main+0xa00>
    1fa5:	bb 01 00 00 00       	mov    $0x1,%ebx
    1faa:	4c 89 74 24 20       	mov    %r14,0x20(%rsp)
    1faf:	49 89 de             	mov    %rbx,%r14
    1fb2:	48 8b 5c 24 30       	mov    0x30(%rsp),%rbx
    1fb7:	eb 75                	jmp    202e <main+0xb6e>
    1fb9:	51                   	push   %rcx
    1fba:	48 83 ca ff          	or     $0xffffffffffffffff,%rdx
    1fbe:	4d 89 f9             	mov    %r15,%r9
    1fc1:	ff 74 24 10          	pushq  0x10(%rsp)
    1fc5:	49 89 e8             	mov    %rbp,%r8
    1fc8:	48 8d 0d 06 82 00 00 	lea    0x8206(%rip),%rcx        # a1d5 <_IO_stdin_used+0x1d5>
    1fcf:	41 56                	push   %r14
    1fd1:	be 01 00 00 00       	mov    $0x1,%esi
    1fd6:	4c 89 ef             	mov    %r13,%rdi
    1fd9:	8b 44 24 2c          	mov    0x2c(%rsp),%eax
    1fdd:	50                   	push   %rax
    1fde:	31 c0                	xor    %eax,%eax
    1fe0:	e8 cb f4 ff ff       	callq  14b0 <__sprintf_chk@plt>
    1fe5:	48 83 c4 20          	add    $0x20,%rsp
    1fe9:	83 3d 24 09 01 00 01 	cmpl   $0x1,0x10924(%rip)        # 12914 <n>
    1ff0:	74 67                	je     2059 <main+0xb99>
    1ff2:	48 8d 35 d9 81 00 00 	lea    0x81d9(%rip),%rsi        # a1d2 <_IO_stdin_used+0x1d2>
    1ff9:	4c 89 ef             	mov    %r13,%rdi
    1ffc:	e8 3f f4 ff ff       	callq  1440 <fopen@plt>
    2001:	49 89 c0             	mov    %rax,%r8
    2004:	4a 8b 7c f3 f8       	mov    -0x8(%rbx,%r14,8),%rdi
    2009:	4c 89 c1             	mov    %r8,%rcx
    200c:	4c 89 e2             	mov    %r12,%rdx
    200f:	be 01 00 00 00       	mov    $0x1,%esi
    2014:	4c 89 44 24 18       	mov    %r8,0x18(%rsp)
    2019:	e8 52 f4 ff ff       	callq  1470 <fwrite@plt>
    201e:	4c 8b 44 24 18       	mov    0x18(%rsp),%r8
    2023:	4c 89 c7             	mov    %r8,%rdi
    2026:	e8 c5 f2 ff ff       	callq  12f0 <fclose@plt>
    202b:	49 ff c6             	inc    %r14
    202e:	44 39 b4 24 94 00 00 	cmp    %r14d,0x94(%rsp)
    2035:	00 
    2036:	7c 35                	jl     206d <main+0xbad>
    2038:	48 83 3c 24 00       	cmpq   $0x0,(%rsp)
    203d:	0f 85 76 ff ff ff    	jne    1fb9 <main+0xaf9>
  (void) __builtin___memset_chk (__dest, '\0', __len, __bos0 (__dest));
    2043:	48 8b 44 24 20       	mov    0x20(%rsp),%rax
    2048:	4c 89 e2             	mov    %r12,%rdx
    204b:	4a 8b 7c f0 f8       	mov    -0x8(%rax,%r14,8),%rdi
    2050:	31 f6                	xor    %esi,%esi
    2052:	e8 f9 f2 ff ff       	callq  1350 <memset@plt>
}
    2057:	eb d2                	jmp    202b <main+0xb6b>
    2059:	48 8d 35 6f 81 00 00 	lea    0x816f(%rip),%rsi        # a1cf <_IO_stdin_used+0x1cf>
    2060:	4c 89 ef             	mov    %r13,%rdi
    2063:	e8 d8 f3 ff ff       	callq  1440 <fopen@plt>
    2068:	49 89 c0             	mov    %rax,%r8
    206b:	eb 97                	jmp    2004 <main+0xb44>
    206d:	48 8b 74 24 48       	mov    0x48(%rsp),%rsi
    2072:	48 8b 7c 24 38       	mov    0x38(%rsp),%rdi
    2077:	ff 05 97 08 01 00    	incl   0x10897(%rip)        # 12914 <n>
    207d:	4c 8b 74 24 20       	mov    0x20(%rsp),%r14
    2082:	e8 39 7a 00 00       	callq  9ac0 <timing_delta>
    2087:	c5 fb 58 54 24 28    	vaddsd 0x28(%rsp),%xmm0,%xmm2
    208d:	c5 fb 11 54 24 28    	vmovsd %xmm2,0x28(%rsp)
    2093:	e9 1e fd ff ff       	jmpq   1db6 <main+0x8f6>
    2098:	4c 8b 84 24 a8 00 00 	mov    0xa8(%rsp),%r8
    209f:	00 
    20a0:	48 8b 0c 24          	mov    (%rsp),%rcx
    20a4:	4c 01 c0             	add    %r8,%rax
    20a7:	48 39 c2             	cmp    %rax,%rdx
    20aa:	be 01 00 00 00       	mov    $0x1,%esi
    20af:	4c 89 c2             	mov    %r8,%rdx
    20b2:	7d 2d                	jge    20e1 <main+0xc21>
    20b4:	48 8b 5c 24 40       	mov    0x40(%rsp),%rbx
    20b9:	48 89 df             	mov    %rbx,%rdi
    20bc:	e8 af 08 00 00       	callq  2970 <jfread>
    20c1:	48 98                	cltq   
    20c3:	48 8b 94 24 a8 00 00 	mov    0xa8(%rsp),%rdx
    20ca:	00 
    20cb:	48 89 d9             	mov    %rbx,%rcx
    20ce:	eb 07                	jmp    20d7 <main+0xc17>
    20d0:	c6 04 01 30          	movb   $0x30,(%rcx,%rax,1)
    20d4:	48 ff c0             	inc    %rax
    20d7:	48 39 c2             	cmp    %rax,%rdx
    20da:	7f f4                	jg     20d0 <main+0xc10>
    20dc:	e9 03 fd ff ff       	jmpq   1de4 <main+0x924>
    20e1:	48 8b 7c 24 40       	mov    0x40(%rsp),%rdi
    20e6:	e8 85 08 00 00       	callq  2970 <jfread>
    20eb:	01 44 24 64          	add    %eax,0x64(%rsp)
    20ef:	e9 f0 fc ff ff       	jmpq   1de4 <main+0x924>
    20f4:	48 8b 94 24 a8 00 00 	mov    0xa8(%rsp),%rdx
    20fb:	00 
    20fc:	48 8b 4c 24 40       	mov    0x40(%rsp),%rcx
    2101:	31 c0                	xor    %eax,%eax
    2103:	eb 07                	jmp    210c <main+0xc4c>
    2105:	c6 04 01 30          	movb   $0x30,(%rcx,%rax,1)
    2109:	48 ff c0             	inc    %rax
    210c:	48 39 d0             	cmp    %rdx,%rax
    210f:	7c f4                	jl     2105 <main+0xc45>
    2111:	e9 ce fc ff ff       	jmpq   1de4 <main+0x924>
    2116:	48 83 3c 24 00       	cmpq   $0x0,(%rsp)
    211b:	48 8b 9c 24 80 00 00 	mov    0x80(%rsp),%rbx
    2122:	00 
    2123:	48 8b ac 24 88 00 00 	mov    0x88(%rsp),%rbp
    212a:	00 
    212b:	0f 84 04 01 00 00    	je     2235 <main+0xd75>
    2131:	4c 8b 4c 24 70       	mov    0x70(%rsp),%r9
    2136:	4c 8b 44 24 78       	mov    0x78(%rsp),%r8
    213b:	48 8d 0d a8 80 00 00 	lea    0x80a8(%rip),%rcx        # a1ea <_IO_stdin_used+0x1ea>
    2142:	48 83 ca ff          	or     $0xffffffffffffffff,%rdx
    2146:	be 01 00 00 00       	mov    $0x1,%esi
    214b:	4c 89 ef             	mov    %r13,%rdi
    214e:	31 c0                	xor    %eax,%eax
    2150:	e8 5b f3 ff ff       	callq  14b0 <__sprintf_chk@plt>
    2155:	48 8d 35 73 80 00 00 	lea    0x8073(%rip),%rsi        # a1cf <_IO_stdin_used+0x1cf>
    215c:	4c 89 ef             	mov    %r13,%rdi
    215f:	e8 dc f2 ff ff       	callq  1440 <fopen@plt>
  return __fprintf_chk (__stream, __USE_FORTIFY_LEVEL - 1, __fmt,
    2164:	48 8b 4b 08          	mov    0x8(%rbx),%rcx
    2168:	49 89 c4             	mov    %rax,%r12
    216b:	48 89 c7             	mov    %rax,%rdi
    216e:	48 8d 15 90 7e 00 00 	lea    0x7e90(%rip),%rdx        # a005 <_IO_stdin_used+0x5>
    2175:	be 01 00 00 00       	mov    $0x1,%esi
    217a:	31 c0                	xor    %eax,%eax
    217c:	e8 ff f2 ff ff       	callq  1480 <__fprintf_chk@plt>
    2181:	48 8b 8c 24 a0 00 00 	mov    0xa0(%rsp),%rcx
    2188:	00 
    2189:	48 8d 15 7c 80 00 00 	lea    0x807c(%rip),%rdx        # a20c <_IO_stdin_used+0x20c>
    2190:	be 01 00 00 00       	mov    $0x1,%esi
    2195:	4c 89 e7             	mov    %r12,%rdi
    2198:	31 c0                	xor    %eax,%eax
    219a:	e8 e1 f2 ff ff       	callq  1480 <__fprintf_chk@plt>
    219f:	ff b4 24 a8 00 00 00 	pushq  0xa8(%rsp)
    21a6:	48 8d 15 53 80 00 00 	lea    0x8053(%rip),%rdx        # a200 <_IO_stdin_used+0x200>
    21ad:	be 01 00 00 00       	mov    $0x1,%esi
    21b2:	8b 84 24 a4 00 00 00 	mov    0xa4(%rsp),%eax
    21b9:	4c 89 e7             	mov    %r12,%rdi
    21bc:	50                   	push   %rax
    21bd:	31 c0                	xor    %eax,%eax
    21bf:	44 8b 8c 24 a8 00 00 	mov    0xa8(%rsp),%r9d
    21c6:	00 
    21c7:	44 8b 84 24 a4 00 00 	mov    0xa4(%rsp),%r8d
    21ce:	00 
    21cf:	8b 8c 24 a0 00 00 00 	mov    0xa0(%rsp),%ecx
    21d6:	e8 a5 f2 ff ff       	callq  1480 <__fprintf_chk@plt>
    21db:	48 8b 4b 20          	mov    0x20(%rbx),%rcx
    21df:	48 8d 15 1f 7e 00 00 	lea    0x7e1f(%rip),%rdx        # a005 <_IO_stdin_used+0x5>
    21e6:	be 01 00 00 00       	mov    $0x1,%esi
    21eb:	4c 89 e7             	mov    %r12,%rdi
    21ee:	31 c0                	xor    %eax,%eax
    21f0:	e8 8b f2 ff ff       	callq  1480 <__fprintf_chk@plt>
    21f5:	8b 4c 24 70          	mov    0x70(%rsp),%ecx
    21f9:	48 8d 15 1a 7e 00 00 	lea    0x7e1a(%rip),%rdx        # a01a <_IO_stdin_used+0x1a>
    2200:	be 01 00 00 00       	mov    $0x1,%esi
    2205:	4c 89 e7             	mov    %r12,%rdi
    2208:	31 c0                	xor    %eax,%eax
    220a:	e8 71 f2 ff ff       	callq  1480 <__fprintf_chk@plt>
    220f:	8b 0d fb 06 01 00    	mov    0x106fb(%rip),%ecx        # 12910 <readins>
    2215:	48 8d 15 fe 7d 00 00 	lea    0x7dfe(%rip),%rdx        # a01a <_IO_stdin_used+0x1a>
    221c:	be 01 00 00 00       	mov    $0x1,%esi
    2221:	4c 89 e7             	mov    %r12,%rdi
    2224:	31 c0                	xor    %eax,%eax
    2226:	e8 55 f2 ff ff       	callq  1480 <__fprintf_chk@plt>
    222b:	4c 89 e7             	mov    %r12,%rdi
    222e:	e8 bd f0 ff ff       	callq  12f0 <fclose@plt>
    2233:	58                   	pop    %rax
    2234:	5a                   	pop    %rdx
    2235:	48 8b 7c 24 70       	mov    0x70(%rsp),%rdi
    223a:	4c 8d a4 24 d0 00 00 	lea    0xd0(%rsp),%r12
    2241:	00 
    2242:	e8 39 f0 ff ff       	callq  1280 <free@plt>
    2247:	4c 89 ef             	mov    %r13,%rdi
    224a:	e8 31 f0 ff ff       	callq  1280 <free@plt>
    224f:	48 8b 7c 24 40       	mov    0x40(%rsp),%rdi
    2254:	e8 27 f0 ff ff       	callq  1280 <free@plt>
    2259:	48 8b 7c 24 78       	mov    0x78(%rsp),%rdi
    225e:	e8 1d f0 ff ff       	callq  1280 <free@plt>
    2263:	31 ff                	xor    %edi,%edi
    2265:	4c 89 e6             	mov    %r12,%rsi
    2268:	e8 73 f0 ff ff       	callq  12e0 <clock_gettime@plt>
    226d:	4c 89 e6             	mov    %r12,%rsi
    2270:	48 89 ef             	mov    %rbp,%rdi
    2273:	e8 48 78 00 00       	callq  9ac0 <timing_delta>
    2278:	c5 d9 57 e4          	vxorpd %xmm4,%xmm4,%xmm4
    227c:	c5 fb 11 04 24       	vmovsd %xmm0,(%rsp)
    2281:	c4 e1 db 2a 84 24 a0 	vcvtsi2sdq 0xa0(%rsp),%xmm4,%xmm0
    2288:	00 00 00 
    228b:	c5 fb 10 0d 55 84 00 	vmovsd 0x8455(%rip),%xmm1        # a6e8 <__PRETTY_FUNCTION__.5741+0xf>
    2292:	00 
}

__fortify_function int
printf (const char *__restrict __fmt, ...)
{
  return __printf_chk (__USE_FORTIFY_LEVEL - 1, __fmt, __va_arg_pack ());
    2293:	48 8d 35 78 7f 00 00 	lea    0x7f78(%rip),%rsi        # a212 <_IO_stdin_used+0x212>
    229a:	bf 01 00 00 00       	mov    $0x1,%edi
    229f:	c5 fb 59 c1          	vmulsd %xmm1,%xmm0,%xmm0
    22a3:	b8 01 00 00 00       	mov    $0x1,%eax
    22a8:	c5 fb 59 c1          	vmulsd %xmm1,%xmm0,%xmm0
    22ac:	c5 fb 5e 44 24 28    	vdivsd 0x28(%rsp),%xmm0,%xmm0
    22b2:	e8 79 f1 ff ff       	callq  1430 <__printf_chk@plt>
    22b7:	c5 d9 57 e4          	vxorpd %xmm4,%xmm4,%xmm4
    22bb:	c4 e1 db 2a 84 24 a0 	vcvtsi2sdq 0xa0(%rsp),%xmm4,%xmm0
    22c2:	00 00 00 
    22c5:	48 8b 05 1c 84 00 00 	mov    0x841c(%rip),%rax        # a6e8 <__PRETTY_FUNCTION__.5741+0xf>
    22cc:	48 8d 35 5a 7f 00 00 	lea    0x7f5a(%rip),%rsi        # a22d <_IO_stdin_used+0x22d>
    22d3:	c4 e1 f9 6e c8       	vmovq  %rax,%xmm1
    22d8:	c5 fb 59 c1          	vmulsd %xmm1,%xmm0,%xmm0
    22dc:	bf 01 00 00 00       	mov    $0x1,%edi
    22e1:	b8 01 00 00 00       	mov    $0x1,%eax
    22e6:	c5 fb 59 c1          	vmulsd %xmm1,%xmm0,%xmm0
    22ea:	c5 fb 5e 04 24       	vdivsd (%rsp),%xmm0,%xmm0
    22ef:	e8 3c f1 ff ff       	callq  1430 <__printf_chk@plt>
    22f4:	48 8b 84 24 98 01 00 	mov    0x198(%rsp),%rax
    22fb:	00 
    22fc:	64 48 33 04 25 28 00 	xor    %fs:0x28,%rax
    2303:	00 00 
    2305:	0f 85 43 04 00 00    	jne    274e <main+0x128e>
    230b:	48 81 c4 a8 01 00 00 	add    $0x1a8,%rsp
    2312:	5b                   	pop    %rbx
    2313:	5d                   	pop    %rbp
    2314:	41 5c                	pop    %r12
    2316:	41 5d                	pop    %r13
    2318:	41 5e                	pop    %r14
    231a:	31 c0                	xor    %eax,%eax
    231c:	41 5f                	pop    %r15
    231e:	c3                   	retq   
    231f:	8b b4 24 98 00 00 00 	mov    0x98(%rsp),%esi
    2326:	8b bc 24 90 00 00 00 	mov    0x90(%rsp),%edi
    232d:	e8 9e 0e 00 00       	callq  31d0 <blaum_roth_coding_bitmatrix>
    2332:	e9 ee f9 ff ff       	jmpq   1d25 <main+0x865>
    2337:	8b b4 24 98 00 00 00 	mov    0x98(%rsp),%esi
    233e:	8b bc 24 90 00 00 00 	mov    0x90(%rsp),%edi
    2345:	e8 e6 08 00 00       	callq  2c30 <liberation_coding_bitmatrix>
    234a:	e9 d6 f9 ff ff       	jmpq   1d25 <main+0x865>
    234f:	8b 94 24 98 00 00 00 	mov    0x98(%rsp),%edx
    2356:	8b b4 24 94 00 00 00 	mov    0x94(%rsp),%esi
    235d:	8b bc 24 90 00 00 00 	mov    0x90(%rsp),%edi
    2364:	e8 e7 74 00 00       	callq  9850 <cauchy_good_general_coding_matrix>
    2369:	8b 94 24 98 00 00 00 	mov    0x98(%rsp),%edx
    2370:	8b b4 24 94 00 00 00 	mov    0x94(%rsp),%esi
    2377:	8b bc 24 90 00 00 00 	mov    0x90(%rsp),%edi
    237e:	48 89 c1             	mov    %rax,%rcx
    2381:	48 89 44 24 68       	mov    %rax,0x68(%rsp)
    2386:	e8 85 12 00 00       	callq  3610 <jerasure_matrix_to_bitmatrix>
    238b:	8b 94 24 98 00 00 00 	mov    0x98(%rsp),%edx
    2392:	8b b4 24 94 00 00 00 	mov    0x94(%rsp),%esi
    2399:	8b bc 24 90 00 00 00 	mov    0x90(%rsp),%edi
    23a0:	48 89 c1             	mov    %rax,%rcx
    23a3:	e8 a8 3f 00 00       	callq  6350 <jerasure_smart_bitmatrix_to_schedule>
    23a8:	48 89 44 24 58       	mov    %rax,0x58(%rsp)
    23ad:	e9 9e f9 ff ff       	jmpq   1d50 <main+0x890>
    23b2:	48 8b 7c 24 70       	mov    0x70(%rsp),%rdi
    23b7:	4c 89 ea             	mov    %r13,%rdx
    23ba:	4c 89 e6             	mov    %r12,%rsi
    23bd:	e8 fe ef ff ff       	callq  13c0 <memcpy@plt>
    23c2:	e9 cc f6 ff ff       	jmpq   1a93 <main+0x5d3>
    23c7:	8b 84 24 98 00 00 00 	mov    0x98(%rsp),%eax
    23ce:	8d 50 f8             	lea    -0x8(%rax),%edx
    23d1:	83 e2 f7             	and    $0xfffffff7,%edx
    23d4:	74 09                	je     23df <main+0xf1f>
    23d6:	83 f8 20             	cmp    $0x20,%eax
    23d9:	0f 85 16 f9 ff ff    	jne    1cf5 <main+0x835>
    23df:	c7 44 24 60 01 00 00 	movl   $0x1,0x60(%rsp)
    23e6:	00 
    23e7:	e9 e2 f3 ff ff       	jmpq   17ce <main+0x30e>
    23ec:	48 8d 35 04 7d 00 00 	lea    0x7d04(%rip),%rsi        # a0f7 <_IO_stdin_used+0xf7>
    23f3:	4c 89 e7             	mov    %r12,%rdi
    23f6:	e8 95 ef ff ff       	callq  1390 <strcmp@plt>
    23fb:	85 c0                	test   %eax,%eax
    23fd:	0f 85 9c 00 00 00    	jne    249f <main+0xfdf>
    2403:	83 bc 24 9c 00 00 00 	cmpl   $0x0,0x9c(%rsp)
    240a:	00 
    240b:	c7 44 24 60 02 00 00 	movl   $0x2,0x60(%rsp)
    2412:	00 
    2413:	0f 85 b5 f3 ff ff    	jne    17ce <main+0x30e>
  return __fprintf_chk (__stream, __USE_FORTIFY_LEVEL - 1, __fmt,
    2419:	48 8b 0d 20 ed 00 00 	mov    0xed20(%rip),%rcx        # 11140 <stderr@@GLIBC_2.2.5>
    2420:	48 8d 3d dc 7c 00 00 	lea    0x7cdc(%rip),%rdi        # a103 <_IO_stdin_used+0x103>
    2427:	ba 19 00 00 00       	mov    $0x19,%edx
    242c:	be 01 00 00 00       	mov    $0x1,%esi
    2431:	e8 3a f0 ff ff       	callq  1470 <fwrite@plt>
    2436:	31 ff                	xor    %edi,%edi
    2438:	e8 23 f0 ff ff       	callq  1460 <exit@plt>
    243d:	8b 94 24 98 00 00 00 	mov    0x98(%rsp),%edx
    2444:	8b b4 24 94 00 00 00 	mov    0x94(%rsp),%esi
    244b:	8b bc 24 90 00 00 00 	mov    0x90(%rsp),%edi
    2452:	e8 f9 6f 00 00       	callq  9450 <cauchy_original_coding_matrix>
    2457:	e9 0d ff ff ff       	jmpq   2369 <main+0xea9>
    245c:	48 8d 3d c7 7b 00 00 	lea    0x7bc7(%rip),%rdi        # a02a <_IO_stdin_used+0x2a>
    2463:	e8 38 f0 ff ff       	callq  14a0 <strdup@plt>
    2468:	48 89 44 24 08       	mov    %rax,0x8(%rsp)
    246d:	e9 4e f6 ff ff       	jmpq   1ac0 <main+0x600>
    2472:	8b 94 24 98 00 00 00 	mov    0x98(%rsp),%edx
    2479:	8b b4 24 94 00 00 00 	mov    0x94(%rsp),%esi
    2480:	8b bc 24 90 00 00 00 	mov    0x90(%rsp),%edi
    2487:	e8 94 6d 00 00       	callq  9220 <reed_sol_vandermonde_coding_matrix>
    248c:	48 89 44 24 68       	mov    %rax,0x68(%rsp)
    2491:	48 c7 44 24 58 00 00 	movq   $0x0,0x58(%rsp)
    2498:	00 00 
    249a:	e9 b1 f8 ff ff       	jmpq   1d50 <main+0x890>
    249f:	48 8d 35 77 7c 00 00 	lea    0x7c77(%rip),%rsi        # a11d <_IO_stdin_used+0x11d>
    24a6:	4c 89 e7             	mov    %r12,%rdi
    24a9:	e8 e2 ee ff ff       	callq  1390 <strcmp@plt>
    24ae:	85 c0                	test   %eax,%eax
    24b0:	75 32                	jne    24e4 <main+0x1024>
    24b2:	83 bc 24 9c 00 00 00 	cmpl   $0x0,0x9c(%rsp)
    24b9:	00 
    24ba:	0f 84 59 ff ff ff    	je     2419 <main+0xf59>
    24c0:	c7 44 24 60 03 00 00 	movl   $0x3,0x60(%rsp)
    24c7:	00 
    24c8:	e9 01 f3 ff ff       	jmpq   17ce <main+0x30e>
    24cd:	48 c7 44 24 58 00 00 	movq   $0x0,0x58(%rsp)
    24d4:	00 00 
    24d6:	48 c7 44 24 68 00 00 	movq   $0x0,0x68(%rsp)
    24dd:	00 00 
    24df:	e9 6c f8 ff ff       	jmpq   1d50 <main+0x890>
    24e4:	48 8d 35 3e 7c 00 00 	lea    0x7c3e(%rip),%rsi        # a129 <_IO_stdin_used+0x129>
    24eb:	4c 89 e7             	mov    %r12,%rdi
    24ee:	e8 9d ee ff ff       	callq  1390 <strcmp@plt>
    24f3:	85 c0                	test   %eax,%eax
    24f5:	75 67                	jne    255e <main+0x109e>
    24f7:	8b bc 24 98 00 00 00 	mov    0x98(%rsp),%edi
    24fe:	39 bc 24 90 00 00 00 	cmp    %edi,0x90(%rsp)
    2505:	7f 33                	jg     253a <main+0x107a>
    2507:	83 ff 02             	cmp    $0x2,%edi
    250a:	7e 0a                	jle    2516 <main+0x1056>
    250c:	40 f6 c7 01          	test   $0x1,%dil
    2510:	0f 85 f6 00 00 00    	jne    260c <main+0x114c>
    2516:	48 8b 0d 23 ec 00 00 	mov    0xec23(%rip),%rcx        # 11140 <stderr@@GLIBC_2.2.5>
    251d:	48 8d 3d 8c 7f 00 00 	lea    0x7f8c(%rip),%rdi        # a4b0 <_IO_stdin_used+0x4b0>
    2524:	ba 2f 00 00 00       	mov    $0x2f,%edx
    2529:	be 01 00 00 00       	mov    $0x1,%esi
    252e:	e8 3d ef ff ff       	callq  1470 <fwrite@plt>
    2533:	31 ff                	xor    %edi,%edi
    2535:	e8 26 ef ff ff       	callq  1460 <exit@plt>
    253a:	48 8b 0d ff eb 00 00 	mov    0xebff(%rip),%rcx        # 11140 <stderr@@GLIBC_2.2.5>
    2541:	48 8d 3d 40 7f 00 00 	lea    0x7f40(%rip),%rdi        # a488 <_IO_stdin_used+0x488>
    2548:	ba 22 00 00 00       	mov    $0x22,%edx
    254d:	be 01 00 00 00       	mov    $0x1,%esi
    2552:	e8 19 ef ff ff       	callq  1470 <fwrite@plt>
    2557:	31 ff                	xor    %edi,%edi
    2559:	e8 02 ef ff ff       	callq  1460 <exit@plt>
    255e:	48 8d 35 cf 7b 00 00 	lea    0x7bcf(%rip),%rsi        # a134 <_IO_stdin_used+0x134>
    2565:	4c 89 e7             	mov    %r12,%rdi
    2568:	e8 23 ee ff ff       	callq  1390 <strcmp@plt>
    256d:	85 c0                	test   %eax,%eax
    256f:	75 44                	jne    25b5 <main+0x10f5>
    2571:	8b 84 24 98 00 00 00 	mov    0x98(%rsp),%eax
    2578:	39 84 24 90 00 00 00 	cmp    %eax,0x90(%rsp)
    257f:	7f b9                	jg     253a <main+0x107a>
    2581:	83 f8 02             	cmp    $0x2,%eax
    2584:	7e 0b                	jle    2591 <main+0x10d1>
    2586:	8d 78 01             	lea    0x1(%rax),%edi
    2589:	a8 01                	test   $0x1,%al
    258b:	0f 84 cb 00 00 00    	je     265c <main+0x119c>
    2591:	48 8b 0d a8 eb 00 00 	mov    0xeba8(%rip),%rcx        # 11140 <stderr@@GLIBC_2.2.5>
    2598:	48 8d 3d 71 7f 00 00 	lea    0x7f71(%rip),%rdi        # a510 <_IO_stdin_used+0x510>
    259f:	ba 31 00 00 00       	mov    $0x31,%edx
    25a4:	be 01 00 00 00       	mov    $0x1,%esi
    25a9:	e8 c2 ee ff ff       	callq  1470 <fwrite@plt>
    25ae:	31 ff                	xor    %edi,%edi
    25b0:	e8 ab ee ff ff       	callq  1460 <exit@plt>
    25b5:	48 8d 35 83 7b 00 00 	lea    0x7b83(%rip),%rsi        # a13f <_IO_stdin_used+0x13f>
    25bc:	4c 89 e7             	mov    %r12,%rdi
    25bf:	e8 cc ed ff ff       	callq  1390 <strcmp@plt>
    25c4:	85 c0                	test   %eax,%eax
    25c6:	0f 85 0f 01 00 00    	jne    26db <main+0x121b>
    25cc:	83 bc 24 9c 00 00 00 	cmpl   $0x0,0x9c(%rsp)
    25d3:	00 
    25d4:	0f 84 dd 00 00 00    	je     26b7 <main+0x11f7>
    25da:	83 bc 24 98 00 00 00 	cmpl   $0x8,0x98(%rsp)
    25e1:	08 
    25e2:	0f 84 a1 00 00 00    	je     2689 <main+0x11c9>
    25e8:	48 8b 0d 51 eb 00 00 	mov    0xeb51(%rip),%rcx        # 11140 <stderr@@GLIBC_2.2.5>
    25ef:	48 8d 3d 6d 7b 00 00 	lea    0x7b6d(%rip),%rdi        # a163 <_IO_stdin_used+0x163>
    25f6:	ba 0f 00 00 00       	mov    $0xf,%edx
    25fb:	be 01 00 00 00       	mov    $0x1,%esi
    2600:	e8 6b ee ff ff       	callq  1470 <fwrite@plt>
    2605:	31 ff                	xor    %edi,%edi
    2607:	e8 54 ee ff ff       	callq  1460 <exit@plt>
    260c:	e8 bf 03 00 00       	callq  29d0 <is_prime>
    2611:	85 c0                	test   %eax,%eax
    2613:	0f 84 fd fe ff ff    	je     2516 <main+0x1056>
    2619:	8b 84 24 9c 00 00 00 	mov    0x9c(%rsp),%eax
    2620:	85 c0                	test   %eax,%eax
    2622:	0f 84 f1 fd ff ff    	je     2419 <main+0xf59>
    2628:	c7 44 24 60 04 00 00 	movl   $0x4,0x60(%rsp)
    262f:	00 
    2630:	a8 07                	test   $0x7,%al
    2632:	0f 84 96 f1 ff ff    	je     17ce <main+0x30e>
    2638:	48 8b 0d 01 eb 00 00 	mov    0xeb01(%rip),%rcx        # 11140 <stderr@@GLIBC_2.2.5>
    263f:	48 8d 3d 9a 7e 00 00 	lea    0x7e9a(%rip),%rdi        # a4e0 <_IO_stdin_used+0x4e0>
    2646:	ba 2e 00 00 00       	mov    $0x2e,%edx
    264b:	be 01 00 00 00       	mov    $0x1,%esi
    2650:	e8 1b ee ff ff       	callq  1470 <fwrite@plt>
    2655:	31 ff                	xor    %edi,%edi
    2657:	e8 04 ee ff ff       	callq  1460 <exit@plt>
    265c:	e8 6f 03 00 00       	callq  29d0 <is_prime>
    2661:	85 c0                	test   %eax,%eax
    2663:	0f 84 28 ff ff ff    	je     2591 <main+0x10d1>
    2669:	8b 84 24 9c 00 00 00 	mov    0x9c(%rsp),%eax
    2670:	85 c0                	test   %eax,%eax
    2672:	0f 84 a1 fd ff ff    	je     2419 <main+0xf59>
    2678:	a8 07                	test   $0x7,%al
    267a:	75 bc                	jne    2638 <main+0x1178>
    267c:	c7 44 24 60 05 00 00 	movl   $0x5,0x60(%rsp)
    2683:	00 
    2684:	e9 45 f1 ff ff       	jmpq   17ce <main+0x30e>
    2689:	83 bc 24 94 00 00 00 	cmpl   $0x2,0x94(%rsp)
    2690:	02 
    2691:	74 6c                	je     26ff <main+0x123f>
    2693:	48 8b 0d a6 ea 00 00 	mov    0xeaa6(%rip),%rcx        # 11140 <stderr@@GLIBC_2.2.5>
    269a:	48 8d 3d d2 7a 00 00 	lea    0x7ad2(%rip),%rdi        # a173 <_IO_stdin_used+0x173>
    26a1:	ba 0f 00 00 00       	mov    $0xf,%edx
    26a6:	be 01 00 00 00       	mov    $0x1,%esi
    26ab:	e8 c0 ed ff ff       	callq  1470 <fwrite@plt>
    26b0:	31 ff                	xor    %edi,%edi
    26b2:	e8 a9 ed ff ff       	callq  1460 <exit@plt>
    26b7:	48 8b 0d 82 ea 00 00 	mov    0xea82(%rip),%rcx        # 11140 <stderr@@GLIBC_2.2.5>
    26be:	48 8d 3d 85 7a 00 00 	lea    0x7a85(%rip),%rdi        # a14a <_IO_stdin_used+0x14a>
    26c5:	ba 18 00 00 00       	mov    $0x18,%edx
    26ca:	be 01 00 00 00       	mov    $0x1,%esi
    26cf:	e8 9c ed ff ff       	callq  1470 <fwrite@plt>
    26d4:	31 ff                	xor    %edi,%edi
    26d6:	e8 85 ed ff ff       	callq  1460 <exit@plt>
    26db:	48 8b 0d 5e ea 00 00 	mov    0xea5e(%rip),%rcx        # 11140 <stderr@@GLIBC_2.2.5>
    26e2:	48 8d 3d 5f 7e 00 00 	lea    0x7e5f(%rip),%rdi        # a548 <_IO_stdin_used+0x548>
    26e9:	ba a1 00 00 00       	mov    $0xa1,%edx
    26ee:	be 01 00 00 00       	mov    $0x1,%esi
    26f3:	e8 78 ed ff ff       	callq  1470 <fwrite@plt>
    26f8:	31 ff                	xor    %edi,%edi
    26fa:	e8 61 ed ff ff       	callq  1460 <exit@plt>
    26ff:	83 bc 24 90 00 00 00 	cmpl   $0x8,0x90(%rsp)
    2706:	08 
    2707:	0f 8f 2d fe ff ff    	jg     253a <main+0x107a>
    270d:	c7 44 24 60 06 00 00 	movl   $0x6,0x60(%rsp)
    2714:	00 
    2715:	e9 b4 f0 ff ff       	jmpq   17ce <main+0x30e>
    271a:	48 89 bc 24 a8 00 00 	mov    %rdi,0xa8(%rsp)
    2721:	00 
    2722:	e9 55 f0 ff ff       	jmpq   177c <main+0x2bc>
    2727:	48 8b 0d 12 ea 00 00 	mov    0xea12(%rip),%rcx        # 11140 <stderr@@GLIBC_2.2.5>
    272e:	48 8d 3d 0b 7f 00 00 	lea    0x7f0b(%rip),%rdi        # a640 <_IO_stdin_used+0x640>
    2735:	ba 43 00 00 00       	mov    $0x43,%edx
    273a:	be 01 00 00 00       	mov    $0x1,%esi
    273f:	e8 2c ed ff ff       	callq  1470 <fwrite@plt>
    2744:	bf 01 00 00 00       	mov    $0x1,%edi
    2749:	e8 12 ed ff ff       	callq  1460 <exit@plt>
    274e:	e8 bd eb ff ff       	callq  1310 <__stack_chk_fail@plt>
    2753:	48 8d 0d 7f 7f 00 00 	lea    0x7f7f(%rip),%rcx        # a6d9 <__PRETTY_FUNCTION__.5741>
    275a:	ba 4d 01 00 00       	mov    $0x14d,%edx
    275f:	48 8d 35 c5 78 00 00 	lea    0x78c5(%rip),%rsi        # a02b <_IO_stdin_used+0x2b>
    2766:	48 8d 3d 83 7e 00 00 	lea    0x7e83(%rip),%rdi        # a5f0 <_IO_stdin_used+0x5f0>
    276d:	e8 ce eb ff ff       	callq  1340 <__assert_fail@plt>
    2772:	66 2e 0f 1f 84 00 00 	nopw   %cs:0x0(%rax,%rax,1)
    2779:	00 00 00 
    277c:	0f 1f 40 00          	nopl   0x0(%rax)

0000000000002780 <_start>:
    2780:	f3 0f 1e fa          	endbr64 
    2784:	31 ed                	xor    %ebp,%ebp
    2786:	49 89 d1             	mov    %rdx,%r9
    2789:	5e                   	pop    %rsi
    278a:	48 89 e2             	mov    %rsp,%rdx
    278d:	48 83 e4 f0          	and    $0xfffffffffffffff0,%rsp
    2791:	50                   	push   %rax
    2792:	54                   	push   %rsp
    2793:	4c 8d 05 a6 74 00 00 	lea    0x74a6(%rip),%r8        # 9c40 <__libc_csu_fini>
    279a:	48 8d 0d 2f 74 00 00 	lea    0x742f(%rip),%rcx        # 9bd0 <__libc_csu_init>
    27a1:	48 8d 3d 18 ed ff ff 	lea    -0x12e8(%rip),%rdi        # 14c0 <main>
    27a8:	ff 15 32 b8 00 00    	callq  *0xb832(%rip)        # dfe0 <__libc_start_main@GLIBC_2.2.5>
    27ae:	f4                   	hlt    
    27af:	90                   	nop

00000000000027b0 <deregister_tm_clones>:
    27b0:	48 8d 3d 71 e9 00 00 	lea    0xe971(%rip),%rdi        # 11128 <__TMC_END__>
    27b7:	48 8d 05 6a e9 00 00 	lea    0xe96a(%rip),%rax        # 11128 <__TMC_END__>
    27be:	48 39 f8             	cmp    %rdi,%rax
    27c1:	74 15                	je     27d8 <deregister_tm_clones+0x28>
    27c3:	48 8b 05 0e b8 00 00 	mov    0xb80e(%rip),%rax        # dfd8 <_ITM_deregisterTMCloneTable>
    27ca:	48 85 c0             	test   %rax,%rax
    27cd:	74 09                	je     27d8 <deregister_tm_clones+0x28>
    27cf:	ff e0                	jmpq   *%rax
    27d1:	0f 1f 80 00 00 00 00 	nopl   0x0(%rax)
    27d8:	c3                   	retq   
    27d9:	0f 1f 80 00 00 00 00 	nopl   0x0(%rax)

00000000000027e0 <register_tm_clones>:
    27e0:	48 8d 3d 41 e9 00 00 	lea    0xe941(%rip),%rdi        # 11128 <__TMC_END__>
    27e7:	48 8d 35 3a e9 00 00 	lea    0xe93a(%rip),%rsi        # 11128 <__TMC_END__>
    27ee:	48 29 fe             	sub    %rdi,%rsi
    27f1:	48 89 f0             	mov    %rsi,%rax
    27f4:	48 c1 ee 3f          	shr    $0x3f,%rsi
    27f8:	48 c1 f8 03          	sar    $0x3,%rax
    27fc:	48 01 c6             	add    %rax,%rsi
    27ff:	48 d1 fe             	sar    %rsi
    2802:	74 14                	je     2818 <register_tm_clones+0x38>
    2804:	48 8b 05 e5 b7 00 00 	mov    0xb7e5(%rip),%rax        # dff0 <_ITM_registerTMCloneTable>
    280b:	48 85 c0             	test   %rax,%rax
    280e:	74 08                	je     2818 <register_tm_clones+0x38>
    2810:	ff e0                	jmpq   *%rax
    2812:	66 0f 1f 44 00 00    	nopw   0x0(%rax,%rax,1)
    2818:	c3                   	retq   
    2819:	0f 1f 80 00 00 00 00 	nopl   0x0(%rax)

0000000000002820 <__do_global_dtors_aux>:
    2820:	f3 0f 1e fa          	endbr64 
    2824:	80 3d 1d e9 00 00 00 	cmpb   $0x0,0xe91d(%rip)        # 11148 <completed.8060>
    282b:	75 2b                	jne    2858 <__do_global_dtors_aux+0x38>
    282d:	55                   	push   %rbp
    282e:	48 83 3d c2 b7 00 00 	cmpq   $0x0,0xb7c2(%rip)        # dff8 <__cxa_finalize@GLIBC_2.2.5>
    2835:	00 
    2836:	48 89 e5             	mov    %rsp,%rbp
    2839:	74 0c                	je     2847 <__do_global_dtors_aux+0x27>
    283b:	48 8b 3d c6 b7 00 00 	mov    0xb7c6(%rip),%rdi        # e008 <__dso_handle>
    2842:	e8 29 ea ff ff       	callq  1270 <__cxa_finalize@plt>
    2847:	e8 64 ff ff ff       	callq  27b0 <deregister_tm_clones>
    284c:	c6 05 f5 e8 00 00 01 	movb   $0x1,0xe8f5(%rip)        # 11148 <completed.8060>
    2853:	5d                   	pop    %rbp
    2854:	c3                   	retq   
    2855:	0f 1f 00             	nopl   (%rax)
    2858:	c3                   	retq   
    2859:	0f 1f 80 00 00 00 00 	nopl   0x0(%rax)

0000000000002860 <frame_dummy>:
    2860:	f3 0f 1e fa          	endbr64 
    2864:	e9 77 ff ff ff       	jmpq   27e0 <register_tm_clones>
    2869:	0f 1f 80 00 00 00 00 	nopl   0x0(%rax)

0000000000002870 <ctrl_bs_handler>:
    2870:	f3 0f 1e fa          	endbr64 
    2874:	48 83 ec 18          	sub    $0x18,%rsp
    2878:	31 ff                	xor    %edi,%edi
    287a:	64 48 8b 04 25 28 00 	mov    %fs:0x28,%rax
    2881:	00 00 
    2883:	48 89 44 24 08       	mov    %rax,0x8(%rsp)
    2888:	31 c0                	xor    %eax,%eax
    288a:	e8 41 eb ff ff       	callq  13d0 <time@plt>
    288f:	48 89 e7             	mov    %rsp,%rdi
    2892:	48 89 04 24          	mov    %rax,(%rsp)
    2896:	e8 65 ea ff ff       	callq  1300 <ctime@plt>
    289b:	48 8b 3d 9e e8 00 00 	mov    0xe89e(%rip),%rdi        # 11140 <stderr@@GLIBC_2.2.5>
    28a2:	48 89 c1             	mov    %rax,%rcx
    28a5:	48 8d 15 58 77 00 00 	lea    0x7758(%rip),%rdx        # a004 <_IO_stdin_used+0x4>
    28ac:	be 01 00 00 00       	mov    $0x1,%esi
    28b1:	31 c0                	xor    %eax,%eax
    28b3:	e8 c8 eb ff ff       	callq  1480 <__fprintf_chk@plt>
    28b8:	48 8b 0d 81 e8 00 00 	mov    0xe881(%rip),%rcx        # 11140 <stderr@@GLIBC_2.2.5>
    28bf:	ba 24 00 00 00       	mov    $0x24,%edx
    28c4:	be 01 00 00 00       	mov    $0x1,%esi
    28c9:	48 8d 3d 88 79 00 00 	lea    0x7988(%rip),%rdi        # a258 <_IO_stdin_used+0x258>
    28d0:	e8 9b eb ff ff       	callq  1470 <fwrite@plt>
    28d5:	8b 0d 35 00 01 00    	mov    0x10035(%rip),%ecx        # 12910 <readins>
    28db:	48 8b 3d 5e e8 00 00 	mov    0xe85e(%rip),%rdi        # 11140 <stderr@@GLIBC_2.2.5>
    28e2:	48 8d 15 97 79 00 00 	lea    0x7997(%rip),%rdx        # a280 <_IO_stdin_used+0x280>
    28e9:	be 01 00 00 00       	mov    $0x1,%esi
    28ee:	31 c0                	xor    %eax,%eax
    28f0:	e8 8b eb ff ff       	callq  1480 <__fprintf_chk@plt>
    28f5:	8b 0d 19 00 01 00    	mov    0x10019(%rip),%ecx        # 12914 <n>
    28fb:	48 8b 3d 3e e8 00 00 	mov    0xe83e(%rip),%rdi        # 11140 <stderr@@GLIBC_2.2.5>
    2902:	48 8d 15 00 77 00 00 	lea    0x7700(%rip),%rdx        # a009 <_IO_stdin_used+0x9>
    2909:	be 01 00 00 00       	mov    $0x1,%esi
    290e:	31 c0                	xor    %eax,%eax
    2910:	e8 6b eb ff ff       	callq  1480 <__fprintf_chk@plt>
    2915:	8b 15 fd ff 00 00    	mov    0xfffd(%rip),%edx        # 12918 <method>
    291b:	48 8d 05 fe b6 00 00 	lea    0xb6fe(%rip),%rax        # e020 <Methods>
    2922:	48 8b 0c d0          	mov    (%rax,%rdx,8),%rcx
    2926:	48 8b 3d 13 e8 00 00 	mov    0xe813(%rip),%rdi        # 11140 <stderr@@GLIBC_2.2.5>
    292d:	48 8d 15 ea 76 00 00 	lea    0x76ea(%rip),%rdx        # a01e <_IO_stdin_used+0x1e>
    2934:	be 01 00 00 00       	mov    $0x1,%esi
    2939:	31 c0                	xor    %eax,%eax
    293b:	e8 40 eb ff ff       	callq  1480 <__fprintf_chk@plt>
    2940:	48 8d 35 29 ff ff ff 	lea    -0xd7(%rip),%rsi        # 2870 <ctrl_bs_handler>
    2947:	bf 03 00 00 00       	mov    $0x3,%edi
    294c:	e8 4f ea ff ff       	callq  13a0 <signal@plt>
    2951:	48 8b 44 24 08       	mov    0x8(%rsp),%rax
    2956:	64 48 33 04 25 28 00 	xor    %fs:0x28,%rax
    295d:	00 00 
    295f:	75 05                	jne    2966 <ctrl_bs_handler+0xf6>
    2961:	48 83 c4 18          	add    $0x18,%rsp
    2965:	c3                   	retq   
    2966:	e8 a5 e9 ff ff       	callq  1310 <__stack_chk_fail@plt>
    296b:	0f 1f 44 00 00       	nopl   0x0(%rax,%rax,1)

0000000000002970 <jfread>:
    2970:	f3 0f 1e fa          	endbr64 
    2974:	41 54                	push   %r12
    2976:	48 63 f6             	movslq %esi,%rsi
    2979:	55                   	push   %rbp
    297a:	53                   	push   %rbx
    297b:	48 85 c9             	test   %rcx,%rcx
    297e:	74 10                	je     2990 <jfread+0x20>
	return __fread_chk (__ptr, __bos0 (__ptr), __size, __n, __stream);

      if (__size * __n > __bos0 (__ptr))
	return __fread_chk_warn (__ptr, __bos0 (__ptr), __size, __n, __stream);
    }
  return __fread_alias (__ptr, __size, __n, __stream);
    2980:	e8 4b e9 ff ff       	callq  12d0 <fread@plt>
    2985:	5b                   	pop    %rbx
    2986:	5d                   	pop    %rbp
    2987:	41 5c                	pop    %r12
    2989:	c3                   	retq   
    298a:	66 0f 1f 44 00 00    	nopw   0x0(%rax,%rax,1)
    2990:	48 89 f5             	mov    %rsi,%rbp
    2993:	48 c1 ee 02          	shr    $0x2,%rsi
    2997:	85 f6                	test   %esi,%esi
    2999:	7e 25                	jle    29c0 <jfread+0x50>
    299b:	8d 46 ff             	lea    -0x1(%rsi),%eax
    299e:	48 89 fb             	mov    %rdi,%rbx
    29a1:	4c 8d 64 87 04       	lea    0x4(%rdi,%rax,4),%r12
    29a6:	66 2e 0f 1f 84 00 00 	nopw   %cs:0x0(%rax,%rax,1)
    29ad:	00 00 00 
    29b0:	e8 bb e9 ff ff       	callq  1370 <mrand48@plt>
    29b5:	89 03                	mov    %eax,(%rbx)
    29b7:	48 83 c3 04          	add    $0x4,%rbx
    29bb:	49 39 dc             	cmp    %rbx,%r12
    29be:	75 f0                	jne    29b0 <jfread+0x40>
    29c0:	5b                   	pop    %rbx
    29c1:	89 e8                	mov    %ebp,%eax
    29c3:	5d                   	pop    %rbp
    29c4:	41 5c                	pop    %r12
    29c6:	c3                   	retq   
    29c7:	66 0f 1f 84 00 00 00 	nopw   0x0(%rax,%rax,1)
    29ce:	00 00 

00000000000029d0 <is_prime>:
    29d0:	f3 0f 1e fa          	endbr64 
    29d4:	48 81 ec f8 00 00 00 	sub    $0xf8,%rsp
    29db:	64 48 8b 04 25 28 00 	mov    %fs:0x28,%rax
    29e2:	00 00 
    29e4:	48 89 84 24 e8 00 00 	mov    %rax,0xe8(%rsp)
    29eb:	00 
    29ec:	31 c0                	xor    %eax,%eax
    29ee:	48 b8 03 00 00 00 05 	movabs $0x500000003,%rax
    29f5:	00 00 00 
    29f8:	48 89 44 24 04       	mov    %rax,0x4(%rsp)
    29fd:	48 b8 07 00 00 00 0b 	movabs $0xb00000007,%rax
    2a04:	00 00 00 
    2a07:	48 89 44 24 0c       	mov    %rax,0xc(%rsp)
    2a0c:	48 b8 0d 00 00 00 11 	movabs $0x110000000d,%rax
    2a13:	00 00 00 
    2a16:	48 89 44 24 14       	mov    %rax,0x14(%rsp)
    2a1b:	48 b8 13 00 00 00 17 	movabs $0x1700000013,%rax
    2a22:	00 00 00 
    2a25:	48 89 44 24 1c       	mov    %rax,0x1c(%rsp)
    2a2a:	48 b8 1d 00 00 00 1f 	movabs $0x1f0000001d,%rax
    2a31:	00 00 00 
    2a34:	48 89 44 24 24       	mov    %rax,0x24(%rsp)
    2a39:	48 b8 25 00 00 00 29 	movabs $0x2900000025,%rax
    2a40:	00 00 00 
    2a43:	48 89 44 24 2c       	mov    %rax,0x2c(%rsp)
    2a48:	48 b8 2b 00 00 00 2f 	movabs $0x2f0000002b,%rax
    2a4f:	00 00 00 
    2a52:	48 89 44 24 34       	mov    %rax,0x34(%rsp)
    2a57:	48 b8 35 00 00 00 3b 	movabs $0x3b00000035,%rax
    2a5e:	00 00 00 
    2a61:	48 89 44 24 3c       	mov    %rax,0x3c(%rsp)
    2a66:	48 b8 3d 00 00 00 43 	movabs $0x430000003d,%rax
    2a6d:	00 00 00 
    2a70:	48 89 44 24 44       	mov    %rax,0x44(%rsp)
    2a75:	48 b8 47 00 00 00 49 	movabs $0x4900000047,%rax
    2a7c:	00 00 00 
    2a7f:	48 89 44 24 4c       	mov    %rax,0x4c(%rsp)
    2a84:	48 b8 4f 00 00 00 53 	movabs $0x530000004f,%rax
    2a8b:	00 00 00 
    2a8e:	48 89 44 24 54       	mov    %rax,0x54(%rsp)
    2a93:	48 b8 59 00 00 00 61 	movabs $0x6100000059,%rax
    2a9a:	00 00 00 
    2a9d:	48 89 44 24 5c       	mov    %rax,0x5c(%rsp)
    2aa2:	48 b8 65 00 00 00 67 	movabs $0x6700000065,%rax
    2aa9:	00 00 00 
    2aac:	48 89 44 24 64       	mov    %rax,0x64(%rsp)
    2ab1:	48 b8 6b 00 00 00 6d 	movabs $0x6d0000006b,%rax
    2ab8:	00 00 00 
    2abb:	48 89 44 24 6c       	mov    %rax,0x6c(%rsp)
    2ac0:	48 b8 71 00 00 00 7f 	movabs $0x7f00000071,%rax
    2ac7:	00 00 00 
    2aca:	48 89 44 24 74       	mov    %rax,0x74(%rsp)
    2acf:	48 b8 83 00 00 00 89 	movabs $0x8900000083,%rax
    2ad6:	00 00 00 
    2ad9:	48 89 44 24 7c       	mov    %rax,0x7c(%rsp)
    2ade:	48 b8 8b 00 00 00 95 	movabs $0x950000008b,%rax
    2ae5:	00 00 00 
    2ae8:	48 89 84 24 84 00 00 	mov    %rax,0x84(%rsp)
    2aef:	00 
    2af0:	48 b8 97 00 00 00 9d 	movabs $0x9d00000097,%rax
    2af7:	00 00 00 
    2afa:	48 89 84 24 8c 00 00 	mov    %rax,0x8c(%rsp)
    2b01:	00 
    2b02:	48 b8 a3 00 00 00 a7 	movabs $0xa7000000a3,%rax
    2b09:	00 00 00 
    2b0c:	48 89 84 24 94 00 00 	mov    %rax,0x94(%rsp)
    2b13:	00 
    2b14:	48 b8 ad 00 00 00 b3 	movabs $0xb3000000ad,%rax
    2b1b:	00 00 00 
    2b1e:	48 89 84 24 9c 00 00 	mov    %rax,0x9c(%rsp)
    2b25:	00 
    2b26:	48 b8 b5 00 00 00 bf 	movabs $0xbf000000b5,%rax
    2b2d:	00 00 00 
    2b30:	48 89 84 24 a4 00 00 	mov    %rax,0xa4(%rsp)
    2b37:	00 
    2b38:	48 b8 c1 00 00 00 c5 	movabs $0xc5000000c1,%rax
    2b3f:	00 00 00 
    2b42:	48 89 84 24 ac 00 00 	mov    %rax,0xac(%rsp)
    2b49:	00 
    2b4a:	48 b8 c7 00 00 00 d3 	movabs $0xd3000000c7,%rax
    2b51:	00 00 00 
    2b54:	48 89 84 24 b4 00 00 	mov    %rax,0xb4(%rsp)
    2b5b:	00 
    2b5c:	48 b8 df 00 00 00 e3 	movabs $0xe3000000df,%rax
    2b63:	00 00 00 
    2b66:	48 89 84 24 bc 00 00 	mov    %rax,0xbc(%rsp)
    2b6d:	00 
    2b6e:	48 b8 e5 00 00 00 e9 	movabs $0xe9000000e5,%rax
    2b75:	00 00 00 
    2b78:	48 89 84 24 c4 00 00 	mov    %rax,0xc4(%rsp)
    2b7f:	00 
    2b80:	48 b8 ef 00 00 00 f1 	movabs $0xf1000000ef,%rax
    2b87:	00 00 00 
    2b8a:	48 89 84 24 cc 00 00 	mov    %rax,0xcc(%rsp)
    2b91:	00 
    2b92:	48 b8 fb 00 00 00 01 	movabs $0x101000000fb,%rax
    2b99:	01 00 00 
    2b9c:	48 89 84 24 d4 00 00 	mov    %rax,0xd4(%rsp)
    2ba3:	00 
    2ba4:	48 8d 4c 24 04       	lea    0x4(%rsp),%rcx
    2ba9:	4c 8d 84 24 dc 00 00 	lea    0xdc(%rsp),%r8
    2bb0:	00 
    2bb1:	be 02 00 00 00       	mov    $0x2,%esi
    2bb6:	eb 13                	jmp    2bcb <is_prime+0x1fb>
    2bb8:	0f 1f 84 00 00 00 00 	nopl   0x0(%rax,%rax,1)
    2bbf:	00 
    2bc0:	4c 39 c1             	cmp    %r8,%rcx
    2bc3:	74 3b                	je     2c00 <is_prime+0x230>
    2bc5:	8b 31                	mov    (%rcx),%esi
    2bc7:	48 83 c1 04          	add    $0x4,%rcx
    2bcb:	89 f8                	mov    %edi,%eax
    2bcd:	99                   	cltd   
    2bce:	f7 fe                	idiv   %esi
    2bd0:	85 d2                	test   %edx,%edx
    2bd2:	75 ec                	jne    2bc0 <is_prime+0x1f0>
    2bd4:	39 f7                	cmp    %esi,%edi
    2bd6:	0f 94 c0             	sete   %al
    2bd9:	48 8b bc 24 e8 00 00 	mov    0xe8(%rsp),%rdi
    2be0:	00 
    2be1:	64 48 33 3c 25 28 00 	xor    %fs:0x28,%rdi
    2be8:	00 00 
    2bea:	75 33                	jne    2c1f <is_prime+0x24f>
    2bec:	0f b6 c0             	movzbl %al,%eax
    2bef:	48 81 c4 f8 00 00 00 	add    $0xf8,%rsp
    2bf6:	c3                   	retq   
    2bf7:	66 0f 1f 84 00 00 00 	nopw   0x0(%rax,%rax,1)
    2bfe:	00 00 
    2c00:	48 8d 0d c9 7a 00 00 	lea    0x7ac9(%rip),%rcx        # a6d0 <__PRETTY_FUNCTION__.5802>
    2c07:	ba 6c 02 00 00       	mov    $0x26c,%edx
    2c0c:	48 8d 35 18 74 00 00 	lea    0x7418(%rip),%rsi        # a02b <_IO_stdin_used+0x2b>
    2c13:	48 8d 3d 1b 74 00 00 	lea    0x741b(%rip),%rdi        # a035 <_IO_stdin_used+0x35>
    2c1a:	e8 21 e7 ff ff       	callq  1340 <__assert_fail@plt>
    2c1f:	e8 ec e6 ff ff       	callq  1310 <__stack_chk_fail@plt>
    2c24:	66 2e 0f 1f 84 00 00 	nopw   %cs:0x0(%rax,%rax,1)
    2c2b:	00 00 00 
    2c2e:	66 90                	xchg   %ax,%ax

0000000000002c30 <liberation_coding_bitmatrix>:
    2c30:	f3 0f 1e fa          	endbr64 
    2c34:	39 f7                	cmp    %esi,%edi
    2c36:	0f 8f 45 01 00 00    	jg     2d81 <liberation_coding_bitmatrix+0x151>
    2c3c:	41 56                	push   %r14
    2c3e:	41 55                	push   %r13
    2c40:	41 54                	push   %r12
    2c42:	41 89 fc             	mov    %edi,%r12d
    2c45:	44 0f af e6          	imul   %esi,%r12d
    2c49:	55                   	push   %rbp
    2c4a:	89 fd                	mov    %edi,%ebp
    2c4c:	45 89 e6             	mov    %r12d,%r14d
    2c4f:	44 0f af f6          	imul   %esi,%r14d
    2c53:	53                   	push   %rbx
    2c54:	89 f3                	mov    %esi,%ebx
    2c56:	43 8d 3c 36          	lea    (%r14,%r14,1),%edi
    2c5a:	48 63 ff             	movslq %edi,%rdi
    2c5d:	48 c1 e7 02          	shl    $0x2,%rdi
    2c61:	e8 9a e7 ff ff       	callq  1400 <malloc@plt>
    2c66:	49 89 c0             	mov    %rax,%r8
    2c69:	48 85 c0             	test   %rax,%rax
    2c6c:	0f 84 00 01 00 00    	je     2d72 <liberation_coding_bitmatrix+0x142>
    2c72:	4c 63 eb             	movslq %ebx,%r13
    2c75:	4c 89 ea             	mov    %r13,%rdx
    2c78:	49 0f af d5          	imul   %r13,%rdx
    2c7c:	48 63 c5             	movslq %ebp,%rax
  (void) __builtin___memset_chk (__dest, '\0', __len, __bos0 (__dest));
    2c7f:	4c 89 c7             	mov    %r8,%rdi
    2c82:	48 0f af d0          	imul   %rax,%rdx
    2c86:	31 f6                	xor    %esi,%esi
    2c88:	48 c1 e2 03          	shl    $0x3,%rdx
    2c8c:	e8 bf e6 ff ff       	callq  1350 <memset@plt>
    2c91:	49 89 c0             	mov    %rax,%r8
    2c94:	85 db                	test   %ebx,%ebx
    2c96:	7e 40                	jle    2cd8 <liberation_coding_bitmatrix+0xa8>
    2c98:	49 63 c4             	movslq %r12d,%rax
    2c9b:	4c 8d 0c 85 04 00 00 	lea    0x4(,%rax,4),%r9
    2ca2:	00 
    2ca3:	4c 89 c7             	mov    %r8,%rdi
    2ca6:	4a 8d 0c ad 00 00 00 	lea    0x0(,%r13,4),%rcx
    2cad:	00 
    2cae:	31 f6                	xor    %esi,%esi
    2cb0:	85 ed                	test   %ebp,%ebp
    2cb2:	7e 1b                	jle    2ccf <liberation_coding_bitmatrix+0x9f>
    2cb4:	48 89 fa             	mov    %rdi,%rdx
    2cb7:	31 c0                	xor    %eax,%eax
    2cb9:	0f 1f 80 00 00 00 00 	nopl   0x0(%rax)
    2cc0:	ff c0                	inc    %eax
    2cc2:	c7 02 01 00 00 00    	movl   $0x1,(%rdx)
    2cc8:	48 01 ca             	add    %rcx,%rdx
    2ccb:	39 c5                	cmp    %eax,%ebp
    2ccd:	75 f1                	jne    2cc0 <liberation_coding_bitmatrix+0x90>
    2ccf:	ff c6                	inc    %esi
    2cd1:	4c 01 cf             	add    %r9,%rdi
    2cd4:	39 f3                	cmp    %esi,%ebx
    2cd6:	75 d8                	jne    2cb0 <liberation_coding_bitmatrix+0x80>
    2cd8:	85 ed                	test   %ebp,%ebp
    2cda:	0f 8e 86 00 00 00    	jle    2d66 <liberation_coding_bitmatrix+0x136>
    2ce0:	8d 43 ff             	lea    -0x1(%rbx),%eax
    2ce3:	41 89 c5             	mov    %eax,%r13d
    2ce6:	41 c1 ed 1f          	shr    $0x1f,%r13d
    2cea:	41 01 c5             	add    %eax,%r13d
    2ced:	41 d1 fd             	sar    %r13d
    2cf0:	45 89 f2             	mov    %r14d,%r10d
    2cf3:	89 df                	mov    %ebx,%edi
    2cf5:	45 31 db             	xor    %r11d,%r11d
    2cf8:	45 31 c9             	xor    %r9d,%r9d
    2cfb:	0f 1f 44 00 00       	nopl   0x0(%rax,%rax,1)
    2d00:	85 db                	test   %ebx,%ebx
    2d02:	7e 27                	jle    2d2b <liberation_coding_bitmatrix+0xfb>
    2d04:	44 89 c9             	mov    %r9d,%ecx
    2d07:	44 89 d6             	mov    %r10d,%esi
    2d0a:	66 0f 1f 44 00 00    	nopw   0x0(%rax,%rax,1)
    2d10:	89 c8                	mov    %ecx,%eax
    2d12:	99                   	cltd   
    2d13:	f7 fb                	idiv   %ebx
    2d15:	ff c1                	inc    %ecx
    2d17:	01 f2                	add    %esi,%edx
    2d19:	48 63 d2             	movslq %edx,%rdx
    2d1c:	41 c7 04 90 01 00 00 	movl   $0x1,(%r8,%rdx,4)
    2d23:	00 
    2d24:	44 01 e6             	add    %r12d,%esi
    2d27:	39 cf                	cmp    %ecx,%edi
    2d29:	75 e5                	jne    2d10 <liberation_coding_bitmatrix+0xe0>
    2d2b:	45 85 c9             	test   %r9d,%r9d
    2d2e:	74 26                	je     2d56 <liberation_coding_bitmatrix+0x126>
    2d30:	44 89 d8             	mov    %r11d,%eax
    2d33:	99                   	cltd   
    2d34:	f7 fb                	idiv   %ebx
    2d36:	89 e9                	mov    %ebp,%ecx
    2d38:	41 8d 44 11 ff       	lea    -0x1(%r9,%rdx,1),%eax
    2d3d:	0f af ca             	imul   %edx,%ecx
    2d40:	99                   	cltd   
    2d41:	f7 fb                	idiv   %ebx
    2d43:	0f af cb             	imul   %ebx,%ecx
    2d46:	44 01 d1             	add    %r10d,%ecx
    2d49:	01 d1                	add    %edx,%ecx
    2d4b:	48 63 c9             	movslq %ecx,%rcx
    2d4e:	41 c7 04 88 01 00 00 	movl   $0x1,(%r8,%rcx,4)
    2d55:	00 
    2d56:	41 ff c1             	inc    %r9d
    2d59:	45 01 eb             	add    %r13d,%r11d
    2d5c:	41 01 da             	add    %ebx,%r10d
    2d5f:	ff c7                	inc    %edi
    2d61:	44 39 cd             	cmp    %r9d,%ebp
    2d64:	75 9a                	jne    2d00 <liberation_coding_bitmatrix+0xd0>
    2d66:	5b                   	pop    %rbx
    2d67:	5d                   	pop    %rbp
    2d68:	41 5c                	pop    %r12
    2d6a:	41 5d                	pop    %r13
    2d6c:	4c 89 c0             	mov    %r8,%rax
    2d6f:	41 5e                	pop    %r14
    2d71:	c3                   	retq   
    2d72:	5b                   	pop    %rbx
    2d73:	5d                   	pop    %rbp
    2d74:	41 5c                	pop    %r12
    2d76:	45 31 c0             	xor    %r8d,%r8d
    2d79:	41 5d                	pop    %r13
    2d7b:	4c 89 c0             	mov    %r8,%rax
    2d7e:	41 5e                	pop    %r14
    2d80:	c3                   	retq   
    2d81:	45 31 c0             	xor    %r8d,%r8d
    2d84:	4c 89 c0             	mov    %r8,%rax
    2d87:	c3                   	retq   
    2d88:	0f 1f 84 00 00 00 00 	nopl   0x0(%rax,%rax,1)
    2d8f:	00 

0000000000002d90 <liber8tion_coding_bitmatrix>:
    2d90:	f3 0f 1e fa          	endbr64 
    2d94:	83 ff 08             	cmp    $0x8,%edi
    2d97:	0f 8f 22 04 00 00    	jg     31bf <liber8tion_coding_bitmatrix+0x42f>
    2d9d:	41 54                	push   %r12
    2d9f:	be 01 00 00 00       	mov    $0x1,%esi
    2da4:	55                   	push   %rbp
    2da5:	53                   	push   %rbx
    2da6:	89 fb                	mov    %edi,%ebx
    2da8:	c1 e7 07             	shl    $0x7,%edi
    2dab:	48 63 ff             	movslq %edi,%rdi
    2dae:	48 c1 e7 02          	shl    $0x2,%rdi
    2db2:	e8 c9 e5 ff ff       	callq  1380 <calloc@plt>
    2db7:	48 85 c0             	test   %rax,%rax
    2dba:	0f 84 f8 03 00 00    	je     31b8 <liber8tion_coding_bitmatrix+0x428>
    2dc0:	8d 7b ff             	lea    -0x1(%rbx),%edi
    2dc3:	48 ff c7             	inc    %rdi
    2dc6:	48 89 f9             	mov    %rdi,%rcx
    2dc9:	44 8d 0c dd 00 00 00 	lea    0x0(,%rbx,8),%r9d
    2dd0:	00 
    2dd1:	49 63 d1             	movslq %r9d,%rdx
    2dd4:	48 c1 e1 05          	shl    $0x5,%rcx
    2dd8:	48 f7 df             	neg    %rdi
    2ddb:	4c 8d 04 95 04 00 00 	lea    0x4(,%rdx,4),%r8
    2de2:	00 
    2de3:	48 01 c1             	add    %rax,%rcx
    2de6:	be 08 00 00 00       	mov    $0x8,%esi
    2deb:	48 c1 e7 05          	shl    $0x5,%rdi
    2def:	90                   	nop
    2df0:	85 db                	test   %ebx,%ebx
    2df2:	7e 1b                	jle    2e0f <liber8tion_coding_bitmatrix+0x7f>
    2df4:	48 8d 14 0f          	lea    (%rdi,%rcx,1),%rdx
    2df8:	0f 1f 84 00 00 00 00 	nopl   0x0(%rax,%rax,1)
    2dff:	00 
    2e00:	c7 02 01 00 00 00    	movl   $0x1,(%rdx)
    2e06:	48 83 c2 20          	add    $0x20,%rdx
    2e0a:	48 39 ca             	cmp    %rcx,%rdx
    2e0d:	75 f1                	jne    2e00 <liber8tion_coding_bitmatrix+0x70>
    2e0f:	4c 01 c1             	add    %r8,%rcx
    2e12:	ff ce                	dec    %esi
    2e14:	75 da                	jne    2df0 <liber8tion_coding_bitmatrix+0x60>
    2e16:	85 db                	test   %ebx,%ebx
    2e18:	0f 84 95 03 00 00    	je     31b3 <liber8tion_coding_bitmatrix+0x423>
    2e1e:	41 89 d8             	mov    %ebx,%r8d
    2e21:	41 c1 e0 06          	shl    $0x6,%r8d
    2e25:	43 8d 3c 08          	lea    (%r8,%r9,1),%edi
    2e29:	49 63 d0             	movslq %r8d,%rdx
    2e2c:	c7 04 90 01 00 00 00 	movl   $0x1,(%rax,%rdx,4)
    2e33:	42 8d 2c 0f          	lea    (%rdi,%r9,1),%ebp
    2e37:	48 63 d7             	movslq %edi,%rdx
    2e3a:	c7 44 90 04 01 00 00 	movl   $0x1,0x4(%rax,%rdx,4)
    2e41:	00 
    2e42:	46 8d 54 0d 00       	lea    0x0(%rbp,%r9,1),%r10d
    2e47:	48 63 d5             	movslq %ebp,%rdx
    2e4a:	c7 44 90 08 01 00 00 	movl   $0x1,0x8(%rax,%rdx,4)
    2e51:	00 
    2e52:	43 8d 34 0a          	lea    (%r10,%r9,1),%esi
    2e56:	49 63 d2             	movslq %r10d,%rdx
    2e59:	c7 44 90 0c 01 00 00 	movl   $0x1,0xc(%rax,%rdx,4)
    2e60:	00 
    2e61:	42 8d 0c 0e          	lea    (%rsi,%r9,1),%ecx
    2e65:	48 63 d6             	movslq %esi,%rdx
    2e68:	c7 44 90 10 01 00 00 	movl   $0x1,0x10(%rax,%rdx,4)
    2e6f:	00 
    2e70:	48 63 d1             	movslq %ecx,%rdx
    2e73:	c7 44 90 14 01 00 00 	movl   $0x1,0x14(%rax,%rdx,4)
    2e7a:	00 
    2e7b:	42 8d 14 09          	lea    (%rcx,%r9,1),%edx
    2e7f:	4c 63 da             	movslq %edx,%r11
    2e82:	41 01 d1             	add    %edx,%r9d
    2e85:	42 c7 44 98 18 01 00 	movl   $0x1,0x18(%rax,%r11,4)
    2e8c:	00 00 
    2e8e:	4d 63 d9             	movslq %r9d,%r11
    2e91:	42 c7 44 98 1c 01 00 	movl   $0x1,0x1c(%rax,%r11,4)
    2e98:	00 00 
    2e9a:	83 fb 01             	cmp    $0x1,%ebx
    2e9d:	0f 84 10 03 00 00    	je     31b3 <liber8tion_coding_bitmatrix+0x423>
    2ea3:	41 83 c0 08          	add    $0x8,%r8d
    2ea7:	4d 63 c0             	movslq %r8d,%r8
    2eaa:	49 83 c0 07          	add    $0x7,%r8
    2eae:	42 c7 04 80 01 00 00 	movl   $0x1,(%rax,%r8,4)
    2eb5:	00 
    2eb6:	4e 8d 1c 85 00 00 00 	lea    0x0(,%r8,4),%r11
    2ebd:	00 
    2ebe:	44 8d 47 08          	lea    0x8(%rdi),%r8d
    2ec2:	4d 63 c0             	movslq %r8d,%r8
    2ec5:	83 c5 08             	add    $0x8,%ebp
    2ec8:	49 83 c0 03          	add    $0x3,%r8
    2ecc:	48 63 ed             	movslq %ebp,%rbp
    2ecf:	42 c7 04 80 01 00 00 	movl   $0x1,(%rax,%r8,4)
    2ed6:	00 
    2ed7:	4a 8d 3c 85 00 00 00 	lea    0x0(,%r8,4),%rdi
    2ede:	00 
    2edf:	c7 04 a8 01 00 00 00 	movl   $0x1,(%rax,%rbp,4)
    2ee6:	4c 8d 04 ad 00 00 00 	lea    0x0(,%rbp,4),%r8
    2eed:	00 
    2eee:	41 8d 6a 08          	lea    0x8(%r10),%ebp
    2ef2:	48 63 ed             	movslq %ebp,%rbp
    2ef5:	48 83 c5 02          	add    $0x2,%rbp
    2ef9:	c7 04 a8 01 00 00 00 	movl   $0x1,(%rax,%rbp,4)
    2f00:	4c 8d 14 ad 00 00 00 	lea    0x0(,%rbp,4),%r10
    2f07:	00 
    2f08:	83 c1 08             	add    $0x8,%ecx
    2f0b:	8d 6e 08             	lea    0x8(%rsi),%ebp
    2f0e:	83 c2 08             	add    $0x8,%edx
    2f11:	48 63 ed             	movslq %ebp,%rbp
    2f14:	48 63 c9             	movslq %ecx,%rcx
    2f17:	48 63 d2             	movslq %edx,%rdx
    2f1a:	48 83 c5 06          	add    $0x6,%rbp
    2f1e:	48 ff c1             	inc    %rcx
    2f21:	48 83 c2 05          	add    $0x5,%rdx
    2f25:	c7 04 a8 01 00 00 00 	movl   $0x1,(%rax,%rbp,4)
    2f2c:	4c 8d 24 95 00 00 00 	lea    0x0(,%rdx,4),%r12
    2f33:	00 
    2f34:	c7 04 88 01 00 00 00 	movl   $0x1,(%rax,%rcx,4)
    2f3b:	c7 04 90 01 00 00 00 	movl   $0x1,(%rax,%rdx,4)
    2f42:	41 8d 51 08          	lea    0x8(%r9),%edx
    2f46:	48 63 d2             	movslq %edx,%rdx
    2f49:	48 8d 34 ad 00 00 00 	lea    0x0(,%rbp,4),%rsi
    2f50:	00 
    2f51:	48 83 c2 04          	add    $0x4,%rdx
    2f55:	c7 04 90 01 00 00 00 	movl   $0x1,(%rax,%rdx,4)
    2f5c:	48 8d 2c 8d 00 00 00 	lea    0x0(,%rcx,4),%rbp
    2f63:	00 
    2f64:	c7 44 30 04 01 00 00 	movl   $0x1,0x4(%rax,%rsi,1)
    2f6b:	00 
    2f6c:	48 8d 0c 95 00 00 00 	lea    0x0(,%rdx,4),%rcx
    2f73:	00 
    2f74:	83 fb 02             	cmp    $0x2,%ebx
    2f77:	0f 84 36 02 00 00    	je     31b3 <liber8tion_coding_bitmatrix+0x423>
    2f7d:	42 c7 44 18 1c 01 00 	movl   $0x1,0x1c(%rax,%r11,1)
    2f84:	00 00 
    2f86:	c7 44 38 1c 01 00 00 	movl   $0x1,0x1c(%rax,%rdi,1)
    2f8d:	00 
    2f8e:	42 c7 44 00 30 01 00 	movl   $0x1,0x30(%rax,%r8,1)
    2f95:	00 00 
    2f97:	42 c7 44 10 18 01 00 	movl   $0x1,0x18(%rax,%r10,1)
    2f9e:	00 00 
    2fa0:	c7 44 30 24 01 00 00 	movl   $0x1,0x24(%rax,%rsi,1)
    2fa7:	00 
    2fa8:	c7 44 28 28 01 00 00 	movl   $0x1,0x28(%rax,%rbp,1)
    2faf:	00 
    2fb0:	42 c7 44 20 10 01 00 	movl   $0x1,0x10(%rax,%r12,1)
    2fb7:	00 00 
    2fb9:	c7 44 08 24 01 00 00 	movl   $0x1,0x24(%rax,%rcx,1)
    2fc0:	00 
    2fc1:	c7 44 38 20 01 00 00 	movl   $0x1,0x20(%rax,%rdi,1)
    2fc8:	00 
    2fc9:	83 fb 03             	cmp    $0x3,%ebx
    2fcc:	0f 84 e1 01 00 00    	je     31b3 <liber8tion_coding_bitmatrix+0x423>
    2fd2:	42 c7 44 18 2c 01 00 	movl   $0x1,0x2c(%rax,%r11,1)
    2fd9:	00 00 
    2fdb:	c7 44 38 48 01 00 00 	movl   $0x1,0x48(%rax,%rdi,1)
    2fe2:	00 
    2fe3:	42 c7 44 00 5c 01 00 	movl   $0x1,0x5c(%rax,%r8,1)
    2fea:	00 00 
    2fec:	42 c7 44 10 50 01 00 	movl   $0x1,0x50(%rax,%r10,1)
    2ff3:	00 00 
    2ff5:	c7 44 30 28 01 00 00 	movl   $0x1,0x28(%rax,%rsi,1)
    2ffc:	00 
    2ffd:	c7 44 28 48 01 00 00 	movl   $0x1,0x48(%rax,%rbp,1)
    3004:	00 
    3005:	42 c7 44 20 3c 01 00 	movl   $0x1,0x3c(%rax,%r12,1)
    300c:	00 00 
    300e:	c7 44 08 34 01 00 00 	movl   $0x1,0x34(%rax,%rcx,1)
    3015:	00 
    3016:	c7 44 28 4c 01 00 00 	movl   $0x1,0x4c(%rax,%rbp,1)
    301d:	00 
    301e:	83 fb 04             	cmp    $0x4,%ebx
    3021:	0f 84 8c 01 00 00    	je     31b3 <liber8tion_coding_bitmatrix+0x423>
    3027:	42 c7 44 18 58 01 00 	movl   $0x1,0x58(%rax,%r11,1)
    302e:	00 00 
    3030:	c7 44 38 6c 01 00 00 	movl   $0x1,0x6c(%rax,%rdi,1)
    3037:	00 
    3038:	42 c7 44 00 64 01 00 	movl   $0x1,0x64(%rax,%r8,1)
    303f:	00 00 
    3041:	42 c7 44 10 74 01 00 	movl   $0x1,0x74(%rax,%r10,1)
    3048:	00 00 
    304a:	c7 44 30 50 01 00 00 	movl   $0x1,0x50(%rax,%rsi,1)
    3051:	00 
    3052:	c7 44 28 6c 01 00 00 	movl   $0x1,0x6c(%rax,%rbp,1)
    3059:	00 
    305a:	42 c7 44 20 58 01 00 	movl   $0x1,0x58(%rax,%r12,1)
    3061:	00 00 
    3063:	c7 44 08 50 01 00 00 	movl   $0x1,0x50(%rax,%rcx,1)
    306a:	00 
    306b:	42 c7 44 00 60 01 00 	movl   $0x1,0x60(%rax,%r8,1)
    3072:	00 00 
    3074:	83 fb 05             	cmp    $0x5,%ebx
    3077:	0f 84 36 01 00 00    	je     31b3 <liber8tion_coding_bitmatrix+0x423>
    307d:	42 c7 44 18 68 01 00 	movl   $0x1,0x68(%rax,%r11,1)
    3084:	00 00 
    3086:	c7 44 38 7c 01 00 00 	movl   $0x1,0x7c(%rax,%rdi,1)
    308d:	00 
    308e:	42 c7 84 00 8c 00 00 	movl   $0x1,0x8c(%rax,%r8,1)
    3095:	00 01 00 00 00 
    309a:	42 c7 84 10 88 00 00 	movl   $0x1,0x88(%rax,%r10,1)
    30a1:	00 01 00 00 00 
    30a6:	c7 44 30 7c 01 00 00 	movl   $0x1,0x7c(%rax,%rsi,1)
    30ad:	00 
    30ae:	c7 84 28 94 00 00 00 	movl   $0x1,0x94(%rax,%rbp,1)
    30b5:	01 00 00 00 
    30b9:	42 c7 84 20 88 00 00 	movl   $0x1,0x88(%rax,%r12,1)
    30c0:	00 01 00 00 00 
    30c5:	c7 44 08 70 01 00 00 	movl   $0x1,0x70(%rax,%rcx,1)
    30cc:	00 
    30cd:	c7 44 08 78 01 00 00 	movl   $0x1,0x78(%rax,%rcx,1)
    30d4:	00 
    30d5:	83 fb 06             	cmp    $0x6,%ebx
    30d8:	0f 84 d5 00 00 00    	je     31b3 <liber8tion_coding_bitmatrix+0x423>
    30de:	42 c7 84 18 90 00 00 	movl   $0x1,0x90(%rax,%r11,1)
    30e5:	00 01 00 00 00 
    30ea:	c7 84 38 94 00 00 00 	movl   $0x1,0x94(%rax,%rdi,1)
    30f1:	01 00 00 00 
    30f5:	42 c7 84 00 b8 00 00 	movl   $0x1,0xb8(%rax,%r8,1)
    30fc:	00 01 00 00 00 
    3101:	42 c7 84 10 ac 00 00 	movl   $0x1,0xac(%rax,%r10,1)
    3108:	00 01 00 00 00 
    310d:	c7 84 30 8c 00 00 00 	movl   $0x1,0x8c(%rax,%rsi,1)
    3114:	01 00 00 00 
    3118:	c7 84 28 b8 00 00 00 	movl   $0x1,0xb8(%rax,%rbp,1)
    311f:	01 00 00 00 
    3123:	42 c7 84 20 9c 00 00 	movl   $0x1,0x9c(%rax,%r12,1)
    312a:	00 01 00 00 00 
    312f:	c7 84 08 98 00 00 00 	movl   $0x1,0x98(%rax,%rcx,1)
    3136:	01 00 00 00 
    313a:	42 c7 84 20 a0 00 00 	movl   $0x1,0xa0(%rax,%r12,1)
    3141:	00 01 00 00 00 
    3146:	83 fb 07             	cmp    $0x7,%ebx
    3149:	74 68                	je     31b3 <liber8tion_coding_bitmatrix+0x423>
    314b:	42 c7 84 18 b4 00 00 	movl   $0x1,0xb4(%rax,%r11,1)
    3152:	00 01 00 00 00 
    3157:	c7 84 38 d0 00 00 00 	movl   $0x1,0xd0(%rax,%rdi,1)
    315e:	01 00 00 00 
    3162:	42 c7 84 00 c4 00 00 	movl   $0x1,0xc4(%rax,%r8,1)
    3169:	00 01 00 00 00 
    316e:	42 c7 84 10 cc 00 00 	movl   $0x1,0xcc(%rax,%r10,1)
    3175:	00 01 00 00 00 
    317a:	c7 84 30 b4 00 00 00 	movl   $0x1,0xb4(%rax,%rsi,1)
    3181:	01 00 00 00 
    3185:	c7 84 28 c4 00 00 00 	movl   $0x1,0xc4(%rax,%rbp,1)
    318c:	01 00 00 00 
    3190:	42 c7 84 20 ac 00 00 	movl   $0x1,0xac(%rax,%r12,1)
    3197:	00 01 00 00 00 
    319c:	c7 84 08 c8 00 00 00 	movl   $0x1,0xc8(%rax,%rcx,1)
    31a3:	01 00 00 00 
    31a7:	42 c7 84 10 bc 00 00 	movl   $0x1,0xbc(%rax,%r10,1)
    31ae:	00 01 00 00 00 
    31b3:	5b                   	pop    %rbx
    31b4:	5d                   	pop    %rbp
    31b5:	41 5c                	pop    %r12
    31b7:	c3                   	retq   
    31b8:	5b                   	pop    %rbx
    31b9:	5d                   	pop    %rbp
    31ba:	31 c0                	xor    %eax,%eax
    31bc:	41 5c                	pop    %r12
    31be:	c3                   	retq   
    31bf:	31 c0                	xor    %eax,%eax
    31c1:	c3                   	retq   
    31c2:	66 66 2e 0f 1f 84 00 	data16 nopw %cs:0x0(%rax,%rax,1)
    31c9:	00 00 00 00 
    31cd:	0f 1f 00             	nopl   (%rax)

00000000000031d0 <blaum_roth_coding_bitmatrix>:
    31d0:	f3 0f 1e fa          	endbr64 
    31d4:	39 f7                	cmp    %esi,%edi
    31d6:	0f 8f dd 01 00 00    	jg     33b9 <blaum_roth_coding_bitmatrix+0x1e9>
    31dc:	41 57                	push   %r15
    31de:	41 56                	push   %r14
    31e0:	41 55                	push   %r13
    31e2:	41 54                	push   %r12
    31e4:	41 89 fc             	mov    %edi,%r12d
    31e7:	44 0f af e6          	imul   %esi,%r12d
    31eb:	55                   	push   %rbp
    31ec:	89 f5                	mov    %esi,%ebp
    31ee:	45 89 e5             	mov    %r12d,%r13d
    31f1:	44 0f af ee          	imul   %esi,%r13d
    31f5:	53                   	push   %rbx
    31f6:	89 fb                	mov    %edi,%ebx
    31f8:	43 8d 7c 2d 00       	lea    0x0(%r13,%r13,1),%edi
    31fd:	48 63 ff             	movslq %edi,%rdi
    3200:	48 83 ec 18          	sub    $0x18,%rsp
    3204:	48 c1 e7 02          	shl    $0x2,%rdi
    3208:	e8 f3 e1 ff ff       	callq  1400 <malloc@plt>
    320d:	49 89 c1             	mov    %rax,%r9
    3210:	48 85 c0             	test   %rax,%rax
    3213:	0f 84 9b 01 00 00    	je     33b4 <blaum_roth_coding_bitmatrix+0x1e4>
    3219:	4c 63 f5             	movslq %ebp,%r14
    321c:	4c 89 f2             	mov    %r14,%rdx
    321f:	49 0f af d6          	imul   %r14,%rdx
    3223:	48 63 c3             	movslq %ebx,%rax
    3226:	4c 89 cf             	mov    %r9,%rdi
    3229:	48 0f af d0          	imul   %rax,%rdx
    322d:	31 f6                	xor    %esi,%esi
    322f:	48 c1 e2 03          	shl    $0x3,%rdx
    3233:	e8 18 e1 ff ff       	callq  1350 <memset@plt>
    3238:	49 89 c1             	mov    %rax,%r9
    323b:	85 ed                	test   %ebp,%ebp
    323d:	7e 49                	jle    3288 <blaum_roth_coding_bitmatrix+0xb8>
    323f:	49 63 c4             	movslq %r12d,%rax
    3242:	4c 8d 04 85 04 00 00 	lea    0x4(,%rax,4),%r8
    3249:	00 
    324a:	4c 89 cf             	mov    %r9,%rdi
    324d:	4a 8d 0c b5 00 00 00 	lea    0x0(,%r14,4),%rcx
    3254:	00 
    3255:	31 f6                	xor    %esi,%esi
    3257:	66 0f 1f 84 00 00 00 	nopw   0x0(%rax,%rax,1)
    325e:	00 00 
    3260:	48 89 fa             	mov    %rdi,%rdx
    3263:	31 c0                	xor    %eax,%eax
    3265:	85 db                	test   %ebx,%ebx
    3267:	7e 16                	jle    327f <blaum_roth_coding_bitmatrix+0xaf>
    3269:	0f 1f 80 00 00 00 00 	nopl   0x0(%rax)
    3270:	ff c0                	inc    %eax
    3272:	c7 02 01 00 00 00    	movl   $0x1,(%rdx)
    3278:	48 01 ca             	add    %rcx,%rdx
    327b:	39 c3                	cmp    %eax,%ebx
    327d:	75 f1                	jne    3270 <blaum_roth_coding_bitmatrix+0xa0>
    327f:	ff c6                	inc    %esi
    3281:	4c 01 c7             	add    %r8,%rdi
    3284:	39 f5                	cmp    %esi,%ebp
    3286:	75 d8                	jne    3260 <blaum_roth_coding_bitmatrix+0x90>
    3288:	44 8d 45 01          	lea    0x1(%rbp),%r8d
    328c:	85 db                	test   %ebx,%ebx
    328e:	0f 8e d4 00 00 00    	jle    3368 <blaum_roth_coding_bitmatrix+0x198>
    3294:	44 89 c0             	mov    %r8d,%eax
    3297:	c1 e8 1f             	shr    $0x1f,%eax
    329a:	44 01 c0             	add    %r8d,%eax
    329d:	d1 f8                	sar    %eax
    329f:	ff c0                	inc    %eax
    32a1:	89 44 24 0c          	mov    %eax,0xc(%rsp)
    32a5:	4a 8d 04 b5 00 00 00 	lea    0x0(,%r14,4),%rax
    32ac:	00 
    32ad:	48 89 04 24          	mov    %rax,(%rsp)
    32b1:	49 63 c5             	movslq %r13d,%rax
    32b4:	4d 8d 3c 81          	lea    (%r9,%rax,4),%r15
    32b8:	49 63 c4             	movslq %r12d,%rax
    32bb:	44 89 c6             	mov    %r8d,%esi
    32be:	4c 8d 34 85 04 00 00 	lea    0x4(,%rax,4),%r14
    32c5:	00 
    32c6:	31 ff                	xor    %edi,%edi
    32c8:	0f 1f 84 00 00 00 00 	nopl   0x0(%rax,%rax,1)
    32cf:	00 
    32d0:	44 89 ea             	mov    %r13d,%edx
    32d3:	85 ff                	test   %edi,%edi
    32d5:	0f 84 a5 00 00 00    	je     3380 <blaum_roth_coding_bitmatrix+0x1b0>
    32db:	85 ed                	test   %ebp,%ebp
    32dd:	7e 76                	jle    3355 <blaum_roth_coding_bitmatrix+0x185>
    32df:	8b 44 24 0c          	mov    0xc(%rsp),%eax
    32e3:	41 89 fb             	mov    %edi,%r11d
    32e6:	41 d1 fb             	sar    %r11d
    32e9:	44 01 d8             	add    %r11d,%eax
    32ec:	40 f6 c7 01          	test   $0x1,%dil
    32f0:	44 0f 45 d8          	cmovne %eax,%r11d
    32f4:	b8 01 00 00 00       	mov    $0x1,%eax
    32f9:	41 ff cb             	dec    %r11d
    32fc:	eb 2b                	jmp    3329 <blaum_roth_coding_bitmatrix+0x159>
    32fe:	66 90                	xchg   %ax,%ax
    3300:	8d 0c 38             	lea    (%rax,%rdi,1),%ecx
    3303:	41 89 c2             	mov    %eax,%r10d
    3306:	41 29 f2             	sub    %esi,%r10d
    3309:	44 39 c1             	cmp    %r8d,%ecx
    330c:	41 0f 4d ca          	cmovge %r10d,%ecx
    3310:	ff c0                	inc    %eax
    3312:	8d 4c 11 ff          	lea    -0x1(%rcx,%rdx,1),%ecx
    3316:	48 63 c9             	movslq %ecx,%rcx
    3319:	41 c7 04 89 01 00 00 	movl   $0x1,(%r9,%rcx,4)
    3320:	00 
    3321:	44 01 e2             	add    %r12d,%edx
    3324:	44 39 c0             	cmp    %r8d,%eax
    3327:	74 2c                	je     3355 <blaum_roth_coding_bitmatrix+0x185>
    3329:	39 f0                	cmp    %esi,%eax
    332b:	75 d3                	jne    3300 <blaum_roth_coding_bitmatrix+0x130>
    332d:	8d 0c 3a             	lea    (%rdx,%rdi,1),%ecx
    3330:	48 63 c9             	movslq %ecx,%rcx
    3333:	41 c7 44 89 fc 01 00 	movl   $0x1,-0x4(%r9,%rcx,4)
    333a:	00 00 
    333c:	41 8d 0c 13          	lea    (%r11,%rdx,1),%ecx
    3340:	48 63 c9             	movslq %ecx,%rcx
    3343:	ff c0                	inc    %eax
    3345:	41 c7 04 89 01 00 00 	movl   $0x1,(%r9,%rcx,4)
    334c:	00 
    334d:	44 01 e2             	add    %r12d,%edx
    3350:	44 39 c0             	cmp    %r8d,%eax
    3353:	75 d4                	jne    3329 <blaum_roth_coding_bitmatrix+0x159>
    3355:	ff c7                	inc    %edi
    3357:	41 01 ed             	add    %ebp,%r13d
    335a:	ff ce                	dec    %esi
    335c:	4c 03 3c 24          	add    (%rsp),%r15
    3360:	39 fb                	cmp    %edi,%ebx
    3362:	0f 85 68 ff ff ff    	jne    32d0 <blaum_roth_coding_bitmatrix+0x100>
    3368:	48 83 c4 18          	add    $0x18,%rsp
    336c:	5b                   	pop    %rbx
    336d:	5d                   	pop    %rbp
    336e:	41 5c                	pop    %r12
    3370:	41 5d                	pop    %r13
    3372:	41 5e                	pop    %r14
    3374:	4c 89 c8             	mov    %r9,%rax
    3377:	41 5f                	pop    %r15
    3379:	c3                   	retq   
    337a:	66 0f 1f 44 00 00    	nopw   0x0(%rax,%rax,1)
    3380:	85 ed                	test   %ebp,%ebp
    3382:	7e d1                	jle    3355 <blaum_roth_coding_bitmatrix+0x185>
    3384:	4c 89 fa             	mov    %r15,%rdx
    3387:	31 c0                	xor    %eax,%eax
    3389:	0f 1f 80 00 00 00 00 	nopl   0x0(%rax)
    3390:	ff c0                	inc    %eax
    3392:	c7 02 01 00 00 00    	movl   $0x1,(%rdx)
    3398:	4c 01 f2             	add    %r14,%rdx
    339b:	39 c5                	cmp    %eax,%ebp
    339d:	75 f1                	jne    3390 <blaum_roth_coding_bitmatrix+0x1c0>
    339f:	ff c7                	inc    %edi
    33a1:	41 01 ed             	add    %ebp,%r13d
    33a4:	ff ce                	dec    %esi
    33a6:	4c 03 3c 24          	add    (%rsp),%r15
    33aa:	39 fb                	cmp    %edi,%ebx
    33ac:	0f 85 1e ff ff ff    	jne    32d0 <blaum_roth_coding_bitmatrix+0x100>
    33b2:	eb b4                	jmp    3368 <blaum_roth_coding_bitmatrix+0x198>
    33b4:	45 31 c9             	xor    %r9d,%r9d
    33b7:	eb af                	jmp    3368 <blaum_roth_coding_bitmatrix+0x198>
    33b9:	45 31 c9             	xor    %r9d,%r9d
    33bc:	4c 89 c8             	mov    %r9,%rax
    33bf:	c3                   	retq   

00000000000033c0 <jerasure_print_matrix>:
static double jerasure_total_xor_bytes = 0;
static double jerasure_total_gf_bytes = 0;
static double jerasure_total_memcpy_bytes = 0;

void jerasure_print_matrix(int *m, int rows, int cols, int w)
{
    33c0:	f3 0f 1e fa          	endbr64 
    33c4:	41 57                	push   %r15
    33c6:	41 56                	push   %r14
    33c8:	41 89 d6             	mov    %edx,%r14d
    33cb:	41 55                	push   %r13
    33cd:	41 54                	push   %r12
    33cf:	55                   	push   %rbp
    33d0:	bd 0a 00 00 00       	mov    $0xa,%ebp
    33d5:	53                   	push   %rbx
    33d6:	48 83 ec 48          	sub    $0x48,%rsp
    33da:	48 89 7c 24 08       	mov    %rdi,0x8(%rsp)
    33df:	89 74 24 04          	mov    %esi,0x4(%rsp)
    33e3:	64 48 8b 04 25 28 00 	mov    %fs:0x28,%rax
    33ea:	00 00 
    33ec:	48 89 44 24 38       	mov    %rax,0x38(%rsp)
    33f1:	31 c0                	xor    %eax,%eax
  int i, j;
  int fw;
  char s[30];
  unsigned int w2;

  if (w == 32) {
    33f3:	83 f9 20             	cmp    $0x20,%ecx
    33f6:	0f 85 a1 00 00 00    	jne    349d <jerasure_print_matrix+0xdd>
    w2 = (1 << w);
    sprintf(s, "%u", w2-1);
    fw = strlen(s);
  }

  for (i = 0; i < rows; i++) {
    33fc:	8b 44 24 04          	mov    0x4(%rsp),%eax
    3400:	85 c0                	test   %eax,%eax
    3402:	7e 7a                	jle    347e <jerasure_print_matrix+0xbe>
    3404:	c7 04 24 00 00 00 00 	movl   $0x0,(%rsp)
    340b:	45 31 ff             	xor    %r15d,%r15d
  return __printf_chk (__USE_FORTIFY_LEVEL - 1, __fmt, __va_arg_pack ());
    340e:	4c 8d 2d de 72 00 00 	lea    0x72de(%rip),%r13        # a6f3 <__PRETTY_FUNCTION__.5741+0x1a>
    3415:	0f 1f 00             	nopl   (%rax)
    for (j = 0; j < cols; j++) {
    3418:	45 85 f6             	test   %r14d,%r14d
    341b:	7e 49                	jle    3466 <jerasure_print_matrix+0xa6>
    341d:	48 63 14 24          	movslq (%rsp),%rdx
    3421:	48 8b 74 24 08       	mov    0x8(%rsp),%rsi
    3426:	41 8d 46 ff          	lea    -0x1(%r14),%eax
    342a:	48 01 d0             	add    %rdx,%rax
    342d:	48 8d 1c 96          	lea    (%rsi,%rdx,4),%rbx
    3431:	4c 8d 64 86 04       	lea    0x4(%rsi,%rax,4),%r12
    3436:	eb 12                	jmp    344a <jerasure_print_matrix+0x8a>
    3438:	0f 1f 84 00 00 00 00 	nopl   0x0(%rax,%rax,1)
    343f:	00 
    3440:	bf 20 00 00 00       	mov    $0x20,%edi
    3445:	e8 46 de ff ff       	callq  1290 <putchar@plt>
    344a:	8b 0b                	mov    (%rbx),%ecx
    344c:	89 ea                	mov    %ebp,%edx
    344e:	4c 89 ee             	mov    %r13,%rsi
    3451:	bf 01 00 00 00       	mov    $0x1,%edi
    3456:	31 c0                	xor    %eax,%eax
    3458:	48 83 c3 04          	add    $0x4,%rbx
    345c:	e8 cf df ff ff       	callq  1430 <__printf_chk@plt>
    3461:	4c 39 e3             	cmp    %r12,%rbx
    3464:	75 da                	jne    3440 <jerasure_print_matrix+0x80>
    3466:	bf 0a 00 00 00       	mov    $0xa,%edi
  for (i = 0; i < rows; i++) {
    346b:	41 ff c7             	inc    %r15d
    346e:	e8 1d de ff ff       	callq  1290 <putchar@plt>
    3473:	44 01 34 24          	add    %r14d,(%rsp)
    3477:	44 39 7c 24 04       	cmp    %r15d,0x4(%rsp)
    347c:	75 9a                	jne    3418 <jerasure_print_matrix+0x58>
      if (j != 0) printf(" ");
      printf("%*u", fw, m[i*cols+j]); 
    }
    printf("\n");
  }
}
    347e:	48 8b 44 24 38       	mov    0x38(%rsp),%rax
    3483:	64 48 33 04 25 28 00 	xor    %fs:0x28,%rax
    348a:	00 00 
    348c:	75 7d                	jne    350b <jerasure_print_matrix+0x14b>
    348e:	48 83 c4 48          	add    $0x48,%rsp
    3492:	5b                   	pop    %rbx
    3493:	5d                   	pop    %rbp
    3494:	41 5c                	pop    %r12
    3496:	41 5d                	pop    %r13
    3498:	41 5e                	pop    %r14
    349a:	41 5f                	pop    %r15
    349c:	c3                   	retq   
    w2 = (1 << w);
    349d:	b8 01 00 00 00       	mov    $0x1,%eax
  return __builtin___sprintf_chk (__s, __USE_FORTIFY_LEVEL - 1,
    34a2:	48 8d 5c 24 10       	lea    0x10(%rsp),%rbx
    34a7:	c4 e2 71 f7 c8       	shlx   %ecx,%eax,%ecx
    34ac:	ba 1e 00 00 00       	mov    $0x1e,%edx
    34b1:	44 8d 41 ff          	lea    -0x1(%rcx),%r8d
    34b5:	be 01 00 00 00       	mov    $0x1,%esi
    34ba:	48 8d 0d 2f 72 00 00 	lea    0x722f(%rip),%rcx        # a6f0 <__PRETTY_FUNCTION__.5741+0x17>
    34c1:	48 89 df             	mov    %rbx,%rdi
    34c4:	31 c0                	xor    %eax,%eax
    34c6:	e8 e5 df ff ff       	callq  14b0 <__sprintf_chk@plt>
    fw = strlen(s);
    34cb:	48 89 dd             	mov    %rbx,%rbp
    34ce:	8b 55 00             	mov    0x0(%rbp),%edx
    34d1:	48 83 c5 04          	add    $0x4,%rbp
    34d5:	8d 82 ff fe fe fe    	lea    -0x1010101(%rdx),%eax
    34db:	c4 e2 68 f2 c0       	andn   %eax,%edx,%eax
    34e0:	25 80 80 80 80       	and    $0x80808080,%eax
    34e5:	74 e7                	je     34ce <jerasure_print_matrix+0x10e>
    34e7:	89 c2                	mov    %eax,%edx
    34e9:	c1 ea 10             	shr    $0x10,%edx
    34ec:	a9 80 80 00 00       	test   $0x8080,%eax
    34f1:	0f 44 c2             	cmove  %edx,%eax
    34f4:	48 8d 55 02          	lea    0x2(%rbp),%rdx
    34f8:	48 0f 44 ea          	cmove  %rdx,%rbp
    34fc:	89 c1                	mov    %eax,%ecx
    34fe:	00 c1                	add    %al,%cl
    3500:	48 83 dd 03          	sbb    $0x3,%rbp
    3504:	29 dd                	sub    %ebx,%ebp
    3506:	e9 f1 fe ff ff       	jmpq   33fc <jerasure_print_matrix+0x3c>
}
    350b:	e8 00 de ff ff       	callq  1310 <__stack_chk_fail@plt>

0000000000003510 <jerasure_print_bitmatrix>:

void jerasure_print_bitmatrix(int *m, int rows, int cols, int w)
{
    3510:	f3 0f 1e fa          	endbr64 
    3514:	41 57                	push   %r15
    3516:	41 56                	push   %r14
    3518:	41 55                	push   %r13
    351a:	41 54                	push   %r12
    351c:	55                   	push   %rbp
    351d:	53                   	push   %rbx
    351e:	48 83 ec 28          	sub    $0x28,%rsp
    3522:	48 89 7c 24 18       	mov    %rdi,0x18(%rsp)
    3527:	89 74 24 14          	mov    %esi,0x14(%rsp)
    352b:	89 54 24 0c          	mov    %edx,0xc(%rsp)
  int i, j;

  for (i = 0; i < rows; i++) {
    352f:	85 f6                	test   %esi,%esi
    3531:	0f 8e c1 00 00 00    	jle    35f8 <jerasure_print_bitmatrix+0xe8>
    3537:	c7 44 24 10 00 00 00 	movl   $0x0,0x10(%rsp)
    353e:	00 
    353f:	44 8d 62 ff          	lea    -0x1(%rdx),%r12d
    3543:	89 cb                	mov    %ecx,%ebx
    3545:	45 31 f6             	xor    %r14d,%r14d
    3548:	49 ff c4             	inc    %r12
  return __printf_chk (__USE_FORTIFY_LEVEL - 1, __fmt, __va_arg_pack ());
    354b:	4c 8d 2d e5 6a 00 00 	lea    0x6ae5(%rip),%r13        # a037 <_IO_stdin_used+0x37>
    3552:	66 0f 1f 44 00 00    	nopw   0x0(%rax,%rax,1)
    if (i != 0 && i%w == 0) printf("\n");
    for (j = 0; j < cols; j++) {
    3558:	8b 44 24 0c          	mov    0xc(%rsp),%eax
    355c:	85 c0                	test   %eax,%eax
    355e:	7e 58                	jle    35b8 <jerasure_print_bitmatrix+0xa8>
    3560:	48 63 44 24 10       	movslq 0x10(%rsp),%rax
    3565:	48 8b 4c 24 18       	mov    0x18(%rsp),%rcx
      if (j != 0 && j%w == 0) printf(" ");
      printf("%d", m[i*cols+j]); 
    356a:	41 bf 01 00 00 00    	mov    $0x1,%r15d
    3570:	48 8d 2c 81          	lea    (%rcx,%rax,4),%rbp
    3574:	eb 0d                	jmp    3583 <jerasure_print_bitmatrix+0x73>
    3576:	66 2e 0f 1f 84 00 00 	nopw   %cs:0x0(%rax,%rax,1)
    357d:	00 00 00 
    3580:	49 ff c7             	inc    %r15
    3583:	42 8b 54 bd fc       	mov    -0x4(%rbp,%r15,4),%edx
    3588:	4c 89 ee             	mov    %r13,%rsi
    358b:	bf 01 00 00 00       	mov    $0x1,%edi
    3590:	31 c0                	xor    %eax,%eax
    3592:	e8 99 de ff ff       	callq  1430 <__printf_chk@plt>
    for (j = 0; j < cols; j++) {
    3597:	44 89 f8             	mov    %r15d,%eax
    359a:	4d 39 fc             	cmp    %r15,%r12
    359d:	74 19                	je     35b8 <jerasure_print_bitmatrix+0xa8>
      if (j != 0 && j%w == 0) printf(" ");
    359f:	99                   	cltd   
    35a0:	f7 fb                	idiv   %ebx
    35a2:	85 d2                	test   %edx,%edx
    35a4:	75 da                	jne    3580 <jerasure_print_bitmatrix+0x70>
    35a6:	bf 20 00 00 00       	mov    $0x20,%edi
    35ab:	e8 e0 dc ff ff       	callq  1290 <putchar@plt>
    35b0:	eb ce                	jmp    3580 <jerasure_print_bitmatrix+0x70>
    35b2:	66 0f 1f 44 00 00    	nopw   0x0(%rax,%rax,1)
    35b8:	bf 0a 00 00 00       	mov    $0xa,%edi
  for (i = 0; i < rows; i++) {
    35bd:	41 ff c6             	inc    %r14d
    35c0:	e8 cb dc ff ff       	callq  1290 <putchar@plt>
    35c5:	44 39 74 24 14       	cmp    %r14d,0x14(%rsp)
    35ca:	74 2c                	je     35f8 <jerasure_print_bitmatrix+0xe8>
    if (i != 0 && i%w == 0) printf("\n");
    35cc:	44 89 f0             	mov    %r14d,%eax
    35cf:	99                   	cltd   
    35d0:	f7 fb                	idiv   %ebx
    35d2:	85 d2                	test   %edx,%edx
    35d4:	74 12                	je     35e8 <jerasure_print_bitmatrix+0xd8>
    35d6:	8b 4c 24 0c          	mov    0xc(%rsp),%ecx
    35da:	01 4c 24 10          	add    %ecx,0x10(%rsp)
    35de:	e9 75 ff ff ff       	jmpq   3558 <jerasure_print_bitmatrix+0x48>
    35e3:	0f 1f 44 00 00       	nopl   0x0(%rax,%rax,1)
    35e8:	bf 0a 00 00 00       	mov    $0xa,%edi
    35ed:	e8 9e dc ff ff       	callq  1290 <putchar@plt>
    35f2:	eb e2                	jmp    35d6 <jerasure_print_bitmatrix+0xc6>
    35f4:	0f 1f 40 00          	nopl   0x0(%rax)
    }
    printf("\n");
  }
}
    35f8:	48 83 c4 28          	add    $0x28,%rsp
    35fc:	5b                   	pop    %rbx
    35fd:	5d                   	pop    %rbp
    35fe:	41 5c                	pop    %r12
    3600:	41 5d                	pop    %r13
    3602:	41 5e                	pop    %r14
    3604:	41 5f                	pop    %r15
    3606:	c3                   	retq   
    3607:	66 0f 1f 84 00 00 00 	nopw   0x0(%rax,%rax,1)
    360e:	00 00 

0000000000003610 <jerasure_matrix_to_bitmatrix>:
  return 0;
}


int *jerasure_matrix_to_bitmatrix(int k, int m, int w, int *matrix) 
{
    3610:	f3 0f 1e fa          	endbr64 
    3614:	41 57                	push   %r15
    3616:	41 89 f7             	mov    %esi,%r15d
    3619:	41 56                	push   %r14
    361b:	41 89 d6             	mov    %edx,%r14d
    361e:	41 55                	push   %r13
    3620:	41 54                	push   %r12
    3622:	55                   	push   %rbp
    3623:	48 89 cd             	mov    %rcx,%rbp
    3626:	53                   	push   %rbx
    3627:	89 fb                	mov    %edi,%ebx
    3629:	48 83 ec 68          	sub    $0x68,%rsp
    362d:	89 7c 24 40          	mov    %edi,0x40(%rsp)
  int *bitmatrix;
  int rowelts, rowindex, colindex, elt, i, j, l, x;

  bitmatrix = talloc(int, k*m*w*w);
    3631:	0f af fe             	imul   %esi,%edi
{
    3634:	89 74 24 58          	mov    %esi,0x58(%rsp)
    3638:	48 89 4c 24 50       	mov    %rcx,0x50(%rsp)
  bitmatrix = talloc(int, k*m*w*w);
    363d:	0f af fa             	imul   %edx,%edi
    3640:	0f af fa             	imul   %edx,%edi
    3643:	48 63 ff             	movslq %edi,%rdi
    3646:	48 c1 e7 02          	shl    $0x2,%rdi
    364a:	e8 b1 dd ff ff       	callq  1400 <malloc@plt>
    364f:	48 89 44 24 38       	mov    %rax,0x38(%rsp)
  if (matrix == NULL) { return NULL; }
    3654:	48 85 ed             	test   %rbp,%rbp
    3657:	0f 84 55 01 00 00    	je     37b2 <jerasure_matrix_to_bitmatrix+0x1a2>
    365d:	48 89 c7             	mov    %rax,%rdi

  rowelts = k * w;
    3660:	89 d8                	mov    %ebx,%eax
    3662:	41 0f af c6          	imul   %r14d,%eax
  rowindex = 0;

  for (i = 0; i < m; i++) {
    3666:	45 85 ff             	test   %r15d,%r15d
    3669:	0f 8e 2f 01 00 00    	jle    379e <jerasure_matrix_to_bitmatrix+0x18e>
        }
        elt = galois_single_multiply(elt, 2, w);
      }
      colindex += w;
    }
    rowindex += rowelts * w;
    366f:	89 c1                	mov    %eax,%ecx
    3671:	41 0f af ce          	imul   %r14d,%ecx
    3675:	48 98                	cltq   
    3677:	4d 63 ee             	movslq %r14d,%r13
    367a:	89 4c 24 44          	mov    %ecx,0x44(%rsp)
    367e:	48 63 c9             	movslq %ecx,%rcx
    3681:	48 c1 e1 02          	shl    $0x2,%rcx
    3685:	48 89 4c 24 48       	mov    %rcx,0x48(%rsp)
    368a:	4c 8d 3c 85 00 00 00 	lea    0x0(,%rax,4),%r15
    3691:	00 
    3692:	4a 8d 0c ad 00 00 00 	lea    0x0(,%r13,4),%rcx
    3699:	00 
    369a:	8d 43 ff             	lea    -0x1(%rbx),%eax
    369d:	48 89 7c 24 28       	mov    %rdi,0x28(%rsp)
    36a2:	48 89 4c 24 10       	mov    %rcx,0x10(%rsp)
    36a7:	c7 44 24 34 00 00 00 	movl   $0x0,0x34(%rsp)
    36ae:	00 
  for (i = 0; i < m; i++) {
    36af:	c7 44 24 24 00 00 00 	movl   $0x0,0x24(%rsp)
    36b6:	00 
  rowindex = 0;
    36b7:	c7 44 24 30 00 00 00 	movl   $0x0,0x30(%rsp)
    36be:	00 
    36bf:	89 44 24 5c          	mov    %eax,0x5c(%rsp)
    for (j = 0; j < k; j++) {
    36c3:	8b 44 24 40          	mov    0x40(%rsp),%eax
    36c7:	85 c0                	test   %eax,%eax
    36c9:	0f 8e a3 00 00 00    	jle    3772 <jerasure_matrix_to_bitmatrix+0x162>
    36cf:	8b 44 24 30          	mov    0x30(%rsp),%eax
    36d3:	48 63 54 24 34       	movslq 0x34(%rsp),%rdx
    36d8:	42 8d 1c 30          	lea    (%rax,%r14,1),%ebx
    36dc:	8b 44 24 5c          	mov    0x5c(%rsp),%eax
    36e0:	48 8b 4c 24 50       	mov    0x50(%rsp),%rcx
    36e5:	48 01 d0             	add    %rdx,%rax
    36e8:	48 8d 44 81 04       	lea    0x4(%rcx,%rax,4),%rax
    36ed:	48 89 44 24 18       	mov    %rax,0x18(%rsp)
      elt = matrix[i*k+j];
    36f2:	48 8b 44 24 28       	mov    0x28(%rsp),%rax
    36f7:	48 8d 2c 91          	lea    (%rcx,%rdx,4),%rbp
    36fb:	48 89 44 24 08       	mov    %rax,0x8(%rsp)
    3700:	45 89 f5             	mov    %r14d,%r13d
    3703:	0f 1f 44 00 00       	nopl   0x0(%rax,%rax,1)
    3708:	8b 7d 00             	mov    0x0(%rbp),%edi
      for (x = 0; x < w; x++) {
    370b:	45 85 ed             	test   %r13d,%r13d
    370e:	7e 47                	jle    3757 <jerasure_matrix_to_bitmatrix+0x147>
    3710:	41 89 dc             	mov    %ebx,%r12d
    3713:	4c 8b 74 24 08       	mov    0x8(%rsp),%r14
    3718:	45 29 ec             	sub    %r13d,%r12d
    371b:	0f 1f 44 00 00       	nopl   0x0(%rax,%rax,1)
      elt = matrix[i*k+j];
    3720:	4c 89 f6             	mov    %r14,%rsi
        for (l = 0; l < w; l++) {
    3723:	31 d2                	xor    %edx,%edx
    3725:	0f 1f 00             	nopl   (%rax)
          bitmatrix[colindex+x+l*rowelts] = ((elt & (1 << l)) ? 1 : 0);
    3728:	c4 e2 6a f7 c7       	sarx   %edx,%edi,%eax
        for (l = 0; l < w; l++) {
    372d:	ff c2                	inc    %edx
          bitmatrix[colindex+x+l*rowelts] = ((elt & (1 << l)) ? 1 : 0);
    372f:	83 e0 01             	and    $0x1,%eax
    3732:	89 06                	mov    %eax,(%rsi)
        for (l = 0; l < w; l++) {
    3734:	4c 01 fe             	add    %r15,%rsi
    3737:	41 39 d5             	cmp    %edx,%r13d
    373a:	75 ec                	jne    3728 <jerasure_matrix_to_bitmatrix+0x118>
        elt = galois_single_multiply(elt, 2, w);
    373c:	44 89 ea             	mov    %r13d,%edx
    373f:	be 02 00 00 00       	mov    $0x2,%esi
    3744:	e8 17 4f 00 00       	callq  8660 <galois_single_multiply>
    3749:	41 ff c4             	inc    %r12d
    374c:	89 c7                	mov    %eax,%edi
      for (x = 0; x < w; x++) {
    374e:	49 83 c6 04          	add    $0x4,%r14
    3752:	44 39 e3             	cmp    %r12d,%ebx
    3755:	75 c9                	jne    3720 <jerasure_matrix_to_bitmatrix+0x110>
    for (j = 0; j < k; j++) {
    3757:	48 8b 4c 24 10       	mov    0x10(%rsp),%rcx
    375c:	48 83 c5 04          	add    $0x4,%rbp
    3760:	48 01 4c 24 08       	add    %rcx,0x8(%rsp)
    3765:	44 01 eb             	add    %r13d,%ebx
    3768:	48 3b 6c 24 18       	cmp    0x18(%rsp),%rbp
    376d:	75 99                	jne    3708 <jerasure_matrix_to_bitmatrix+0xf8>
    376f:	45 89 ee             	mov    %r13d,%r14d
  for (i = 0; i < m; i++) {
    3772:	ff 44 24 24          	incl   0x24(%rsp)
    3776:	48 8b 5c 24 48       	mov    0x48(%rsp),%rbx
    rowindex += rowelts * w;
    377b:	8b 4c 24 44          	mov    0x44(%rsp),%ecx
    377f:	48 01 5c 24 28       	add    %rbx,0x28(%rsp)
  for (i = 0; i < m; i++) {
    3784:	8b 44 24 24          	mov    0x24(%rsp),%eax
    3788:	8b 5c 24 40          	mov    0x40(%rsp),%ebx
    rowindex += rowelts * w;
    378c:	01 4c 24 30          	add    %ecx,0x30(%rsp)
    3790:	01 5c 24 34          	add    %ebx,0x34(%rsp)
  for (i = 0; i < m; i++) {
    3794:	39 44 24 58          	cmp    %eax,0x58(%rsp)
    3798:	0f 85 25 ff ff ff    	jne    36c3 <jerasure_matrix_to_bitmatrix+0xb3>
  }
  return bitmatrix;
}
    379e:	48 8b 44 24 38       	mov    0x38(%rsp),%rax
    37a3:	48 83 c4 68          	add    $0x68,%rsp
    37a7:	5b                   	pop    %rbx
    37a8:	5d                   	pop    %rbp
    37a9:	41 5c                	pop    %r12
    37ab:	41 5d                	pop    %r13
    37ad:	41 5e                	pop    %r14
    37af:	41 5f                	pop    %r15
    37b1:	c3                   	retq   
  if (matrix == NULL) { return NULL; }
    37b2:	48 c7 44 24 38 00 00 	movq   $0x0,0x38(%rsp)
    37b9:	00 00 
    37bb:	eb e1                	jmp    379e <jerasure_matrix_to_bitmatrix+0x18e>
    37bd:	0f 1f 00             	nopl   (%rax)

00000000000037c0 <jerasure_bitmatrix_dotprod>:
}

void jerasure_bitmatrix_dotprod(int k, int w, int *bitmatrix_row,
                             int *src_ids, int dest_id,
                             char **data_ptrs, char **coding_ptrs, int size, int packetsize)
{
    37c0:	f3 0f 1e fa          	endbr64 
    37c4:	41 57                	push   %r15
    37c6:	89 f0                	mov    %esi,%eax
    37c8:	41 56                	push   %r14
    37ca:	41 55                	push   %r13
    37cc:	41 54                	push   %r12
    37ce:	55                   	push   %rbp
    37cf:	53                   	push   %rbx
    37d0:	48 81 ec 88 00 00 00 	sub    $0x88,%rsp
    37d7:	44 8b ac 24 d0 00 00 	mov    0xd0(%rsp),%r13d
    37de:	00 
    37df:	48 89 4c 24 20       	mov    %rcx,0x20(%rsp)
  int j, sindex, pstarted, index, x, y;
  char *dptr, *pptr, *bdptr, *bpptr;

  if (size%(w*packetsize) != 0) {
    37e4:	41 0f af c5          	imul   %r13d,%eax
{
    37e8:	48 89 54 24 30       	mov    %rdx,0x30(%rsp)
    37ed:	89 7c 24 40          	mov    %edi,0x40(%rsp)
  if (size%(w*packetsize) != 0) {
    37f1:	89 c1                	mov    %eax,%ecx
    37f3:	89 44 24 6c          	mov    %eax,0x6c(%rsp)
    37f7:	8b 84 24 c8 00 00 00 	mov    0xc8(%rsp),%eax
{
    37fe:	89 74 24 2c          	mov    %esi,0x2c(%rsp)
  if (size%(w*packetsize) != 0) {
    3802:	99                   	cltd   
    3803:	f7 f9                	idiv   %ecx
{
    3805:	4c 89 4c 24 50       	mov    %r9,0x50(%rsp)
  if (size%(w*packetsize) != 0) {
    380a:	85 d2                	test   %edx,%edx
    380c:	0f 85 d1 02 00 00    	jne    3ae3 <jerasure_bitmatrix_dotprod+0x323>
    3812:	49 63 f0             	movslq %r8d,%rsi
    fprintf(stderr, "jerasure_bitmatrix_dotprod - size%c(w*packetsize)) must = 0\n", '%');
    exit(1);
  }

  bpptr = (dest_id < k) ? data_ptrs[dest_id] : coding_ptrs[dest_id-k];
    3815:	3b 74 24 40          	cmp    0x40(%rsp),%esi
    3819:	0f 8c 1d 02 00 00    	jl     3a3c <jerasure_bitmatrix_dotprod+0x27c>
    381f:	89 f0                	mov    %esi,%eax
    3821:	48 8b bc 24 c0 00 00 	mov    0xc0(%rsp),%rdi
    3828:	00 
    3829:	2b 44 24 40          	sub    0x40(%rsp),%eax
    382d:	48 98                	cltq   
    382f:	48 8b 04 c7          	mov    (%rdi,%rax,8),%rax

  for (sindex = 0; sindex < size; sindex += (packetsize*w)) {
    3833:	8b b4 24 c8 00 00 00 	mov    0xc8(%rsp),%esi
  bpptr = (dest_id < k) ? data_ptrs[dest_id] : coding_ptrs[dest_id-k];
    383a:	48 89 44 24 70       	mov    %rax,0x70(%rsp)
  for (sindex = 0; sindex < size; sindex += (packetsize*w)) {
    383f:	85 f6                	test   %esi,%esi
    3841:	0f 8e 12 02 00 00    	jle    3a59 <jerasure_bitmatrix_dotprod+0x299>
    3847:	48 63 44 24 6c       	movslq 0x6c(%rsp),%rax
    384c:	c7 44 24 68 00 00 00 	movl   $0x0,0x68(%rsp)
    3853:	00 
    3854:	48 89 44 24 78       	mov    %rax,0x78(%rsp)
    3859:	8b 44 24 40          	mov    0x40(%rsp),%eax
    385d:	48 c7 44 24 08 00 00 	movq   $0x0,0x8(%rsp)
    3864:	00 00 
    3866:	ff c8                	dec    %eax
    3868:	89 44 24 60          	mov    %eax,0x60(%rsp)
    386c:	0f af 44 24 2c       	imul   0x2c(%rsp),%eax
    3871:	45 89 ef             	mov    %r13d,%r15d
    3874:	89 44 24 64          	mov    %eax,0x64(%rsp)
    index = 0;
    for (j = 0; j < w; j++) {
    3878:	8b 44 24 2c          	mov    0x2c(%rsp),%eax
    387c:	85 c0                	test   %eax,%eax
    387e:	0f 8e 37 02 00 00    	jle    3abb <jerasure_bitmatrix_dotprod+0x2fb>
    3884:	49 63 c7             	movslq %r15d,%rax
    3887:	4c 8b 74 24 70       	mov    0x70(%rsp),%r14
    388c:	48 89 44 24 18       	mov    %rax,0x18(%rsp)
    index = 0;
    3891:	c7 44 24 5c 00 00 00 	movl   $0x0,0x5c(%rsp)
    3898:	00 
    for (j = 0; j < w; j++) {
    3899:	c7 44 24 58 00 00 00 	movl   $0x0,0x58(%rsp)
    38a0:	00 
    38a1:	4c 03 74 24 08       	add    0x8(%rsp),%r14
    38a6:	45 89 fc             	mov    %r15d,%r12d
    38a9:	0f 1f 80 00 00 00 00 	nopl   0x0(%rax)
      pstarted = 0;
      pptr = bpptr + sindex + j*packetsize;
      for (x = 0; x < k; x++) {
    38b0:	8b 4c 24 40          	mov    0x40(%rsp),%ecx
    38b4:	85 c9                	test   %ecx,%ecx
    38b6:	0f 8e e5 01 00 00    	jle    3aa1 <jerasure_bitmatrix_dotprod+0x2e1>
    38bc:	8b 44 24 60          	mov    0x60(%rsp),%eax
      pstarted = 0;
    38c0:	45 31 ff             	xor    %r15d,%r15d
    38c3:	48 89 44 24 38       	mov    %rax,0x38(%rsp)
      for (x = 0; x < k; x++) {
    38c8:	8b 44 24 5c          	mov    0x5c(%rsp),%eax
    38cc:	45 89 e5             	mov    %r12d,%r13d
    38cf:	89 44 24 28          	mov    %eax,0x28(%rsp)
    38d3:	8b 44 24 2c          	mov    0x2c(%rsp),%eax
    38d7:	48 c7 44 24 10 00 00 	movq   $0x0,0x10(%rsp)
    38de:	00 00 
    38e0:	ff c8                	dec    %eax
    38e2:	89 44 24 44          	mov    %eax,0x44(%rsp)
    38e6:	48 8b 44 24 30       	mov    0x30(%rsp),%rax
    38eb:	45 89 fc             	mov    %r15d,%r12d
        if (src_ids == NULL) {
    38ee:	48 83 c0 04          	add    $0x4,%rax
    38f2:	48 83 7c 24 20 00    	cmpq   $0x0,0x20(%rsp)
    38f8:	48 89 44 24 48       	mov    %rax,0x48(%rsp)
    38fd:	0f 84 22 01 00 00    	je     3a25 <jerasure_bitmatrix_dotprod+0x265>
    3903:	0f 1f 44 00 00       	nopl   0x0(%rax,%rax,1)
          bdptr = data_ptrs[x];
        } else if (src_ids[x] < k) {
    3908:	48 8b 44 24 20       	mov    0x20(%rsp),%rax
    390d:	48 8b 7c 24 10       	mov    0x10(%rsp),%rdi
    3912:	48 63 14 b8          	movslq (%rax,%rdi,4),%rdx
    3916:	3b 54 24 40          	cmp    0x40(%rsp),%edx
    391a:	0f 8d 50 01 00 00    	jge    3a70 <jerasure_bitmatrix_dotprod+0x2b0>
          bdptr = data_ptrs[src_ids[x]];
    3920:	48 8b 44 24 50       	mov    0x50(%rsp),%rax
    3925:	48 8b 04 d0          	mov    (%rax,%rdx,8),%rax
    3929:	48 89 04 24          	mov    %rax,(%rsp)
        } else {
          bdptr = coding_ptrs[src_ids[x]-k];
        }
        for (y = 0; y < w; y++) {
    392d:	48 63 74 24 28       	movslq 0x28(%rsp),%rsi
    3932:	48 8b 44 24 30       	mov    0x30(%rsp),%rax
    3937:	44 89 ac 24 d0 00 00 	mov    %r13d,0xd0(%rsp)
    393e:	00 
    393f:	8b 54 24 44          	mov    0x44(%rsp),%edx
    3943:	48 8d 2c b0          	lea    (%rax,%rsi,4),%rbp
    3947:	48 8b 44 24 48       	mov    0x48(%rsp),%rax
    394c:	45 31 ff             	xor    %r15d,%r15d
    394f:	48 01 f2             	add    %rsi,%rdx
    3952:	45 89 e5             	mov    %r12d,%r13d
    3955:	48 8d 1c 90          	lea    (%rax,%rdx,4),%rbx
    3959:	4d 89 f4             	mov    %r14,%r12
    395c:	45 89 fe             	mov    %r15d,%r14d
    395f:	44 8b bc 24 d0 00 00 	mov    0xd0(%rsp),%r15d
    3966:	00 
    3967:	eb 3f                	jmp    39a8 <jerasure_bitmatrix_dotprod+0x1e8>
    3969:	0f 1f 80 00 00 00 00 	nopl   0x0(%rax)
  return __builtin___memcpy_chk (__dest, __src, __len, __bos0 (__dest));
    3970:	48 8b 54 24 18       	mov    0x18(%rsp),%rdx
    3975:	4c 89 e7             	mov    %r12,%rdi
    3978:	e8 43 da ff ff       	callq  13c0 <memcpy@plt>
          if (bitmatrix_row[index]) {
            dptr = bdptr + sindex + y*packetsize;
            if (!pstarted) {
              memcpy(pptr, dptr, packetsize);
              jerasure_total_memcpy_bytes += packetsize;
    397d:	c5 f1 57 c9          	vxorpd %xmm1,%xmm1,%xmm1
    3981:	c4 c1 73 2a c7       	vcvtsi2sd %r15d,%xmm1,%xmm0
              pstarted = 1;
    3986:	41 bd 01 00 00 00    	mov    $0x1,%r13d
              jerasure_total_memcpy_bytes += packetsize;
    398c:	c5 fb 58 05 bc d7 00 	vaddsd 0xd7bc(%rip),%xmm0,%xmm0        # 11150 <jerasure_total_memcpy_bytes>
    3993:	00 
    3994:	c5 fb 11 05 b4 d7 00 	vmovsd %xmm0,0xd7b4(%rip)        # 11150 <jerasure_total_memcpy_bytes>
    399b:	00 
        for (y = 0; y < w; y++) {
    399c:	48 83 c5 04          	add    $0x4,%rbp
    39a0:	45 01 fe             	add    %r15d,%r14d
    39a3:	48 39 dd             	cmp    %rbx,%rbp
    39a6:	74 4b                	je     39f3 <jerasure_bitmatrix_dotprod+0x233>
          if (bitmatrix_row[index]) {
    39a8:	8b 55 00             	mov    0x0(%rbp),%edx
    39ab:	85 d2                	test   %edx,%edx
    39ad:	74 ed                	je     399c <jerasure_bitmatrix_dotprod+0x1dc>
            dptr = bdptr + sindex + y*packetsize;
    39af:	49 63 f6             	movslq %r14d,%rsi
    39b2:	48 03 74 24 08       	add    0x8(%rsp),%rsi
    39b7:	48 03 34 24          	add    (%rsp),%rsi
            if (!pstarted) {
    39bb:	45 85 ed             	test   %r13d,%r13d
    39be:	74 b0                	je     3970 <jerasure_bitmatrix_dotprod+0x1b0>
            } else {
              galois_region_xor(pptr, dptr, pptr, packetsize);
    39c0:	44 89 f9             	mov    %r15d,%ecx
    39c3:	4c 89 e2             	mov    %r12,%rdx
    39c6:	4c 89 e7             	mov    %r12,%rdi
    39c9:	e8 52 47 00 00       	callq  8120 <galois_region_xor>
              jerasure_total_xor_bytes += packetsize;
    39ce:	c5 e9 57 d2          	vxorpd %xmm2,%xmm2,%xmm2
    39d2:	c4 c1 6b 2a c7       	vcvtsi2sd %r15d,%xmm2,%xmm0
    39d7:	48 83 c5 04          	add    $0x4,%rbp
    39db:	45 01 fe             	add    %r15d,%r14d
    39de:	c5 fb 58 05 7a d7 00 	vaddsd 0xd77a(%rip),%xmm0,%xmm0        # 11160 <jerasure_total_xor_bytes>
    39e5:	00 
    39e6:	c5 fb 11 05 72 d7 00 	vmovsd %xmm0,0xd772(%rip)        # 11160 <jerasure_total_xor_bytes>
    39ed:	00 
        for (y = 0; y < w; y++) {
    39ee:	48 39 dd             	cmp    %rbx,%rbp
    39f1:	75 b5                	jne    39a8 <jerasure_bitmatrix_dotprod+0x1e8>
      for (x = 0; x < k; x++) {
    39f3:	8b 4c 24 2c          	mov    0x2c(%rsp),%ecx
    39f7:	48 8b 44 24 10       	mov    0x10(%rsp),%rax
    39fc:	4d 89 e6             	mov    %r12,%r14
    39ff:	01 4c 24 28          	add    %ecx,0x28(%rsp)
    3a03:	45 89 ec             	mov    %r13d,%r12d
    3a06:	48 8d 50 01          	lea    0x1(%rax),%rdx
    3a0a:	45 89 fd             	mov    %r15d,%r13d
    3a0d:	48 3b 44 24 38       	cmp    0x38(%rsp),%rax
    3a12:	74 7c                	je     3a90 <jerasure_bitmatrix_dotprod+0x2d0>
        if (src_ids == NULL) {
    3a14:	48 83 7c 24 20 00    	cmpq   $0x0,0x20(%rsp)
    3a1a:	48 89 54 24 10       	mov    %rdx,0x10(%rsp)
    3a1f:	0f 85 e3 fe ff ff    	jne    3908 <jerasure_bitmatrix_dotprod+0x148>
          bdptr = data_ptrs[x];
    3a25:	48 8b 44 24 50       	mov    0x50(%rsp),%rax
    3a2a:	48 8b 7c 24 10       	mov    0x10(%rsp),%rdi
    3a2f:	48 8b 04 f8          	mov    (%rax,%rdi,8),%rax
    3a33:	48 89 04 24          	mov    %rax,(%rsp)
    3a37:	e9 f1 fe ff ff       	jmpq   392d <jerasure_bitmatrix_dotprod+0x16d>
  bpptr = (dest_id < k) ? data_ptrs[dest_id] : coding_ptrs[dest_id-k];
    3a3c:	48 8b 44 24 50       	mov    0x50(%rsp),%rax
    3a41:	48 8b 04 f0          	mov    (%rax,%rsi,8),%rax
  for (sindex = 0; sindex < size; sindex += (packetsize*w)) {
    3a45:	8b b4 24 c8 00 00 00 	mov    0xc8(%rsp),%esi
  bpptr = (dest_id < k) ? data_ptrs[dest_id] : coding_ptrs[dest_id-k];
    3a4c:	48 89 44 24 70       	mov    %rax,0x70(%rsp)
  for (sindex = 0; sindex < size; sindex += (packetsize*w)) {
    3a51:	85 f6                	test   %esi,%esi
    3a53:	0f 8f ee fd ff ff    	jg     3847 <jerasure_bitmatrix_dotprod+0x87>
          index++;
        }
      }
    }
  }
}
    3a59:	48 81 c4 88 00 00 00 	add    $0x88,%rsp
    3a60:	5b                   	pop    %rbx
    3a61:	5d                   	pop    %rbp
    3a62:	41 5c                	pop    %r12
    3a64:	41 5d                	pop    %r13
    3a66:	41 5e                	pop    %r14
    3a68:	41 5f                	pop    %r15
    3a6a:	c3                   	retq   
    3a6b:	0f 1f 44 00 00       	nopl   0x0(%rax,%rax,1)
          bdptr = coding_ptrs[src_ids[x]-k];
    3a70:	48 8b 84 24 c0 00 00 	mov    0xc0(%rsp),%rax
    3a77:	00 
    3a78:	2b 54 24 40          	sub    0x40(%rsp),%edx
    3a7c:	48 63 d2             	movslq %edx,%rdx
    3a7f:	48 8b 04 d0          	mov    (%rax,%rdx,8),%rax
    3a83:	48 89 04 24          	mov    %rax,(%rsp)
    3a87:	e9 a1 fe ff ff       	jmpq   392d <jerasure_bitmatrix_dotprod+0x16d>
    3a8c:	0f 1f 40 00          	nopl   0x0(%rax)
    3a90:	8b 44 24 5c          	mov    0x5c(%rsp),%eax
    3a94:	45 89 fc             	mov    %r15d,%r12d
    3a97:	01 c8                	add    %ecx,%eax
    3a99:	03 44 24 64          	add    0x64(%rsp),%eax
    3a9d:	89 44 24 5c          	mov    %eax,0x5c(%rsp)
    for (j = 0; j < w; j++) {
    3aa1:	ff 44 24 58          	incl   0x58(%rsp)
    3aa5:	4c 03 74 24 18       	add    0x18(%rsp),%r14
    3aaa:	8b 44 24 58          	mov    0x58(%rsp),%eax
    3aae:	39 44 24 2c          	cmp    %eax,0x2c(%rsp)
    3ab2:	0f 85 f8 fd ff ff    	jne    38b0 <jerasure_bitmatrix_dotprod+0xf0>
    3ab8:	45 89 e7             	mov    %r12d,%r15d
  for (sindex = 0; sindex < size; sindex += (packetsize*w)) {
    3abb:	8b 7c 24 6c          	mov    0x6c(%rsp),%edi
    3abf:	48 8b 4c 24 78       	mov    0x78(%rsp),%rcx
    3ac4:	01 7c 24 68          	add    %edi,0x68(%rsp)
    3ac8:	48 01 4c 24 08       	add    %rcx,0x8(%rsp)
    3acd:	8b 44 24 68          	mov    0x68(%rsp),%eax
    3ad1:	39 84 24 c8 00 00 00 	cmp    %eax,0xc8(%rsp)
    3ad8:	0f 8f 9a fd ff ff    	jg     3878 <jerasure_bitmatrix_dotprod+0xb8>
    3ade:	e9 76 ff ff ff       	jmpq   3a59 <jerasure_bitmatrix_dotprod+0x299>
  return __fprintf_chk (__stream, __USE_FORTIFY_LEVEL - 1, __fmt,
    3ae3:	48 8b 3d 56 d6 00 00 	mov    0xd656(%rip),%rdi        # 11140 <stderr@@GLIBC_2.2.5>
    3aea:	b9 25 00 00 00       	mov    $0x25,%ecx
    3aef:	48 8d 15 02 6c 00 00 	lea    0x6c02(%rip),%rdx        # a6f8 <__PRETTY_FUNCTION__.5741+0x1f>
    3af6:	be 01 00 00 00       	mov    $0x1,%esi
    3afb:	31 c0                	xor    %eax,%eax
    3afd:	e8 7e d9 ff ff       	callq  1480 <__fprintf_chk@plt>
    exit(1);
    3b02:	bf 01 00 00 00       	mov    $0x1,%edi
    3b07:	e8 54 d9 ff ff       	callq  1460 <exit@plt>
    3b0c:	0f 1f 40 00          	nopl   0x0(%rax)

0000000000003b10 <jerasure_do_parity>:

void jerasure_do_parity(int k, char **data_ptrs, char *parity_ptr, int size) 
{
    3b10:	f3 0f 1e fa          	endbr64 
    3b14:	41 56                	push   %r14
    3b16:	41 89 fe             	mov    %edi,%r14d
    3b19:	41 55                	push   %r13
    3b1b:	49 89 f5             	mov    %rsi,%r13
    3b1e:	41 54                	push   %r12
    3b20:	55                   	push   %rbp
    3b21:	48 89 d5             	mov    %rdx,%rbp
    3b24:	48 89 ef             	mov    %rbp,%rdi
    3b27:	53                   	push   %rbx
    3b28:	48 63 d1             	movslq %ecx,%rdx
    3b2b:	49 89 d4             	mov    %rdx,%r12
    3b2e:	48 83 ec 10          	sub    $0x10,%rsp
    3b32:	48 8b 36             	mov    (%rsi),%rsi
    3b35:	e8 86 d8 ff ff       	callq  13c0 <memcpy@plt>
  int i;

  memcpy(parity_ptr, data_ptrs[0], size);
  jerasure_total_memcpy_bytes += size;
    3b3a:	c5 f8 57 c0          	vxorps %xmm0,%xmm0,%xmm0
    3b3e:	c4 c1 7b 2a c4       	vcvtsi2sd %r12d,%xmm0,%xmm0
    3b43:	c5 fb 11 44 24 08    	vmovsd %xmm0,0x8(%rsp)
    3b49:	c5 fb 58 05 ff d5 00 	vaddsd 0xd5ff(%rip),%xmm0,%xmm0        # 11150 <jerasure_total_memcpy_bytes>
    3b50:	00 
    3b51:	c5 fb 11 05 f7 d5 00 	vmovsd %xmm0,0xd5f7(%rip)        # 11150 <jerasure_total_memcpy_bytes>
    3b58:	00 
  
  for (i = 1; i < k; i++) {
    3b59:	41 83 fe 01          	cmp    $0x1,%r14d
    3b5d:	7e 41                	jle    3ba0 <jerasure_do_parity+0x90>
    3b5f:	41 8d 46 fe          	lea    -0x2(%r14),%eax
    3b63:	49 8d 5d 08          	lea    0x8(%r13),%rbx
    3b67:	4d 8d 6c c5 10       	lea    0x10(%r13,%rax,8),%r13
    3b6c:	0f 1f 40 00          	nopl   0x0(%rax)
    galois_region_xor(data_ptrs[i], parity_ptr, parity_ptr, size);
    3b70:	48 8b 3b             	mov    (%rbx),%rdi
    3b73:	44 89 e1             	mov    %r12d,%ecx
    3b76:	48 89 ea             	mov    %rbp,%rdx
    3b79:	48 89 ee             	mov    %rbp,%rsi
    3b7c:	e8 9f 45 00 00       	callq  8120 <galois_region_xor>
    jerasure_total_xor_bytes += size;
    3b81:	c5 fb 10 4c 24 08    	vmovsd 0x8(%rsp),%xmm1
    3b87:	48 83 c3 08          	add    $0x8,%rbx
    3b8b:	c5 f3 58 05 cd d5 00 	vaddsd 0xd5cd(%rip),%xmm1,%xmm0        # 11160 <jerasure_total_xor_bytes>
    3b92:	00 
    3b93:	c5 fb 11 05 c5 d5 00 	vmovsd %xmm0,0xd5c5(%rip)        # 11160 <jerasure_total_xor_bytes>
    3b9a:	00 
  for (i = 1; i < k; i++) {
    3b9b:	4c 39 eb             	cmp    %r13,%rbx
    3b9e:	75 d0                	jne    3b70 <jerasure_do_parity+0x60>
  }
}
    3ba0:	48 83 c4 10          	add    $0x10,%rsp
    3ba4:	5b                   	pop    %rbx
    3ba5:	5d                   	pop    %rbp
    3ba6:	41 5c                	pop    %r12
    3ba8:	41 5d                	pop    %r13
    3baa:	41 5e                	pop    %r14
    3bac:	c3                   	retq   
    3bad:	0f 1f 00             	nopl   (%rax)

0000000000003bb0 <jerasure_invert_matrix>:

int jerasure_invert_matrix(int *mat, int *inv, int rows, int w)
{
    3bb0:	f3 0f 1e fa          	endbr64 
    3bb4:	41 57                	push   %r15
    3bb6:	41 56                	push   %r14
    3bb8:	41 55                	push   %r13
    3bba:	41 54                	push   %r12
    3bbc:	55                   	push   %rbp
    3bbd:	48 89 f5             	mov    %rsi,%rbp
  int row_start, tmp, inverse;
 
  cols = rows;

  k = 0;
  for (i = 0; i < rows; i++) {
    3bc0:	8d 72 ff             	lea    -0x1(%rdx),%esi
{
    3bc3:	53                   	push   %rbx
    3bc4:	89 cb                	mov    %ecx,%ebx
    3bc6:	48 81 ec a8 00 00 00 	sub    $0xa8,%rsp
    3bcd:	89 54 24 30          	mov    %edx,0x30(%rsp)
  for (i = 0; i < rows; i++) {
    3bd1:	c7 44 24 38 00 00 00 	movl   $0x0,0x38(%rsp)
    3bd8:	00 
    3bd9:	89 b4 24 9c 00 00 00 	mov    %esi,0x9c(%rsp)
    3be0:	85 d2                	test   %edx,%edx
    3be2:	0f 8e af 04 00 00    	jle    4097 <jerasure_invert_matrix+0x4e7>
    3be8:	44 8b 4c 24 30       	mov    0x30(%rsp),%r9d
    3bed:	49 89 fe             	mov    %rdi,%r14
    3bf0:	31 c9                	xor    %ecx,%ecx
    3bf2:	31 ff                	xor    %edi,%edi
    3bf4:	0f 1f 40 00          	nopl   0x0(%rax)
    for (j = 0; j < cols; j++) {
    3bf8:	48 63 c7             	movslq %edi,%rax
    3bfb:	4c 8d 44 85 00       	lea    0x0(%rbp,%rax,4),%r8
{
    3c00:	31 c0                	xor    %eax,%eax
    3c02:	66 0f 1f 44 00 00    	nopw   0x0(%rax,%rax,1)
      inv[k] = (i == j) ? 1 : 0;
    3c08:	31 d2                	xor    %edx,%edx
    3c0a:	39 c1                	cmp    %eax,%ecx
    3c0c:	0f 94 c2             	sete   %dl
    3c0f:	41 89 14 80          	mov    %edx,(%r8,%rax,4)
    for (j = 0; j < cols; j++) {
    3c13:	48 89 c2             	mov    %rax,%rdx
    3c16:	48 ff c0             	inc    %rax
    3c19:	48 39 f2             	cmp    %rsi,%rdx
    3c1c:	75 ea                	jne    3c08 <jerasure_invert_matrix+0x58>
  for (i = 0; i < rows; i++) {
    3c1e:	8d 41 01             	lea    0x1(%rcx),%eax
    3c21:	44 01 cf             	add    %r9d,%edi
    3c24:	41 39 c1             	cmp    %eax,%r9d
    3c27:	74 04                	je     3c2d <jerasure_invert_matrix+0x7d>
    3c29:	89 c1                	mov    %eax,%ecx
    3c2b:	eb cb                	jmp    3bf8 <jerasure_invert_matrix+0x48>
    3c2d:	89 84 24 98 00 00 00 	mov    %eax,0x98(%rsp)
    3c34:	48 63 44 24 30       	movslq 0x30(%rsp),%rax
    3c39:	89 4c 24 38          	mov    %ecx,0x38(%rsp)
    3c3d:	48 8d 3c 85 04 00 00 	lea    0x4(,%rax,4),%rdi
    3c44:	00 
    3c45:	48 89 44 24 40       	mov    %rax,0x40(%rsp)
    3c4a:	48 c1 e0 02          	shl    $0x2,%rax
    3c4e:	48 89 44 24 28       	mov    %rax,0x28(%rsp)
    3c53:	89 c8                	mov    %ecx,%eax
    3c55:	49 8d 4e 04          	lea    0x4(%r14),%rcx
    3c59:	48 89 44 24 58       	mov    %rax,0x58(%rsp)
    3c5e:	48 89 8c 24 88 00 00 	mov    %rcx,0x88(%rsp)
    3c65:	00 
    3c66:	48 8d 0c 81          	lea    (%rcx,%rax,4),%rcx
    3c6a:	48 ff c0             	inc    %rax
    3c6d:	48 89 bc 24 90 00 00 	mov    %rdi,0x90(%rsp)
    3c74:	00 
    3c75:	48 89 8c 24 80 00 00 	mov    %rcx,0x80(%rsp)
    3c7c:	00 
    3c7d:	48 89 44 24 70       	mov    %rax,0x70(%rsp)
    3c82:	4c 89 74 24 60       	mov    %r14,0x60(%rsp)
    3c87:	48 c7 44 24 50 00 00 	movq   $0x0,0x50(%rsp)
    3c8e:	00 00 
    3c90:	48 c7 44 24 78 00 00 	movq   $0x0,0x78(%rsp)
    3c97:	00 00 
    3c99:	c7 44 24 6c 00 00 00 	movl   $0x0,0x6c(%rsp)
    3ca0:	00 
    3ca1:	48 c7 44 24 48 00 00 	movq   $0x0,0x48(%rsp)
    3ca8:	00 00 
    3caa:	49 89 ef             	mov    %rbp,%r15
    3cad:	0f 1f 00             	nopl   (%rax)
    row_start = cols*i;

    /* Swap rows if we ave a zero i,i element.  If we can't swap, then the 
       matrix was not invertible  */

    if (mat[row_start+i] == 0) { 
    3cb0:	48 8b 44 24 60       	mov    0x60(%rsp),%rax
    3cb5:	8b 30                	mov    (%rax),%esi
    3cb7:	8b 44 24 48          	mov    0x48(%rsp),%eax
    3cbb:	ff c0                	inc    %eax
    3cbd:	89 44 24 18          	mov    %eax,0x18(%rsp)
    3cc1:	85 f6                	test   %esi,%esi
    3cc3:	0f 84 87 01 00 00    	je     3e50 <jerasure_invert_matrix+0x2a0>
      }
    }
 
    /* Multiply the row by 1/element i,i  */
    tmp = mat[row_start+i];
    if (tmp != 1) {
    3cc9:	83 fe 01             	cmp    $0x1,%esi
    3ccc:	0f 85 27 02 00 00    	jne    3ef9 <jerasure_invert_matrix+0x349>
      }
    }

    /* Now for each j>i, add A_ji*Ai to Aj  */
    k = row_start+i;
    for (j = i+1; j != cols; j++) {
    3cd2:	48 8b 4c 24 58       	mov    0x58(%rsp),%rcx
    3cd7:	48 39 4c 24 48       	cmp    %rcx,0x48(%rsp)
    3cdc:	0f 84 8a 02 00 00    	je     3f6c <jerasure_invert_matrix+0x3bc>
    3ce2:	8b 4c 24 30          	mov    0x30(%rsp),%ecx
    3ce6:	48 8b 44 24 60       	mov    0x60(%rsp),%rax
    3ceb:	01 4c 24 6c          	add    %ecx,0x6c(%rsp)
    3cef:	48 03 44 24 28       	add    0x28(%rsp),%rax
    3cf4:	48 89 44 24 10       	mov    %rax,0x10(%rsp)
    3cf9:	8b 44 24 6c          	mov    0x6c(%rsp),%eax
    3cfd:	89 44 24 20          	mov    %eax,0x20(%rsp)
    3d01:	4c 89 f8             	mov    %r15,%rax
    3d04:	4d 89 f7             	mov    %r14,%r15
    3d07:	49 89 c6             	mov    %rax,%r14
    3d0a:	66 0f 1f 44 00 00    	nopw   0x0(%rax,%rax,1)
      k += cols;
      if (mat[k] != 0) {
    3d10:	48 8b 44 24 10       	mov    0x10(%rsp),%rax
    3d15:	8b 28                	mov    (%rax),%ebp
    3d17:	85 ed                	test   %ebp,%ebp
    3d19:	74 5e                	je     3d79 <jerasure_invert_matrix+0x1c9>
        if (mat[k] == 1) {
    3d1b:	83 fd 01             	cmp    $0x1,%ebp
    3d1e:	0f 84 84 00 00 00    	je     3da8 <jerasure_invert_matrix+0x1f8>
    3d24:	48 63 44 24 20       	movslq 0x20(%rsp),%rax
    3d29:	4c 8b 64 24 50       	mov    0x50(%rsp),%r12
    3d2e:	4c 8d 2c 85 00 00 00 	lea    0x0(,%rax,4),%r13
    3d35:	00 
    3d36:	48 03 44 24 70       	add    0x70(%rsp),%rax
    3d3b:	48 c1 e0 02          	shl    $0x2,%rax
    3d3f:	48 89 44 24 08       	mov    %rax,0x8(%rsp)
    3d44:	0f 1f 40 00          	nopl   0x0(%rax)
          }
        } else {
          tmp = mat[k];
          rs2 = cols*j;
          for (x = 0; x < cols; x++) {
            mat[rs2+x] ^= galois_single_multiply(tmp, mat[row_start+x], w);
    3d48:	43 8b 34 27          	mov    (%r15,%r12,1),%esi
    3d4c:	89 da                	mov    %ebx,%edx
    3d4e:	89 ef                	mov    %ebp,%edi
    3d50:	e8 0b 49 00 00       	callq  8660 <galois_single_multiply>
    3d55:	43 31 04 2f          	xor    %eax,(%r15,%r13,1)
            inv[rs2+x] ^= galois_single_multiply(tmp, inv[row_start+x], w);
    3d59:	89 da                	mov    %ebx,%edx
    3d5b:	89 ef                	mov    %ebp,%edi
    3d5d:	43 8b 34 26          	mov    (%r14,%r12,1),%esi
    3d61:	49 83 c4 04          	add    $0x4,%r12
    3d65:	e8 f6 48 00 00       	callq  8660 <galois_single_multiply>
    3d6a:	43 31 04 2e          	xor    %eax,(%r14,%r13,1)
          for (x = 0; x < cols; x++) {
    3d6e:	49 83 c5 04          	add    $0x4,%r13
    3d72:	4c 3b 6c 24 08       	cmp    0x8(%rsp),%r13
    3d77:	75 cf                	jne    3d48 <jerasure_invert_matrix+0x198>
    for (j = i+1; j != cols; j++) {
    3d79:	48 8b 54 24 28       	mov    0x28(%rsp),%rdx
    3d7e:	8b 4c 24 18          	mov    0x18(%rsp),%ecx
    3d82:	48 01 54 24 10       	add    %rdx,0x10(%rsp)
    3d87:	8b 54 24 30          	mov    0x30(%rsp),%edx
    3d8b:	8d 41 01             	lea    0x1(%rcx),%eax
    3d8e:	01 54 24 20          	add    %edx,0x20(%rsp)
    3d92:	3b 4c 24 38          	cmp    0x38(%rsp),%ecx
    3d96:	74 68                	je     3e00 <jerasure_invert_matrix+0x250>
    3d98:	89 44 24 18          	mov    %eax,0x18(%rsp)
    3d9c:	e9 6f ff ff ff       	jmpq   3d10 <jerasure_invert_matrix+0x160>
    3da1:	0f 1f 80 00 00 00 00 	nopl   0x0(%rax)
    3da8:	48 63 4c 24 20       	movslq 0x20(%rsp),%rcx
    3dad:	48 8b 7c 24 58       	mov    0x58(%rsp),%rdi
    3db2:	48 8d 14 8d 00 00 00 	lea    0x0(,%rcx,4),%rdx
    3db9:	00 
    3dba:	48 8d 34 39          	lea    (%rcx,%rdi,1),%rsi
    3dbe:	48 8b bc 24 88 00 00 	mov    0x88(%rsp),%rdi
    3dc5:	00 
    3dc6:	49 8d 04 17          	lea    (%r15,%rdx,1),%rax
    3dca:	48 8d 3c b7          	lea    (%rdi,%rsi,4),%rdi
    3dce:	48 8b 74 24 78       	mov    0x78(%rsp),%rsi
    3dd3:	4c 01 f2             	add    %r14,%rdx
    3dd6:	48 29 ce             	sub    %rcx,%rsi
    3dd9:	48 89 f1             	mov    %rsi,%rcx
    3ddc:	0f 1f 40 00          	nopl   0x0(%rax)
            mat[rs2+x] ^= mat[row_start+x];
    3de0:	8b 34 88             	mov    (%rax,%rcx,4),%esi
    3de3:	31 30                	xor    %esi,(%rax)
            inv[rs2+x] ^= inv[row_start+x];
    3de5:	48 83 c0 04          	add    $0x4,%rax
    3de9:	8b 34 8a             	mov    (%rdx,%rcx,4),%esi
    3dec:	31 32                	xor    %esi,(%rdx)
          for (x = 0; x < cols; x++) {
    3dee:	48 83 c2 04          	add    $0x4,%rdx
    3df2:	48 39 f8             	cmp    %rdi,%rax
    3df5:	75 e9                	jne    3de0 <jerasure_invert_matrix+0x230>
    3df7:	eb 80                	jmp    3d79 <jerasure_invert_matrix+0x1c9>
    3df9:	0f 1f 80 00 00 00 00 	nopl   0x0(%rax)
    3e00:	48 8b 94 24 90 00 00 	mov    0x90(%rsp),%rdx
    3e07:	00 
    3e08:	48 8b 4c 24 48       	mov    0x48(%rsp),%rcx
    3e0d:	48 01 54 24 60       	add    %rdx,0x60(%rsp)
    3e12:	48 8b 54 24 40       	mov    0x40(%rsp),%rdx
    3e17:	4c 89 f0             	mov    %r14,%rax
    3e1a:	48 01 54 24 78       	add    %rdx,0x78(%rsp)
    3e1f:	48 8b 54 24 28       	mov    0x28(%rsp),%rdx
    3e24:	4d 89 fe             	mov    %r15,%r14
    3e27:	48 01 54 24 50       	add    %rdx,0x50(%rsp)
    3e2c:	49 89 c7             	mov    %rax,%r15
  for (i = 0; i < cols; i++) {
    3e2f:	48 01 94 24 80 00 00 	add    %rdx,0x80(%rsp)
    3e36:	00 
    3e37:	48 8d 41 01          	lea    0x1(%rcx),%rax
    3e3b:	48 3b 4c 24 58       	cmp    0x58(%rsp),%rcx
    3e40:	0f 84 26 01 00 00    	je     3f6c <jerasure_invert_matrix+0x3bc>
    3e46:	48 89 44 24 48       	mov    %rax,0x48(%rsp)
    3e4b:	e9 60 fe ff ff       	jmpq   3cb0 <jerasure_invert_matrix+0x100>
      for (j = i+1; j < rows && mat[cols*j+i] == 0; j++) ;
    3e50:	89 c1                	mov    %eax,%ecx
    3e52:	39 84 24 98 00 00 00 	cmp    %eax,0x98(%rsp)
    3e59:	0f 8e 3c 02 00 00    	jle    409b <jerasure_invert_matrix+0x4eb>
    3e5f:	8b 44 24 6c          	mov    0x6c(%rsp),%eax
    3e63:	8b 74 24 38          	mov    0x38(%rsp),%esi
    3e67:	03 44 24 30          	add    0x30(%rsp),%eax
    3e6b:	48 98                	cltq   
    3e6d:	48 03 44 24 48       	add    0x48(%rsp),%rax
    3e72:	49 8d 14 86          	lea    (%r14,%rax,4),%rdx
    3e76:	48 8b 7c 24 28       	mov    0x28(%rsp),%rdi
    3e7b:	89 c8                	mov    %ecx,%eax
    3e7d:	eb 11                	jmp    3e90 <jerasure_invert_matrix+0x2e0>
    3e7f:	90                   	nop
    3e80:	8d 48 01             	lea    0x1(%rax),%ecx
    3e83:	48 01 fa             	add    %rdi,%rdx
    3e86:	39 f0                	cmp    %esi,%eax
    3e88:	0f 84 be 01 00 00    	je     404c <jerasure_invert_matrix+0x49c>
    3e8e:	89 c8                	mov    %ecx,%eax
    3e90:	8b 0a                	mov    (%rdx),%ecx
    3e92:	85 c9                	test   %ecx,%ecx
    3e94:	74 ea                	je     3e80 <jerasure_invert_matrix+0x2d0>
      if (j == rows) return -1;
    3e96:	8b 8c 24 98 00 00 00 	mov    0x98(%rsp),%ecx
    3e9d:	39 c1                	cmp    %eax,%ecx
    3e9f:	0f 84 a7 01 00 00    	je     404c <jerasure_invert_matrix+0x49c>
      rs2 = j*cols;
    3ea5:	0f af c1             	imul   %ecx,%eax
      for (k = 0; k < cols; k++) {
    3ea8:	48 8b 4c 24 50       	mov    0x50(%rsp),%rcx
    3ead:	4c 8b 84 24 80 00 00 	mov    0x80(%rsp),%r8
    3eb4:	00 
    3eb5:	48 98                	cltq   
    3eb7:	49 8d 14 0e          	lea    (%r14,%rcx,1),%rdx
    3ebb:	48 2b 44 24 78       	sub    0x78(%rsp),%rax
    3ec0:	4c 01 f9             	add    %r15,%rcx
    3ec3:	0f 1f 44 00 00       	nopl   0x0(%rax,%rax,1)
        tmp = mat[row_start+k];
    3ec8:	8b 32                	mov    (%rdx),%esi
        mat[row_start+k] = mat[rs2+k];
    3eca:	8b 3c 82             	mov    (%rdx,%rax,4),%edi
    3ecd:	89 3a                	mov    %edi,(%rdx)
        mat[rs2+k] = tmp;
    3ecf:	89 34 82             	mov    %esi,(%rdx,%rax,4)
        tmp = inv[row_start+k];
    3ed2:	48 83 c2 04          	add    $0x4,%rdx
    3ed6:	8b 31                	mov    (%rcx),%esi
        inv[row_start+k] = inv[rs2+k];
    3ed8:	8b 3c 81             	mov    (%rcx,%rax,4),%edi
    3edb:	89 39                	mov    %edi,(%rcx)
        inv[rs2+k] = tmp;
    3edd:	89 34 81             	mov    %esi,(%rcx,%rax,4)
      for (k = 0; k < cols; k++) {
    3ee0:	48 83 c1 04          	add    $0x4,%rcx
    3ee4:	4c 39 c2             	cmp    %r8,%rdx
    3ee7:	75 df                	jne    3ec8 <jerasure_invert_matrix+0x318>
    3ee9:	48 8b 44 24 60       	mov    0x60(%rsp),%rax
    3eee:	8b 30                	mov    (%rax),%esi
    if (tmp != 1) {
    3ef0:	83 fe 01             	cmp    $0x1,%esi
    3ef3:	0f 84 d9 fd ff ff    	je     3cd2 <jerasure_invert_matrix+0x122>
      inverse = galois_single_divide(1, tmp, w);
    3ef9:	89 da                	mov    %ebx,%edx
    3efb:	bf 01 00 00 00       	mov    $0x1,%edi
    3f00:	e8 7b 47 00 00       	callq  8680 <galois_single_divide>
    3f05:	41 89 c5             	mov    %eax,%r13d
      for (j = 0; j < cols; j++) { 
    3f08:	48 8b 44 24 50       	mov    0x50(%rsp),%rax
    3f0d:	4c 89 74 24 08       	mov    %r14,0x8(%rsp)
    3f12:	49 8d 2c 06          	lea    (%r14,%rax,1),%rbp
    3f16:	49 89 ee             	mov    %rbp,%r14
    3f19:	48 8b ac 24 80 00 00 	mov    0x80(%rsp),%rbp
    3f20:	00 
    3f21:	4d 8d 24 07          	lea    (%r15,%rax,1),%r12
    3f25:	0f 1f 00             	nopl   (%rax)
        mat[row_start+j] = galois_single_multiply(mat[row_start+j], inverse, w);
    3f28:	41 8b 3e             	mov    (%r14),%edi
    3f2b:	89 da                	mov    %ebx,%edx
    3f2d:	44 89 ee             	mov    %r13d,%esi
    3f30:	e8 2b 47 00 00       	callq  8660 <galois_single_multiply>
    3f35:	41 89 06             	mov    %eax,(%r14)
        inv[row_start+j] = galois_single_multiply(inv[row_start+j], inverse, w);
    3f38:	89 da                	mov    %ebx,%edx
    3f3a:	44 89 ee             	mov    %r13d,%esi
    3f3d:	41 8b 3c 24          	mov    (%r12),%edi
    3f41:	49 83 c6 04          	add    $0x4,%r14
    3f45:	e8 16 47 00 00       	callq  8660 <galois_single_multiply>
    3f4a:	41 89 04 24          	mov    %eax,(%r12)
      for (j = 0; j < cols; j++) { 
    3f4e:	49 83 c4 04          	add    $0x4,%r12
    3f52:	49 39 ee             	cmp    %rbp,%r14
    3f55:	75 d1                	jne    3f28 <jerasure_invert_matrix+0x378>
    for (j = i+1; j != cols; j++) {
    3f57:	48 8b 4c 24 58       	mov    0x58(%rsp),%rcx
    3f5c:	4c 8b 74 24 08       	mov    0x8(%rsp),%r14
    3f61:	48 39 4c 24 48       	cmp    %rcx,0x48(%rsp)
    3f66:	0f 85 76 fd ff ff    	jne    3ce2 <jerasure_invert_matrix+0x132>
    }
  }

  /* Now the matrix is upper triangular.  Start at the top and multiply down  */

  for (i = rows-1; i >= 0; i--) {
    3f6c:	48 63 44 24 38       	movslq 0x38(%rsp),%rax
    3f71:	8b 4c 24 30          	mov    0x30(%rsp),%ecx
    3f75:	89 44 24 10          	mov    %eax,0x10(%rsp)
    3f79:	48 89 c7             	mov    %rax,%rdi
    3f7c:	49 8d 04 86          	lea    (%r14,%rax,4),%rax
    3f80:	48 89 44 24 38       	mov    %rax,0x38(%rsp)
    3f85:	89 c8                	mov    %ecx,%eax
    3f87:	0f af cf             	imul   %edi,%ecx
    3f8a:	f7 d8                	neg    %eax
    3f8c:	48 98                	cltq   
    3f8e:	48 89 44 24 30       	mov    %rax,0x30(%rsp)
    3f93:	48 63 c1             	movslq %ecx,%rax
    3f96:	48 89 44 24 28       	mov    %rax,0x28(%rsp)
    3f9b:	48 8b 44 24 40       	mov    0x40(%rsp),%rax
    3fa0:	48 c1 e0 02          	shl    $0x2,%rax
    3fa4:	48 89 44 24 18       	mov    %rax,0x18(%rsp)
    3fa9:	8b 84 24 9c 00 00 00 	mov    0x9c(%rsp),%eax
    3fb0:	49 8d 4c 87 04       	lea    0x4(%r15,%rax,4),%rcx
    3fb5:	48 f7 d0             	not    %rax
    3fb8:	48 c1 e0 02          	shl    $0x2,%rax
    3fbc:	48 89 44 24 20       	mov    %rax,0x20(%rsp)
    row_start = i*cols;
    for (j = 0; j < i; j++) {
    3fc1:	8b 44 24 10          	mov    0x10(%rsp),%eax
    3fc5:	48 89 4c 24 48       	mov    %rcx,0x48(%rsp)
    3fca:	85 c0                	test   %eax,%eax
    3fcc:	0f 8e bb 00 00 00    	jle    408d <jerasure_invert_matrix+0x4dd>
    3fd2:	c7 44 24 08 00 00 00 	movl   $0x0,0x8(%rsp)
    3fd9:	00 
    3fda:	48 8b 6c 24 48       	mov    0x48(%rsp),%rbp
    3fdf:	4c 8b 7c 24 28       	mov    0x28(%rsp),%r15
    3fe4:	4c 8b 64 24 38       	mov    0x38(%rsp),%r12
    3fe9:	eb 23                	jmp    400e <jerasure_invert_matrix+0x45e>
    3feb:	0f 1f 44 00 00       	nopl   0x0(%rax,%rax,1)
    3ff0:	ff 44 24 08          	incl   0x8(%rsp)
    3ff4:	48 8b 4c 24 18       	mov    0x18(%rsp),%rcx
    3ff9:	4c 2b 7c 24 40       	sub    0x40(%rsp),%r15
    3ffe:	49 01 cc             	add    %rcx,%r12
    4001:	8b 44 24 08          	mov    0x8(%rsp),%eax
    4005:	48 01 cd             	add    %rcx,%rbp
    4008:	3b 44 24 10          	cmp    0x10(%rsp),%eax
    400c:	74 5a                	je     4068 <jerasure_invert_matrix+0x4b8>
      rs2 = j*cols;
      if (mat[rs2+i] != 0) {
    400e:	45 8b 2c 24          	mov    (%r12),%r13d
    4012:	45 85 ed             	test   %r13d,%r13d
    4015:	74 d9                	je     3ff0 <jerasure_invert_matrix+0x440>
        tmp = mat[rs2+i];
        mat[rs2+i] = 0; 
    4017:	48 8b 44 24 20       	mov    0x20(%rsp),%rax
    401c:	41 c7 04 24 00 00 00 	movl   $0x0,(%r12)
    4023:	00 
        for (k = 0; k < cols; k++) {
    4024:	4c 8d 34 28          	lea    (%rax,%rbp,1),%r14
    4028:	0f 1f 84 00 00 00 00 	nopl   0x0(%rax,%rax,1)
    402f:	00 
          inv[rs2+k] ^= galois_single_multiply(tmp, inv[row_start+k], w);
    4030:	43 8b 34 be          	mov    (%r14,%r15,4),%esi
    4034:	89 da                	mov    %ebx,%edx
    4036:	44 89 ef             	mov    %r13d,%edi
    4039:	e8 22 46 00 00       	callq  8660 <galois_single_multiply>
    403e:	41 31 06             	xor    %eax,(%r14)
        for (k = 0; k < cols; k++) {
    4041:	49 83 c6 04          	add    $0x4,%r14
    4045:	4c 39 f5             	cmp    %r14,%rbp
    4048:	75 e6                	jne    4030 <jerasure_invert_matrix+0x480>
    404a:	eb a4                	jmp    3ff0 <jerasure_invert_matrix+0x440>
      if (j == rows) return -1;
    404c:	b8 ff ff ff ff       	mov    $0xffffffff,%eax
        }
      }
    }
  }
  return 0;
}
    4051:	48 81 c4 a8 00 00 00 	add    $0xa8,%rsp
    4058:	5b                   	pop    %rbx
    4059:	5d                   	pop    %rbp
    405a:	41 5c                	pop    %r12
    405c:	41 5d                	pop    %r13
    405e:	41 5e                	pop    %r14
    4060:	41 5f                	pop    %r15
    4062:	c3                   	retq   
    4063:	0f 1f 44 00 00       	nopl   0x0(%rax,%rax,1)
    4068:	44 8d 78 ff          	lea    -0x1(%rax),%r15d
    for (j = 0; j < i; j++) {
    406c:	44 89 7c 24 10       	mov    %r15d,0x10(%rsp)
    4071:	48 8b 4c 24 30       	mov    0x30(%rsp),%rcx
    4076:	48 83 6c 24 38 04    	subq   $0x4,0x38(%rsp)
    407c:	8b 44 24 10          	mov    0x10(%rsp),%eax
    4080:	48 01 4c 24 28       	add    %rcx,0x28(%rsp)
    4085:	85 c0                	test   %eax,%eax
    4087:	0f 8f 45 ff ff ff    	jg     3fd2 <jerasure_invert_matrix+0x422>
  for (i = rows-1; i >= 0; i--) {
    408d:	44 8b 7c 24 10       	mov    0x10(%rsp),%r15d
    4092:	41 ff cf             	dec    %r15d
    4095:	79 d5                	jns    406c <jerasure_invert_matrix+0x4bc>
  return 0;
    4097:	31 c0                	xor    %eax,%eax
    4099:	eb b6                	jmp    4051 <jerasure_invert_matrix+0x4a1>
      for (j = i+1; j < rows && mat[cols*j+i] == 0; j++) ;
    409b:	8b 44 24 18          	mov    0x18(%rsp),%eax
    409f:	e9 f2 fd ff ff       	jmpq   3e96 <jerasure_invert_matrix+0x2e6>
    40a4:	66 66 2e 0f 1f 84 00 	data16 nopw %cs:0x0(%rax,%rax,1)
    40ab:	00 00 00 00 
    40af:	90                   	nop

00000000000040b0 <jerasure_make_decoding_matrix>:
{
    40b0:	f3 0f 1e fa          	endbr64 
    40b4:	41 57                	push   %r15
    40b6:	41 56                	push   %r14
    40b8:	4d 89 ce             	mov    %r9,%r14
    40bb:	41 55                	push   %r13
    40bd:	41 89 d5             	mov    %edx,%r13d
    40c0:	41 54                	push   %r12
    40c2:	41 89 fc             	mov    %edi,%r12d
    40c5:	0f af ff             	imul   %edi,%edi
    40c8:	55                   	push   %rbp
    40c9:	48 63 ff             	movslq %edi,%rdi
    40cc:	53                   	push   %rbx
    40cd:	48 c1 e7 02          	shl    $0x2,%rdi
    40d1:	48 83 ec 08          	sub    $0x8,%rsp
    40d5:	4c 8b 7c 24 40       	mov    0x40(%rsp),%r15
  for (i = 0; j < k; i++) {
    40da:	45 85 e4             	test   %r12d,%r12d
    40dd:	0f 8e f1 00 00 00    	jle    41d4 <jerasure_make_decoding_matrix+0x124>
    40e3:	48 89 cb             	mov    %rcx,%rbx
    40e6:	31 c0                	xor    %eax,%eax
  j = 0;
    40e8:	31 d2                	xor    %edx,%edx
    40ea:	66 0f 1f 44 00 00    	nopw   0x0(%rax,%rax,1)
    if (erased[i] == 0) {
    40f0:	41 8b 0c 80          	mov    (%r8,%rax,4),%ecx
    40f4:	85 c9                	test   %ecx,%ecx
    40f6:	75 09                	jne    4101 <jerasure_make_decoding_matrix+0x51>
      dm_ids[j] = i;
    40f8:	48 63 ca             	movslq %edx,%rcx
    40fb:	41 89 04 8f          	mov    %eax,(%r15,%rcx,4)
      j++;
    40ff:	ff c2                	inc    %edx
  for (i = 0; j < k; i++) {
    4101:	48 ff c0             	inc    %rax
    4104:	44 39 e2             	cmp    %r12d,%edx
    4107:	7c e7                	jl     40f0 <jerasure_make_decoding_matrix+0x40>
  tmpmat = talloc(int, k*k);
    4109:	e8 f2 d2 ff ff       	callq  1400 <malloc@plt>
    410e:	48 89 c5             	mov    %rax,%rbp
  if (tmpmat == NULL) { return -1; }
    4111:	48 85 c0             	test   %rax,%rax
    4114:	0f 84 c7 00 00 00    	je     41e1 <jerasure_make_decoding_matrix+0x131>
    411a:	41 8d 54 24 ff       	lea    -0x1(%r12),%edx
    411f:	48 8d 04 95 00 00 00 	lea    0x0(,%rdx,4),%rax
    4126:	00 
    4127:	4d 63 cc             	movslq %r12d,%r9
    412a:	4d 89 fa             	mov    %r15,%r10
    412d:	49 c1 e1 02          	shl    $0x2,%r9
    4131:	48 89 ef             	mov    %rbp,%rdi
    4134:	4c 8d 44 05 04       	lea    0x4(%rbp,%rax,1),%r8
    4139:	4e 8d 5c 38 04       	lea    0x4(%rax,%r15,1),%r11
    413e:	31 c9                	xor    %ecx,%ecx
    if (dm_ids[i] < k) {
    4140:	41 8b 32             	mov    (%r10),%esi
    4143:	44 39 e6             	cmp    %r12d,%esi
    4146:	7d 68                	jge    41b0 <jerasure_make_decoding_matrix+0x100>
    4148:	48 89 f8             	mov    %rdi,%rax
    414b:	0f 1f 44 00 00       	nopl   0x0(%rax,%rax,1)
      for (j = 0; j < k; j++) tmpmat[i*k+j] = 0;
    4150:	c7 00 00 00 00 00    	movl   $0x0,(%rax)
    4156:	48 83 c0 04          	add    $0x4,%rax
    415a:	4c 39 c0             	cmp    %r8,%rax
    415d:	75 f1                	jne    4150 <jerasure_make_decoding_matrix+0xa0>
      tmpmat[i*k+dm_ids[i]] = 1;
    415f:	01 ce                	add    %ecx,%esi
    4161:	48 63 f6             	movslq %esi,%rsi
    4164:	c7 44 b5 00 01 00 00 	movl   $0x1,0x0(%rbp,%rsi,4)
    416b:	00 
  for (i = 0; i < k; i++) {
    416c:	49 83 c2 04          	add    $0x4,%r10
    4170:	44 01 e1             	add    %r12d,%ecx
    4173:	4c 01 cf             	add    %r9,%rdi
    4176:	4d 01 c8             	add    %r9,%r8
    4179:	4d 39 da             	cmp    %r11,%r10
    417c:	75 c2                	jne    4140 <jerasure_make_decoding_matrix+0x90>
  i = jerasure_invert_matrix(tmpmat, decoding_matrix, k, w);
    417e:	44 89 e2             	mov    %r12d,%edx
    4181:	48 89 ef             	mov    %rbp,%rdi
    4184:	44 89 e9             	mov    %r13d,%ecx
    4187:	4c 89 f6             	mov    %r14,%rsi
    418a:	e8 21 fa ff ff       	callq  3bb0 <jerasure_invert_matrix>
  free(tmpmat);
    418f:	48 89 ef             	mov    %rbp,%rdi
  i = jerasure_invert_matrix(tmpmat, decoding_matrix, k, w);
    4192:	41 89 c4             	mov    %eax,%r12d
  free(tmpmat);
    4195:	e8 e6 d0 ff ff       	callq  1280 <free@plt>
}
    419a:	48 83 c4 08          	add    $0x8,%rsp
    419e:	5b                   	pop    %rbx
    419f:	5d                   	pop    %rbp
    41a0:	44 89 e0             	mov    %r12d,%eax
    41a3:	41 5c                	pop    %r12
    41a5:	41 5d                	pop    %r13
    41a7:	41 5e                	pop    %r14
    41a9:	41 5f                	pop    %r15
    41ab:	c3                   	retq   
    41ac:	0f 1f 40 00          	nopl   0x0(%rax)
        tmpmat[i*k+j] = matrix[(dm_ids[i]-k)*k+j];
    41b0:	44 29 e6             	sub    %r12d,%esi
    41b3:	41 0f af f4          	imul   %r12d,%esi
    41b7:	31 c0                	xor    %eax,%eax
    41b9:	48 63 f6             	movslq %esi,%rsi
    41bc:	4c 8d 3c b3          	lea    (%rbx,%rsi,4),%r15
    41c0:	41 8b 34 87          	mov    (%r15,%rax,4),%esi
    41c4:	89 34 87             	mov    %esi,(%rdi,%rax,4)
      for (j = 0; j < k; j++) {
    41c7:	48 89 c6             	mov    %rax,%rsi
    41ca:	48 ff c0             	inc    %rax
    41cd:	48 39 f2             	cmp    %rsi,%rdx
    41d0:	75 ee                	jne    41c0 <jerasure_make_decoding_matrix+0x110>
    41d2:	eb 98                	jmp    416c <jerasure_make_decoding_matrix+0xbc>
  tmpmat = talloc(int, k*k);
    41d4:	e8 27 d2 ff ff       	callq  1400 <malloc@plt>
    41d9:	48 89 c5             	mov    %rax,%rbp
  if (tmpmat == NULL) { return -1; }
    41dc:	48 85 c0             	test   %rax,%rax
    41df:	75 9d                	jne    417e <jerasure_make_decoding_matrix+0xce>
    41e1:	41 83 cc ff          	or     $0xffffffff,%r12d
    41e5:	eb b3                	jmp    419a <jerasure_make_decoding_matrix+0xea>
    41e7:	66 0f 1f 84 00 00 00 	nopw   0x0(%rax,%rax,1)
    41ee:	00 00 

00000000000041f0 <jerasure_invertible_matrix>:

int jerasure_invertible_matrix(int *mat, int rows, int w)
{
    41f0:	f3 0f 1e fa          	endbr64 
    41f4:	41 57                	push   %r15
    41f6:	41 56                	push   %r14
    41f8:	41 55                	push   %r13
    41fa:	41 54                	push   %r12
    41fc:	55                   	push   %rbp
    41fd:	53                   	push   %rbx
    41fe:	48 83 ec 78          	sub    $0x78,%rsp
    4202:	48 89 7c 24 28       	mov    %rdi,0x28(%rsp)
    4207:	89 74 24 48          	mov    %esi,0x48(%rsp)
  int row_start, tmp, inverse;
 
  cols = rows;

  /* First -- convert into upper triangular  */
  for (i = 0; i < cols; i++) {
    420b:	85 f6                	test   %esi,%esi
    420d:	0f 8e 88 02 00 00    	jle    449b <jerasure_invertible_matrix+0x2ab>
    4213:	48 63 44 24 48       	movslq 0x48(%rsp),%rax
    4218:	48 c7 44 24 20 00 00 	movq   $0x0,0x20(%rsp)
    421f:	00 00 
    4221:	48 8d 1c 85 04 00 00 	lea    0x4(,%rax,4),%rbx
    4228:	00 
    4229:	48 89 5c 24 68       	mov    %rbx,0x68(%rsp)
    422e:	48 8b 5c 24 28       	mov    0x28(%rsp),%rbx
    4233:	48 89 c1             	mov    %rax,%rcx
    4236:	48 89 44 24 60       	mov    %rax,0x60(%rsp)
    423b:	48 c1 e0 02          	shl    $0x2,%rax
    423f:	48 89 44 24 10       	mov    %rax,0x10(%rsp)
    4244:	8d 41 ff             	lea    -0x1(%rcx),%eax
    4247:	48 8d 4b 04          	lea    0x4(%rbx),%rcx
    424b:	48 89 44 24 18       	mov    %rax,0x18(%rsp)
    4250:	48 8d 04 81          	lea    (%rcx,%rax,4),%rax
    4254:	48 89 5c 24 40       	mov    %rbx,0x40(%rsp)
    4259:	48 89 4c 24 38       	mov    %rcx,0x38(%rsp)
    425e:	48 89 44 24 58       	mov    %rax,0x58(%rsp)
    4263:	48 89 5c 24 50       	mov    %rbx,0x50(%rsp)
    4268:	c7 44 24 4c 00 00 00 	movl   $0x0,0x4c(%rsp)
    426f:	00 
    4270:	48 c7 44 24 30 00 00 	movq   $0x0,0x30(%rsp)
    4277:	00 00 
    4279:	41 89 d5             	mov    %edx,%r13d
    427c:	0f 1f 40 00          	nopl   0x0(%rax)
    row_start = cols*i;

    /* Swap rows if we ave a zero i,i element.  If we can't swap, then the 
       matrix was not invertible  */

    if (mat[row_start+i] == 0) { 
    4280:	48 8b 44 24 40       	mov    0x40(%rsp),%rax
    4285:	8b 30                	mov    (%rax),%esi
    4287:	8b 44 24 30          	mov    0x30(%rsp),%eax
    428b:	ff c0                	inc    %eax
    428d:	89 44 24 08          	mov    %eax,0x8(%rsp)
    4291:	85 f6                	test   %esi,%esi
    4293:	0f 84 2f 01 00 00    	je     43c8 <jerasure_invertible_matrix+0x1d8>
      }
    }
 
    /* Multiply the row by 1/element i,i  */
    tmp = mat[row_start+i];
    if (tmp != 1) {
    4299:	83 fe 01             	cmp    $0x1,%esi
    429c:	0f 85 b1 01 00 00    	jne    4453 <jerasure_invertible_matrix+0x263>
      }
    }

    /* Now for each j>i, add A_ji*Ai to Aj  */
    k = row_start+i;
    for (j = i+1; j != cols; j++) {
    42a2:	48 8b 5c 24 18       	mov    0x18(%rsp),%rbx
    42a7:	48 39 5c 24 30       	cmp    %rbx,0x30(%rsp)
    42ac:	0f 84 e9 01 00 00    	je     449b <jerasure_invertible_matrix+0x2ab>
    42b2:	8b 5c 24 48          	mov    0x48(%rsp),%ebx
    42b6:	48 8b 6c 24 40       	mov    0x40(%rsp),%rbp
    42bb:	01 5c 24 4c          	add    %ebx,0x4c(%rsp)
    42bf:	48 03 6c 24 10       	add    0x10(%rsp),%rbp
    42c4:	8b 44 24 4c          	mov    0x4c(%rsp),%eax
    42c8:	89 44 24 0c          	mov    %eax,0xc(%rsp)
    42cc:	0f 1f 40 00          	nopl   0x0(%rax)
      k += cols;
      if (mat[k] != 0) {
    42d0:	44 8b 65 00          	mov    0x0(%rbp),%r12d
    42d4:	45 85 e4             	test   %r12d,%r12d
    42d7:	74 52                	je     432b <jerasure_invertible_matrix+0x13b>
        if (mat[k] == 1) {
    42d9:	41 83 fc 01          	cmp    $0x1,%r12d
    42dd:	0f 84 a5 00 00 00    	je     4388 <jerasure_invertible_matrix+0x198>
    42e3:	48 63 44 24 0c       	movslq 0xc(%rsp),%rax
    42e8:	48 8b 5c 24 28       	mov    0x28(%rsp),%rbx
    42ed:	48 8b 4c 24 18       	mov    0x18(%rsp),%rcx
          }
        } else {
          tmp = mat[k];
          rs2 = cols*j;
          for (x = 0; x < cols; x++) {
            mat[rs2+x] ^= galois_single_multiply(tmp, mat[row_start+x], w);
    42f2:	4c 8b 7c 24 20       	mov    0x20(%rsp),%r15
    42f7:	4c 8d 34 83          	lea    (%rbx,%rax,4),%r14
    42fb:	48 8b 5c 24 38       	mov    0x38(%rsp),%rbx
    4300:	48 8d 14 08          	lea    (%rax,%rcx,1),%rdx
    4304:	48 8d 1c 93          	lea    (%rbx,%rdx,4),%rbx
    4308:	49 29 c7             	sub    %rax,%r15
    430b:	0f 1f 44 00 00       	nopl   0x0(%rax,%rax,1)
    4310:	43 8b 34 be          	mov    (%r14,%r15,4),%esi
    4314:	44 89 ea             	mov    %r13d,%edx
    4317:	44 89 e7             	mov    %r12d,%edi
    431a:	e8 41 43 00 00       	callq  8660 <galois_single_multiply>
    431f:	41 31 06             	xor    %eax,(%r14)
          for (x = 0; x < cols; x++) {
    4322:	49 83 c6 04          	add    $0x4,%r14
    4326:	4c 39 f3             	cmp    %r14,%rbx
    4329:	75 e5                	jne    4310 <jerasure_invertible_matrix+0x120>
    for (j = i+1; j != cols; j++) {
    432b:	ff 44 24 08          	incl   0x8(%rsp)
    432f:	8b 7c 24 48          	mov    0x48(%rsp),%edi
    4333:	48 03 6c 24 10       	add    0x10(%rsp),%rbp
    4338:	01 7c 24 0c          	add    %edi,0xc(%rsp)
    433c:	8b 44 24 08          	mov    0x8(%rsp),%eax
    4340:	39 c7                	cmp    %eax,%edi
    4342:	75 8c                	jne    42d0 <jerasure_invertible_matrix+0xe0>
  for (i = 0; i < cols; i++) {
    4344:	48 8b 54 24 68       	mov    0x68(%rsp),%rdx
    4349:	48 8b 4c 24 10       	mov    0x10(%rsp),%rcx
    434e:	48 01 54 24 40       	add    %rdx,0x40(%rsp)
    4353:	48 8b 5c 24 30       	mov    0x30(%rsp),%rbx
    4358:	48 8b 54 24 60       	mov    0x60(%rsp),%rdx
    435d:	48 01 4c 24 50       	add    %rcx,0x50(%rsp)
    4362:	48 01 54 24 20       	add    %rdx,0x20(%rsp)
    4367:	48 01 4c 24 58       	add    %rcx,0x58(%rsp)
    436c:	48 8d 43 01          	lea    0x1(%rbx),%rax
    4370:	48 3b 5c 24 18       	cmp    0x18(%rsp),%rbx
    4375:	0f 84 20 01 00 00    	je     449b <jerasure_invertible_matrix+0x2ab>
    437b:	48 89 44 24 30       	mov    %rax,0x30(%rsp)
    4380:	e9 fb fe ff ff       	jmpq   4280 <jerasure_invertible_matrix+0x90>
    4385:	0f 1f 00             	nopl   (%rax)
    4388:	48 63 54 24 0c       	movslq 0xc(%rsp),%rdx
    438d:	48 8b 5c 24 18       	mov    0x18(%rsp),%rbx
    4392:	48 8b 44 24 28       	mov    0x28(%rsp),%rax
    4397:	48 8d 0c 1a          	lea    (%rdx,%rbx,1),%rcx
    439b:	48 8b 5c 24 38       	mov    0x38(%rsp),%rbx
    43a0:	48 8d 04 90          	lea    (%rax,%rdx,4),%rax
    43a4:	48 8d 34 8b          	lea    (%rbx,%rcx,4),%rsi
            mat[rs2+x] ^= mat[row_start+x];
    43a8:	48 8b 4c 24 20       	mov    0x20(%rsp),%rcx
    43ad:	48 29 d1             	sub    %rdx,%rcx
    43b0:	8b 14 88             	mov    (%rax,%rcx,4),%edx
    43b3:	31 10                	xor    %edx,(%rax)
          for (x = 0; x < cols; x++) {
    43b5:	48 83 c0 04          	add    $0x4,%rax
    43b9:	48 39 f0             	cmp    %rsi,%rax
    43bc:	75 f2                	jne    43b0 <jerasure_invertible_matrix+0x1c0>
    43be:	e9 68 ff ff ff       	jmpq   432b <jerasure_invertible_matrix+0x13b>
    43c3:	0f 1f 44 00 00       	nopl   0x0(%rax,%rax,1)
      for (j = i+1; j < rows && mat[cols*j+i] == 0; j++) ;
    43c8:	44 8b 44 24 48       	mov    0x48(%rsp),%r8d
    43cd:	89 c7                	mov    %eax,%edi
    43cf:	41 39 c0             	cmp    %eax,%r8d
    43d2:	0f 8e d9 00 00 00    	jle    44b1 <jerasure_invertible_matrix+0x2c1>
    43d8:	8b 44 24 4c          	mov    0x4c(%rsp),%eax
    43dc:	48 8b 5c 24 28       	mov    0x28(%rsp),%rbx
    43e1:	44 01 c0             	add    %r8d,%eax
    43e4:	48 63 d0             	movslq %eax,%rdx
    43e7:	48 03 54 24 30       	add    0x30(%rsp),%rdx
    43ec:	4c 8b 4c 24 10       	mov    0x10(%rsp),%r9
    43f1:	48 8d 0c 93          	lea    (%rbx,%rdx,4),%rcx
    43f5:	eb 1a                	jmp    4411 <jerasure_invertible_matrix+0x221>
    43f7:	66 0f 1f 84 00 00 00 	nopw   0x0(%rax,%rax,1)
    43fe:	00 00 
    4400:	ff c7                	inc    %edi
    4402:	44 01 c0             	add    %r8d,%eax
    4405:	4c 01 c9             	add    %r9,%rcx
    4408:	41 39 f8             	cmp    %edi,%r8d
    440b:	0f 84 8f 00 00 00    	je     44a0 <jerasure_invertible_matrix+0x2b0>
    4411:	8b 31                	mov    (%rcx),%esi
    4413:	89 c2                	mov    %eax,%edx
    4415:	85 f6                	test   %esi,%esi
    4417:	74 e7                	je     4400 <jerasure_invertible_matrix+0x210>
      for (k = 0; k < cols; k++) {
    4419:	48 63 d2             	movslq %edx,%rdx
      for (j = i+1; j < rows && mat[cols*j+i] == 0; j++) ;
    441c:	48 8b 44 24 50       	mov    0x50(%rsp),%rax
    4421:	48 8b 7c 24 58       	mov    0x58(%rsp),%rdi
    4426:	48 2b 54 24 20       	sub    0x20(%rsp),%rdx
    442b:	0f 1f 44 00 00       	nopl   0x0(%rax,%rax,1)
        tmp = mat[row_start+k];
    4430:	8b 08                	mov    (%rax),%ecx
        mat[row_start+k] = mat[rs2+k];
    4432:	8b 34 90             	mov    (%rax,%rdx,4),%esi
    4435:	89 30                	mov    %esi,(%rax)
        mat[rs2+k] = tmp;
    4437:	89 0c 90             	mov    %ecx,(%rax,%rdx,4)
      for (k = 0; k < cols; k++) {
    443a:	48 83 c0 04          	add    $0x4,%rax
    443e:	48 39 f8             	cmp    %rdi,%rax
    4441:	75 ed                	jne    4430 <jerasure_invertible_matrix+0x240>
    4443:	48 8b 44 24 40       	mov    0x40(%rsp),%rax
    4448:	8b 30                	mov    (%rax),%esi
    if (tmp != 1) {
    444a:	83 fe 01             	cmp    $0x1,%esi
    444d:	0f 84 4f fe ff ff    	je     42a2 <jerasure_invertible_matrix+0xb2>
      inverse = galois_single_divide(1, tmp, w);
    4453:	44 89 ea             	mov    %r13d,%edx
    4456:	bf 01 00 00 00       	mov    $0x1,%edi
    445b:	e8 20 42 00 00       	callq  8680 <galois_single_divide>
    4460:	4c 8b 64 24 50       	mov    0x50(%rsp),%r12
    4465:	48 8b 5c 24 58       	mov    0x58(%rsp),%rbx
    446a:	89 c5                	mov    %eax,%ebp
      for (j = 0; j < cols; j++) { 
    446c:	0f 1f 40 00          	nopl   0x0(%rax)
        mat[row_start+j] = galois_single_multiply(mat[row_start+j], inverse, w);
    4470:	41 8b 3c 24          	mov    (%r12),%edi
    4474:	44 89 ea             	mov    %r13d,%edx
    4477:	89 ee                	mov    %ebp,%esi
    4479:	e8 e2 41 00 00       	callq  8660 <galois_single_multiply>
    447e:	41 89 04 24          	mov    %eax,(%r12)
      for (j = 0; j < cols; j++) { 
    4482:	49 83 c4 04          	add    $0x4,%r12
    4486:	49 39 dc             	cmp    %rbx,%r12
    4489:	75 e5                	jne    4470 <jerasure_invertible_matrix+0x280>
    for (j = i+1; j != cols; j++) {
    448b:	48 8b 5c 24 18       	mov    0x18(%rsp),%rbx
    4490:	48 39 5c 24 30       	cmp    %rbx,0x30(%rsp)
    4495:	0f 85 17 fe ff ff    	jne    42b2 <jerasure_invertible_matrix+0xc2>
          }
        }
      }
    }
  }
  return 1;
    449b:	be 01 00 00 00       	mov    $0x1,%esi
}
    44a0:	48 83 c4 78          	add    $0x78,%rsp
    44a4:	5b                   	pop    %rbx
    44a5:	5d                   	pop    %rbp
    44a6:	41 5c                	pop    %r12
    44a8:	41 5d                	pop    %r13
    44aa:	41 5e                	pop    %r14
    44ac:	89 f0                	mov    %esi,%eax
    44ae:	41 5f                	pop    %r15
    44b0:	c3                   	retq   
      if (j == rows) return 0;
    44b1:	74 ed                	je     44a0 <jerasure_invertible_matrix+0x2b0>
    44b3:	8b 54 24 48          	mov    0x48(%rsp),%edx
    44b7:	0f af 54 24 08       	imul   0x8(%rsp),%edx
    44bc:	e9 58 ff ff ff       	jmpq   4419 <jerasure_invertible_matrix+0x229>
    44c1:	66 66 2e 0f 1f 84 00 	data16 nopw %cs:0x0(%rax,%rax,1)
    44c8:	00 00 00 00 
    44cc:	0f 1f 40 00          	nopl   0x0(%rax)

00000000000044d0 <jerasure_erasures_to_erased>:

/* Converts a list-style version of the erasures into an array of k+m elements
   where the element = 1 if the index has been erased, and zero otherwise */

int *jerasure_erasures_to_erased(int k, int m, int *erasures)
{
    44d0:	f3 0f 1e fa          	endbr64 
    44d4:	41 54                	push   %r12
    44d6:	41 89 fc             	mov    %edi,%r12d
    44d9:	55                   	push   %rbp
  int td;
  int t_non_erased;
  int *erased;
  int i;

  td = k+m;
    44da:	8d 2c 37             	lea    (%rdi,%rsi,1),%ebp
  erased = talloc(int, td);
    44dd:	48 63 fd             	movslq %ebp,%rdi
{
    44e0:	53                   	push   %rbx
  erased = talloc(int, td);
    44e1:	48 c1 e7 02          	shl    $0x2,%rdi
{
    44e5:	48 89 d3             	mov    %rdx,%rbx
  erased = talloc(int, td);
    44e8:	e8 13 cf ff ff       	callq  1400 <malloc@plt>
  if (erased == NULL) return NULL;
    44ed:	48 85 c0             	test   %rax,%rax
    44f0:	74 59                	je     454b <jerasure_erasures_to_erased+0x7b>
  t_non_erased = td;

  for (i = 0; i < td; i++) erased[i] = 0;
    44f2:	85 ed                	test   %ebp,%ebp
    44f4:	7e 21                	jle    4517 <jerasure_erasures_to_erased+0x47>
    44f6:	8d 4d ff             	lea    -0x1(%rbp),%ecx
    44f9:	48 89 c2             	mov    %rax,%rdx
    44fc:	48 8d 4c 88 04       	lea    0x4(%rax,%rcx,4),%rcx
    4501:	0f 1f 80 00 00 00 00 	nopl   0x0(%rax)
    4508:	c7 02 00 00 00 00    	movl   $0x0,(%rdx)
    450e:	48 83 c2 04          	add    $0x4,%rdx
    4512:	48 39 ca             	cmp    %rcx,%rdx
    4515:	75 f1                	jne    4508 <jerasure_erasures_to_erased+0x38>

  for (i = 0; erasures[i] != -1; i++) {
    4517:	48 63 0b             	movslq (%rbx),%rcx
    451a:	83 f9 ff             	cmp    $0xffffffff,%ecx
    451d:	74 2c                	je     454b <jerasure_erasures_to_erased+0x7b>
    451f:	48 8d 53 04          	lea    0x4(%rbx),%rdx
    4523:	0f 1f 44 00 00       	nopl   0x0(%rax,%rax,1)
    if (erased[erasures[i]] == 0) {
    4528:	48 8d 0c 88          	lea    (%rax,%rcx,4),%rcx
    452c:	8b 31                	mov    (%rcx),%esi
    452e:	85 f6                	test   %esi,%esi
    4530:	75 0d                	jne    453f <jerasure_erasures_to_erased+0x6f>
      erased[erasures[i]] = 1;
      t_non_erased--;
    4532:	ff cd                	dec    %ebp
      erased[erasures[i]] = 1;
    4534:	c7 01 01 00 00 00    	movl   $0x1,(%rcx)
      if (t_non_erased < k) {
    453a:	41 39 ec             	cmp    %ebp,%r12d
    453d:	7f 11                	jg     4550 <jerasure_erasures_to_erased+0x80>
  for (i = 0; erasures[i] != -1; i++) {
    453f:	48 63 0a             	movslq (%rdx),%rcx
    4542:	48 83 c2 04          	add    $0x4,%rdx
    4546:	83 f9 ff             	cmp    $0xffffffff,%ecx
    4549:	75 dd                	jne    4528 <jerasure_erasures_to_erased+0x58>
        return NULL;
      }
    }
  }
  return erased;
}
    454b:	5b                   	pop    %rbx
    454c:	5d                   	pop    %rbp
    454d:	41 5c                	pop    %r12
    454f:	c3                   	retq   
        free(erased);
    4550:	48 89 c7             	mov    %rax,%rdi
    4553:	e8 28 cd ff ff       	callq  1280 <free@plt>
}
    4558:	5b                   	pop    %rbx
    4559:	5d                   	pop    %rbp
        return NULL;
    455a:	31 c0                	xor    %eax,%eax
}
    455c:	41 5c                	pop    %r12
    455e:	c3                   	retq   
    455f:	90                   	nop

0000000000004560 <set_up_ptrs_for_scheduled_decoding>:

  return 0;
}

static char **set_up_ptrs_for_scheduled_decoding(int k, int m, int *erasures, char **data_ptrs, char **coding_ptrs)
{
    4560:	41 57                	push   %r15
    4562:	41 56                	push   %r14
    4564:	41 89 f6             	mov    %esi,%r14d
    4567:	41 55                	push   %r13
    4569:	4d 89 c5             	mov    %r8,%r13
    456c:	41 54                	push   %r12
    456e:	49 89 cc             	mov    %rcx,%r12
    4571:	55                   	push   %rbp
    4572:	53                   	push   %rbx
    4573:	48 63 df             	movslq %edi,%rbx
  cdf = 0;
  for (i = 0; erasures[i] != -1; i++) {
    if (erasures[i] < k) ddf++; else cdf++;
  }
  
  erased = jerasure_erasures_to_erased(k, m, erasures);
    4576:	89 df                	mov    %ebx,%edi
{
    4578:	48 83 ec 18          	sub    $0x18,%rsp
  erased = jerasure_erasures_to_erased(k, m, erasures);
    457c:	e8 4f ff ff ff       	callq  44d0 <jerasure_erasures_to_erased>
  if (erased == NULL) return NULL;
    4581:	48 85 c0             	test   %rax,%rax
    4584:	0f 84 f5 00 00 00    	je     467f <set_up_ptrs_for_scheduled_decoding+0x11f>
       The array ind_to_row_ids contains the row_id of drive i.
  
       However, we're going to set row_ids and ind_to_row in a different procedure.
   */
         
  ptrs = talloc(char *, k+m);
    458a:	42 8d 0c 33          	lea    (%rbx,%r14,1),%ecx
    458e:	48 63 f9             	movslq %ecx,%rdi
    4591:	48 c1 e7 03          	shl    $0x3,%rdi
    4595:	89 4c 24 0c          	mov    %ecx,0xc(%rsp)
    4599:	48 89 c5             	mov    %rax,%rbp
    459c:	e8 5f ce ff ff       	callq  1400 <malloc@plt>

  j = k;
  x = k;
  for (i = 0; i < k; i++) {
    45a1:	85 db                	test   %ebx,%ebx
    45a3:	8b 4c 24 0c          	mov    0xc(%rsp),%ecx
  ptrs = talloc(char *, k+m);
    45a7:	49 89 c7             	mov    %rax,%r15
  for (i = 0; i < k; i++) {
    45aa:	0f 8e d4 00 00 00    	jle    4684 <set_up_ptrs_for_scheduled_decoding+0x124>
    45b0:	8d 73 ff             	lea    -0x1(%rbx),%esi
    45b3:	41 89 da             	mov    %ebx,%r10d
    45b6:	41 89 d9             	mov    %ebx,%r9d
    45b9:	31 ff                	xor    %edi,%edi
    45bb:	eb 13                	jmp    45d0 <set_up_ptrs_for_scheduled_decoding+0x70>
    45bd:	0f 1f 00             	nopl   (%rax)
    if (erased[i] == 0) {
      ptrs[i] = data_ptrs[i];
    45c0:	49 89 04 ff          	mov    %rax,(%r15,%rdi,8)
  for (i = 0; i < k; i++) {
    45c4:	48 8d 47 01          	lea    0x1(%rdi),%rax
    45c8:	48 39 fe             	cmp    %rdi,%rsi
    45cb:	74 5a                	je     4627 <set_up_ptrs_for_scheduled_decoding+0xc7>
    45cd:	48 89 c7             	mov    %rax,%rdi
    if (erased[i] == 0) {
    45d0:	8b 54 bd 00          	mov    0x0(%rbp,%rdi,4),%edx
    45d4:	49 8b 04 fc          	mov    (%r12,%rdi,8),%rax
    45d8:	85 d2                	test   %edx,%edx
    45da:	74 e4                	je     45c0 <set_up_ptrs_for_scheduled_decoding+0x60>
    } else {
      while (erased[j]) j++;
    45dc:	4d 63 c1             	movslq %r9d,%r8
    45df:	46 8b 5c 85 00       	mov    0x0(%rbp,%r8,4),%r11d
    45e4:	41 8d 51 01          	lea    0x1(%r9),%edx
    45e8:	48 63 d2             	movslq %edx,%rdx
    45eb:	45 85 db             	test   %r11d,%r11d
    45ee:	74 10                	je     4600 <set_up_ptrs_for_scheduled_decoding+0xa0>
    45f0:	41 89 d1             	mov    %edx,%r9d
    45f3:	48 ff c2             	inc    %rdx
    45f6:	44 8b 44 95 fc       	mov    -0x4(%rbp,%rdx,4),%r8d
    45fb:	45 85 c0             	test   %r8d,%r8d
    45fe:	75 f0                	jne    45f0 <set_up_ptrs_for_scheduled_decoding+0x90>
      ptrs[i] = coding_ptrs[j-k];
    4600:	44 89 ca             	mov    %r9d,%edx
    4603:	29 da                	sub    %ebx,%edx
    4605:	48 63 d2             	movslq %edx,%rdx
    4608:	49 8b 54 d5 00       	mov    0x0(%r13,%rdx,8),%rdx
      j++;
    460d:	41 ff c1             	inc    %r9d
      ptrs[i] = coding_ptrs[j-k];
    4610:	49 89 14 ff          	mov    %rdx,(%r15,%rdi,8)
      ptrs[x] = data_ptrs[i];
    4614:	49 63 d2             	movslq %r10d,%rdx
    4617:	49 89 04 d7          	mov    %rax,(%r15,%rdx,8)
      x++;
    461b:	41 ff c2             	inc    %r10d
  for (i = 0; i < k; i++) {
    461e:	48 8d 47 01          	lea    0x1(%rdi),%rax
    4622:	48 39 fe             	cmp    %rdi,%rsi
    4625:	75 a6                	jne    45cd <set_up_ptrs_for_scheduled_decoding+0x6d>
    }
  }
  for (i = k; i < k+m; i++) {
    4627:	39 d9                	cmp    %ebx,%ecx
    4629:	7e 3a                	jle    4665 <set_up_ptrs_for_scheduled_decoding+0x105>
    462b:	41 8d 76 ff          	lea    -0x1(%r14),%esi
    462f:	48 8d 4c 9d 00       	lea    0x0(%rbp,%rbx,4),%rcx
    4634:	31 d2                	xor    %edx,%edx
    4636:	eb 0b                	jmp    4643 <set_up_ptrs_for_scheduled_decoding+0xe3>
    4638:	0f 1f 84 00 00 00 00 	nopl   0x0(%rax,%rax,1)
    463f:	00 
    4640:	48 89 c2             	mov    %rax,%rdx
    if (erased[i]) {
    4643:	8b 04 91             	mov    (%rcx,%rdx,4),%eax
    4646:	85 c0                	test   %eax,%eax
    4648:	74 12                	je     465c <set_up_ptrs_for_scheduled_decoding+0xfc>
      ptrs[x] = coding_ptrs[i-k];
    464a:	48 63 fa             	movslq %edx,%rdi
    464d:	49 8b 7c fd 00       	mov    0x0(%r13,%rdi,8),%rdi
    4652:	49 63 c2             	movslq %r10d,%rax
    4655:	49 89 3c c7          	mov    %rdi,(%r15,%rax,8)
      x++;
    4659:	41 ff c2             	inc    %r10d
  for (i = k; i < k+m; i++) {
    465c:	48 8d 42 01          	lea    0x1(%rdx),%rax
    4660:	48 39 d6             	cmp    %rdx,%rsi
    4663:	75 db                	jne    4640 <set_up_ptrs_for_scheduled_decoding+0xe0>
    }
  }
  free(erased);
    4665:	48 89 ef             	mov    %rbp,%rdi
    4668:	e8 13 cc ff ff       	callq  1280 <free@plt>
  return ptrs;
}
    466d:	48 83 c4 18          	add    $0x18,%rsp
    4671:	5b                   	pop    %rbx
    4672:	5d                   	pop    %rbp
    4673:	41 5c                	pop    %r12
    4675:	41 5d                	pop    %r13
    4677:	41 5e                	pop    %r14
    4679:	4c 89 f8             	mov    %r15,%rax
    467c:	41 5f                	pop    %r15
    467e:	c3                   	retq   
  if (erased == NULL) return NULL;
    467f:	45 31 ff             	xor    %r15d,%r15d
    4682:	eb e9                	jmp    466d <set_up_ptrs_for_scheduled_decoding+0x10d>
  for (i = 0; i < k; i++) {
    4684:	41 89 da             	mov    %ebx,%r10d
    4687:	eb 9e                	jmp    4627 <set_up_ptrs_for_scheduled_decoding+0xc7>
    4689:	0f 1f 80 00 00 00 00 	nopl   0x0(%rax)

0000000000004690 <jerasure_free_schedule>:
{
    4690:	f3 0f 1e fa          	endbr64 
    4694:	55                   	push   %rbp
    4695:	48 89 fd             	mov    %rdi,%rbp
    4698:	53                   	push   %rbx
    4699:	48 83 ec 08          	sub    $0x8,%rsp
  for (i = 0; schedule[i][0] >= 0; i++) free(schedule[i]);
    469d:	48 8b 3f             	mov    (%rdi),%rdi
    46a0:	8b 17                	mov    (%rdi),%edx
    46a2:	85 d2                	test   %edx,%edx
    46a4:	78 1c                	js     46c2 <jerasure_free_schedule+0x32>
    46a6:	48 8d 5d 08          	lea    0x8(%rbp),%rbx
    46aa:	66 0f 1f 44 00 00    	nopw   0x0(%rax,%rax,1)
    46b0:	e8 cb cb ff ff       	callq  1280 <free@plt>
    46b5:	48 8b 3b             	mov    (%rbx),%rdi
    46b8:	48 83 c3 08          	add    $0x8,%rbx
    46bc:	8b 07                	mov    (%rdi),%eax
    46be:	85 c0                	test   %eax,%eax
    46c0:	79 ee                	jns    46b0 <jerasure_free_schedule+0x20>
  free(schedule[i]);
    46c2:	e8 b9 cb ff ff       	callq  1280 <free@plt>
}
    46c7:	48 83 c4 08          	add    $0x8,%rsp
    46cb:	5b                   	pop    %rbx
  free(schedule);
    46cc:	48 89 ef             	mov    %rbp,%rdi
}
    46cf:	5d                   	pop    %rbp
  free(schedule);
    46d0:	e9 ab cb ff ff       	jmpq   1280 <free@plt>
    46d5:	66 66 2e 0f 1f 84 00 	data16 nopw %cs:0x0(%rax,%rax,1)
    46dc:	00 00 00 00 

00000000000046e0 <jerasure_free_schedule_cache>:
{
    46e0:	f3 0f 1e fa          	endbr64 
    46e4:	41 57                	push   %r15
    46e6:	41 56                	push   %r14
    46e8:	41 55                	push   %r13
    46ea:	41 54                	push   %r12
    46ec:	55                   	push   %rbp
    46ed:	53                   	push   %rbx
    46ee:	48 83 ec 28          	sub    $0x28,%rsp
    46f2:	48 89 54 24 18       	mov    %rdx,0x18(%rsp)
  if (m != 2) {
    46f7:	83 fe 02             	cmp    $0x2,%esi
    46fa:	0f 85 88 00 00 00    	jne    4788 <jerasure_free_schedule_cache+0xa8>
  for (e1 = 0; e1 < k+m; e1++) {
    4700:	8d 47 02             	lea    0x2(%rdi),%eax
    4703:	89 44 24 0c          	mov    %eax,0xc(%rsp)
    4707:	85 c0                	test   %eax,%eax
    4709:	7e 65                	jle    4770 <jerasure_free_schedule_cache+0x90>
    470b:	4c 63 f0             	movslq %eax,%r14
    470e:	4e 8d 3c f5 00 00 00 	lea    0x0(,%r14,8),%r15
    4715:	00 
    4716:	49 8d 47 08          	lea    0x8(%r15),%rax
    471a:	48 89 44 24 10       	mov    %rax,0x10(%rsp)
    471f:	49 f7 de             	neg    %r14
    4722:	4e 8d 24 3a          	lea    (%rdx,%r15,1),%r12
    4726:	4a 8d 5c 3a 08       	lea    0x8(%rdx,%r15,1),%rbx
    472b:	49 c1 e6 03          	shl    $0x3,%r14
    472f:	31 ed                	xor    %ebp,%ebp
    4731:	0f 1f 80 00 00 00 00 	nopl   0x0(%rax)
    jerasure_free_schedule(cache[e1*(k+m)+e1]);
    4738:	4a 8b 7c 33 f8       	mov    -0x8(%rbx,%r14,1),%rdi
  for (e1 = 0; e1 < k+m; e1++) {
    473d:	ff c5                	inc    %ebp
    jerasure_free_schedule(cache[e1*(k+m)+e1]);
    473f:	e8 4c ff ff ff       	callq  4690 <jerasure_free_schedule>
  for (e1 = 0; e1 < k+m; e1++) {
    4744:	3b 6c 24 0c          	cmp    0xc(%rsp),%ebp
    4748:	74 26                	je     4770 <jerasure_free_schedule_cache+0x90>
    474a:	4d 89 e5             	mov    %r12,%r13
    474d:	0f 1f 00             	nopl   (%rax)
      jerasure_free_schedule(cache[e1*(k+m)+e2]);
    4750:	49 8b 7d 00          	mov    0x0(%r13),%rdi
    4754:	49 83 c5 08          	add    $0x8,%r13
    4758:	e8 33 ff ff ff       	callq  4690 <jerasure_free_schedule>
    for (e2 = 0; e2 < e1; e2++) {
    475d:	49 39 dd             	cmp    %rbx,%r13
    4760:	75 ee                	jne    4750 <jerasure_free_schedule_cache+0x70>
    4762:	4d 01 fc             	add    %r15,%r12
    4765:	48 03 5c 24 10       	add    0x10(%rsp),%rbx
    476a:	eb cc                	jmp    4738 <jerasure_free_schedule_cache+0x58>
    476c:	0f 1f 40 00          	nopl   0x0(%rax)
  free(cache);
    4770:	48 8b 7c 24 18       	mov    0x18(%rsp),%rdi
}
    4775:	48 83 c4 28          	add    $0x28,%rsp
    4779:	5b                   	pop    %rbx
    477a:	5d                   	pop    %rbp
    477b:	41 5c                	pop    %r12
    477d:	41 5d                	pop    %r13
    477f:	41 5e                	pop    %r14
    4781:	41 5f                	pop    %r15
  free(cache);
    4783:	e9 f8 ca ff ff       	jmpq   1280 <free@plt>
    4788:	48 8b 0d b1 c9 00 00 	mov    0xc9b1(%rip),%rcx        # 11140 <stderr@@GLIBC_2.2.5>
    478f:	48 8d 3d a2 5f 00 00 	lea    0x5fa2(%rip),%rdi        # a738 <__PRETTY_FUNCTION__.5741+0x5f>
    4796:	ba 2f 00 00 00       	mov    $0x2f,%edx
    479b:	be 01 00 00 00       	mov    $0x1,%esi
    47a0:	e8 cb cc ff ff       	callq  1470 <fwrite@plt>
    exit(1);
    47a5:	bf 01 00 00 00       	mov    $0x1,%edi
    47aa:	e8 b1 cc ff ff       	callq  1460 <exit@plt>
    47af:	90                   	nop

00000000000047b0 <jerasure_matrix_dotprod>:
{
    47b0:	f3 0f 1e fa          	endbr64 
    47b4:	41 57                	push   %r15
    47b6:	41 56                	push   %r14
    47b8:	41 55                	push   %r13
    47ba:	41 54                	push   %r12
    47bc:	55                   	push   %rbp
    47bd:	53                   	push   %rbx
    47be:	48 83 ec 28          	sub    $0x28,%rsp
    47c2:	4c 89 4c 24 08       	mov    %r9,0x8(%rsp)
    47c7:	89 7c 24 18          	mov    %edi,0x18(%rsp)
    47cb:	44 8b 4c 24 68       	mov    0x68(%rsp),%r9d
  if (w != 1 && w != 8 && w != 16 && w != 32) {
    47d0:	83 fe 20             	cmp    $0x20,%esi
    47d3:	0f 87 af 01 00 00    	ja     4988 <jerasure_matrix_dotprod+0x1d8>
    47d9:	48 b8 02 01 01 00 01 	movabs $0x100010102,%rax
    47e0:	00 00 00 
    47e3:	48 0f a3 f0          	bt     %rsi,%rax
    47e7:	89 f5                	mov    %esi,%ebp
    47e9:	0f 83 99 01 00 00    	jae    4988 <jerasure_matrix_dotprod+0x1d8>
    47ef:	48 89 d3             	mov    %rdx,%rbx
    47f2:	49 89 cd             	mov    %rcx,%r13
  dptr = (dest_id < k) ? data_ptrs[dest_id] : coding_ptrs[dest_id-k];
    47f5:	44 3b 44 24 18       	cmp    0x18(%rsp),%r8d
    47fa:	0f 8c b0 01 00 00    	jl     49b0 <jerasure_matrix_dotprod+0x200>
    4800:	48 8b 44 24 60       	mov    0x60(%rsp),%rax
    4805:	44 2b 44 24 18       	sub    0x18(%rsp),%r8d
    480a:	4d 63 c0             	movslq %r8d,%r8
    480d:	4e 8b 34 c0          	mov    (%rax,%r8,8),%r14
  for (i = 0; i < k; i++) {
    4811:	8b 44 24 18          	mov    0x18(%rsp),%eax
    4815:	85 c0                	test   %eax,%eax
    4817:	0f 8e ab 01 00 00    	jle    49c8 <jerasure_matrix_dotprod+0x218>
    481d:	44 8d 60 ff          	lea    -0x1(%rax),%r12d
        memcpy(dptr, sptr, size);
    4821:	49 63 c9             	movslq %r9d,%rcx
  init = 0;
    4824:	31 c0                	xor    %eax,%eax
    4826:	89 6c 24 1c          	mov    %ebp,0x1c(%rsp)
        memcpy(dptr, sptr, size);
    482a:	48 89 4c 24 10       	mov    %rcx,0x10(%rsp)
    482f:	4c 89 f5             	mov    %r14,%rbp
  for (i = 0; i < k; i++) {
    4832:	45 31 ff             	xor    %r15d,%r15d
    4835:	4d 89 ee             	mov    %r13,%r14
    4838:	49 89 dd             	mov    %rbx,%r13
    483b:	89 c3                	mov    %eax,%ebx
    483d:	eb 0d                	jmp    484c <jerasure_matrix_dotprod+0x9c>
    483f:	90                   	nop
    4840:	49 8d 57 01          	lea    0x1(%r15),%rdx
    4844:	4d 39 fc             	cmp    %r15,%r12
    4847:	74 77                	je     48c0 <jerasure_matrix_dotprod+0x110>
    4849:	49 89 d7             	mov    %rdx,%r15
    if (matrix_row[i] == 1) {
    484c:	43 83 7c bd 00 01    	cmpl   $0x1,0x0(%r13,%r15,4)
    4852:	75 ec                	jne    4840 <jerasure_matrix_dotprod+0x90>
      if (src_ids == NULL) {
    4854:	4d 85 f6             	test   %r14,%r14
    4857:	0f 84 23 02 00 00    	je     4a80 <jerasure_matrix_dotprod+0x2d0>
      } else if (src_ids[i] < k) {
    485d:	4b 63 14 be          	movslq (%r14,%r15,4),%rdx
    4861:	3b 54 24 18          	cmp    0x18(%rsp),%edx
    4865:	0f 8d b5 01 00 00    	jge    4a20 <jerasure_matrix_dotprod+0x270>
        sptr = data_ptrs[src_ids[i]];
    486b:	48 8b 44 24 08       	mov    0x8(%rsp),%rax
    4870:	48 8b 3c d0          	mov    (%rax,%rdx,8),%rdi
      if (init == 0) {
    4874:	85 db                	test   %ebx,%ebx
    4876:	0f 85 64 01 00 00    	jne    49e0 <jerasure_matrix_dotprod+0x230>
    487c:	48 8b 54 24 10       	mov    0x10(%rsp),%rdx
    4881:	48 89 fe             	mov    %rdi,%rsi
    4884:	48 89 ef             	mov    %rbp,%rdi
    4887:	44 89 4c 24 68       	mov    %r9d,0x68(%rsp)
    488c:	e8 2f cb ff ff       	callq  13c0 <memcpy@plt>
        jerasure_total_memcpy_bytes += size;
    4891:	44 8b 4c 24 68       	mov    0x68(%rsp),%r9d
    4896:	c5 e9 57 d2          	vxorpd %xmm2,%xmm2,%xmm2
    489a:	c4 c1 6b 2a c1       	vcvtsi2sd %r9d,%xmm2,%xmm0
        init = 1;
    489f:	bb 01 00 00 00       	mov    $0x1,%ebx
    48a4:	49 8d 57 01          	lea    0x1(%r15),%rdx
        jerasure_total_memcpy_bytes += size;
    48a8:	c5 fb 58 05 a0 c8 00 	vaddsd 0xc8a0(%rip),%xmm0,%xmm0        # 11150 <jerasure_total_memcpy_bytes>
    48af:	00 
    48b0:	c5 fb 11 05 98 c8 00 	vmovsd %xmm0,0xc898(%rip)        # 11150 <jerasure_total_memcpy_bytes>
    48b7:	00 
  for (i = 0; i < k; i++) {
    48b8:	4d 39 fc             	cmp    %r15,%r12
    48bb:	75 8c                	jne    4849 <jerasure_matrix_dotprod+0x99>
    48bd:	0f 1f 00             	nopl   (%rax)
    48c0:	89 d8                	mov    %ebx,%eax
    48c2:	4c 89 eb             	mov    %r13,%rbx
    48c5:	4d 89 f5             	mov    %r14,%r13
    48c8:	49 89 ee             	mov    %rbp,%r14
    48cb:	8b 6c 24 1c          	mov    0x1c(%rsp),%ebp
    48cf:	41 89 c0             	mov    %eax,%r8d
    48d2:	4c 89 e8             	mov    %r13,%rax
    48d5:	4c 89 74 24 10       	mov    %r14,0x10(%rsp)
    48da:	41 89 ed             	mov    %ebp,%r13d
    48dd:	45 31 ff             	xor    %r15d,%r15d
    48e0:	48 89 dd             	mov    %rbx,%rbp
    48e3:	45 89 ce             	mov    %r9d,%r14d
    48e6:	48 89 c3             	mov    %rax,%rbx
    48e9:	eb 57                	jmp    4942 <jerasure_matrix_dotprod+0x192>
    48eb:	0f 1f 44 00 00       	nopl   0x0(%rax,%rax,1)
        sptr = data_ptrs[src_ids[i]];
    48f0:	48 8b 44 24 08       	mov    0x8(%rsp),%rax
    48f5:	48 8b 3c d0          	mov    (%rax,%rdx,8),%rdi
      switch (w) {
    48f9:	41 83 fd 10          	cmp    $0x10,%r13d
    48fd:	74 76                	je     4975 <jerasure_matrix_dotprod+0x1c5>
    48ff:	41 83 fd 20          	cmp    $0x20,%r13d
    4903:	0f 84 5f 01 00 00    	je     4a68 <jerasure_matrix_dotprod+0x2b8>
    4909:	41 83 fd 08          	cmp    $0x8,%r13d
    490d:	0f 84 3d 01 00 00    	je     4a50 <jerasure_matrix_dotprod+0x2a0>
      jerasure_total_gf_bytes += size;
    4913:	c5 f1 57 c9          	vxorpd %xmm1,%xmm1,%xmm1
    4917:	c4 c1 73 2a c6       	vcvtsi2sd %r14d,%xmm1,%xmm0
      init = 1;
    491c:	41 b8 01 00 00 00    	mov    $0x1,%r8d
      jerasure_total_gf_bytes += size;
    4922:	c5 fb 58 05 2e c8 00 	vaddsd 0xc82e(%rip),%xmm0,%xmm0        # 11158 <jerasure_total_gf_bytes>
    4929:	00 
    492a:	c5 fb 11 05 26 c8 00 	vmovsd %xmm0,0xc826(%rip)        # 11158 <jerasure_total_gf_bytes>
    4931:	00 
  for (i = 0; i < k; i++) {
    4932:	49 8d 57 01          	lea    0x1(%r15),%rdx
    4936:	4d 39 fc             	cmp    %r15,%r12
    4939:	0f 84 89 00 00 00    	je     49c8 <jerasure_matrix_dotprod+0x218>
    493f:	49 89 d7             	mov    %rdx,%r15
    if (matrix_row[i] != 0 && matrix_row[i] != 1) {
    4942:	42 8b 74 bd 00       	mov    0x0(%rbp,%r15,4),%esi
    4947:	83 fe 01             	cmp    $0x1,%esi
    494a:	76 e6                	jbe    4932 <jerasure_matrix_dotprod+0x182>
      if (src_ids == NULL) {
    494c:	48 85 db             	test   %rbx,%rbx
    494f:	0f 84 e3 00 00 00    	je     4a38 <jerasure_matrix_dotprod+0x288>
      } else if (src_ids[i] < k) {
    4955:	4a 63 14 bb          	movslq (%rbx,%r15,4),%rdx
    4959:	3b 54 24 18          	cmp    0x18(%rsp),%edx
    495d:	7c 91                	jl     48f0 <jerasure_matrix_dotprod+0x140>
        sptr = coding_ptrs[src_ids[i]-k];
    495f:	48 8b 44 24 60       	mov    0x60(%rsp),%rax
    4964:	2b 54 24 18          	sub    0x18(%rsp),%edx
    4968:	48 63 d2             	movslq %edx,%rdx
    496b:	48 8b 3c d0          	mov    (%rax,%rdx,8),%rdi
      switch (w) {
    496f:	41 83 fd 10          	cmp    $0x10,%r13d
    4973:	75 8a                	jne    48ff <jerasure_matrix_dotprod+0x14f>
        case 16: galois_w16_region_multiply(sptr, matrix_row[i], size, dptr, init); break;
    4975:	48 8b 4c 24 10       	mov    0x10(%rsp),%rcx
    497a:	44 89 f2             	mov    %r14d,%edx
    497d:	e8 ee 31 00 00       	callq  7b70 <galois_w16_region_multiply>
    4982:	eb 8f                	jmp    4913 <jerasure_matrix_dotprod+0x163>
    4984:	0f 1f 40 00          	nopl   0x0(%rax)
    4988:	48 8b 0d b1 c7 00 00 	mov    0xc7b1(%rip),%rcx        # 11140 <stderr@@GLIBC_2.2.5>
    498f:	48 8d 3d d2 5d 00 00 	lea    0x5dd2(%rip),%rdi        # a768 <__PRETTY_FUNCTION__.5741+0x8f>
    4996:	ba 44 00 00 00       	mov    $0x44,%edx
    499b:	be 01 00 00 00       	mov    $0x1,%esi
    49a0:	e8 cb ca ff ff       	callq  1470 <fwrite@plt>
    exit(1);
    49a5:	bf 01 00 00 00       	mov    $0x1,%edi
    49aa:	e8 b1 ca ff ff       	callq  1460 <exit@plt>
    49af:	90                   	nop
  dptr = (dest_id < k) ? data_ptrs[dest_id] : coding_ptrs[dest_id-k];
    49b0:	48 8b 44 24 08       	mov    0x8(%rsp),%rax
    49b5:	4d 63 c0             	movslq %r8d,%r8
    49b8:	4e 8b 34 c0          	mov    (%rax,%r8,8),%r14
  for (i = 0; i < k; i++) {
    49bc:	8b 44 24 18          	mov    0x18(%rsp),%eax
    49c0:	85 c0                	test   %eax,%eax
    49c2:	0f 8f 55 fe ff ff    	jg     481d <jerasure_matrix_dotprod+0x6d>
}
    49c8:	48 83 c4 28          	add    $0x28,%rsp
    49cc:	5b                   	pop    %rbx
    49cd:	5d                   	pop    %rbp
    49ce:	41 5c                	pop    %r12
    49d0:	41 5d                	pop    %r13
    49d2:	41 5e                	pop    %r14
    49d4:	41 5f                	pop    %r15
    49d6:	c3                   	retq   
    49d7:	66 0f 1f 84 00 00 00 	nopw   0x0(%rax,%rax,1)
    49de:	00 00 
        galois_region_xor(sptr, dptr, dptr, size);
    49e0:	44 89 c9             	mov    %r9d,%ecx
    49e3:	48 89 ea             	mov    %rbp,%rdx
    49e6:	48 89 ee             	mov    %rbp,%rsi
    49e9:	44 89 4c 24 68       	mov    %r9d,0x68(%rsp)
    49ee:	e8 2d 37 00 00       	callq  8120 <galois_region_xor>
        jerasure_total_xor_bytes += size;
    49f3:	44 8b 4c 24 68       	mov    0x68(%rsp),%r9d
    49f8:	c5 e1 57 db          	vxorpd %xmm3,%xmm3,%xmm3
    49fc:	c4 c1 63 2a c1       	vcvtsi2sd %r9d,%xmm3,%xmm0
    4a01:	c5 fb 58 05 57 c7 00 	vaddsd 0xc757(%rip),%xmm0,%xmm0        # 11160 <jerasure_total_xor_bytes>
    4a08:	00 
    4a09:	c5 fb 11 05 4f c7 00 	vmovsd %xmm0,0xc74f(%rip)        # 11160 <jerasure_total_xor_bytes>
    4a10:	00 
    4a11:	e9 2a fe ff ff       	jmpq   4840 <jerasure_matrix_dotprod+0x90>
    4a16:	66 2e 0f 1f 84 00 00 	nopw   %cs:0x0(%rax,%rax,1)
    4a1d:	00 00 00 
        sptr = coding_ptrs[src_ids[i]-k];
    4a20:	48 8b 44 24 60       	mov    0x60(%rsp),%rax
    4a25:	2b 54 24 18          	sub    0x18(%rsp),%edx
    4a29:	48 63 d2             	movslq %edx,%rdx
    4a2c:	48 8b 3c d0          	mov    (%rax,%rdx,8),%rdi
    4a30:	e9 3f fe ff ff       	jmpq   4874 <jerasure_matrix_dotprod+0xc4>
    4a35:	0f 1f 00             	nopl   (%rax)
        sptr = data_ptrs[i];
    4a38:	48 8b 44 24 08       	mov    0x8(%rsp),%rax
    4a3d:	4a 8b 3c f8          	mov    (%rax,%r15,8),%rdi
    4a41:	e9 b3 fe ff ff       	jmpq   48f9 <jerasure_matrix_dotprod+0x149>
    4a46:	66 2e 0f 1f 84 00 00 	nopw   %cs:0x0(%rax,%rax,1)
    4a4d:	00 00 00 
        case 8:  galois_w08_region_multiply(sptr, matrix_row[i], size, dptr, init); break;
    4a50:	48 8b 4c 24 10       	mov    0x10(%rsp),%rcx
    4a55:	44 89 f2             	mov    %r14d,%edx
    4a58:	e8 93 2f 00 00       	callq  79f0 <galois_w08_region_multiply>
    4a5d:	e9 b1 fe ff ff       	jmpq   4913 <jerasure_matrix_dotprod+0x163>
    4a62:	66 0f 1f 44 00 00    	nopw   0x0(%rax,%rax,1)
        case 32: galois_w32_region_multiply(sptr, matrix_row[i], size, dptr, init); break;
    4a68:	48 8b 4c 24 10       	mov    0x10(%rsp),%rcx
    4a6d:	44 89 f2             	mov    %r14d,%edx
    4a70:	e8 2b 38 00 00       	callq  82a0 <galois_w32_region_multiply>
    4a75:	e9 99 fe ff ff       	jmpq   4913 <jerasure_matrix_dotprod+0x163>
    4a7a:	66 0f 1f 44 00 00    	nopw   0x0(%rax,%rax,1)
        sptr = data_ptrs[i];
    4a80:	48 8b 44 24 08       	mov    0x8(%rsp),%rax
    4a85:	4a 8b 3c f8          	mov    (%rax,%r15,8),%rdi
    4a89:	e9 e6 fd ff ff       	jmpq   4874 <jerasure_matrix_dotprod+0xc4>
    4a8e:	66 90                	xchg   %ax,%ax

0000000000004a90 <jerasure_matrix_decode>:
{
    4a90:	f3 0f 1e fa          	endbr64 
    4a94:	41 57                	push   %r15
    4a96:	41 56                	push   %r14
    4a98:	41 55                	push   %r13
    4a9a:	41 89 d5             	mov    %edx,%r13d
  if (w != 8 && w != 16 && w != 32) return -1;
    4a9d:	41 8d 45 f8          	lea    -0x8(%r13),%eax
{
    4aa1:	41 54                	push   %r12
    4aa3:	4c 89 ca             	mov    %r9,%rdx
    4aa6:	55                   	push   %rbp
    4aa7:	44 89 c5             	mov    %r8d,%ebp
    4aaa:	53                   	push   %rbx
    4aab:	89 fb                	mov    %edi,%ebx
    4aad:	48 83 ec 48          	sub    $0x48,%rsp
  if (w != 8 && w != 16 && w != 32) return -1;
    4ab1:	83 e0 f7             	and    $0xfffffff7,%eax
{
    4ab4:	89 74 24 20          	mov    %esi,0x20(%rsp)
    4ab8:	48 89 4c 24 18       	mov    %rcx,0x18(%rsp)
  if (w != 8 && w != 16 && w != 32) return -1;
    4abd:	74 0a                	je     4ac9 <jerasure_matrix_decode+0x39>
    4abf:	41 83 fd 20          	cmp    $0x20,%r13d
    4ac3:	0f 85 e9 03 00 00    	jne    4eb2 <jerasure_matrix_decode+0x422>
  erased = jerasure_erasures_to_erased(k, m, erasures);
    4ac9:	8b 74 24 20          	mov    0x20(%rsp),%esi
    4acd:	89 df                	mov    %ebx,%edi
    4acf:	e8 fc f9 ff ff       	callq  44d0 <jerasure_erasures_to_erased>
    4ad4:	49 89 c6             	mov    %rax,%r14
  if (erased == NULL) return -1;
    4ad7:	48 85 c0             	test   %rax,%rax
    4ada:	0f 84 d2 03 00 00    	je     4eb2 <jerasure_matrix_decode+0x422>
  for (i = 0; i < k; i++) {
    4ae0:	85 db                	test   %ebx,%ebx
    4ae2:	0f 8e 68 03 00 00    	jle    4e50 <jerasure_matrix_decode+0x3c0>
    4ae8:	8d 4b ff             	lea    -0x1(%rbx),%ecx
    4aeb:	89 4c 24 3c          	mov    %ecx,0x3c(%rsp)
    4aef:	41 89 df             	mov    %ebx,%r15d
    4af2:	31 c0                	xor    %eax,%eax
  edd = 0;
    4af4:	45 31 e4             	xor    %r12d,%r12d
    4af7:	eb 0a                	jmp    4b03 <jerasure_matrix_decode+0x73>
    4af9:	0f 1f 80 00 00 00 00 	nopl   0x0(%rax)
    4b00:	48 89 d0             	mov    %rdx,%rax
    if (erased[i]) {
    4b03:	45 8b 04 86          	mov    (%r14,%rax,4),%r8d
    4b07:	45 85 c0             	test   %r8d,%r8d
    4b0a:	74 06                	je     4b12 <jerasure_matrix_decode+0x82>
      edd++;
    4b0c:	41 ff c4             	inc    %r12d
    4b0f:	41 89 c7             	mov    %eax,%r15d
  for (i = 0; i < k; i++) {
    4b12:	48 8d 50 01          	lea    0x1(%rax),%rdx
    4b16:	48 39 c1             	cmp    %rax,%rcx
    4b19:	75 e5                	jne    4b00 <jerasure_matrix_decode+0x70>
  if (!row_k_ones || erased[k]) lastdrive = k;
    4b1b:	85 ed                	test   %ebp,%ebp
    4b1d:	0f 84 2d 02 00 00    	je     4d50 <jerasure_matrix_decode+0x2c0>
    4b23:	48 63 c3             	movslq %ebx,%rax
    4b26:	41 8b 3c 86          	mov    (%r14,%rax,4),%edi
    4b2a:	85 ff                	test   %edi,%edi
    4b2c:	44 0f 45 fb          	cmovne %ebx,%r15d
  if (edd > 1 || (edd > 0 && (!row_k_ones || erased[k]))) {
    4b30:	41 83 fc 01          	cmp    $0x1,%r12d
    4b34:	0f 8f 23 02 00 00    	jg     4d5d <jerasure_matrix_decode+0x2cd>
    4b3a:	0f 85 f8 02 00 00    	jne    4e38 <jerasure_matrix_decode+0x3a8>
    4b40:	48 63 c3             	movslq %ebx,%rax
    4b43:	48 89 44 24 28       	mov    %rax,0x28(%rsp)
    4b48:	48 8d 3c 85 00 00 00 	lea    0x0(,%rax,4),%rdi
    4b4f:	00 
    4b50:	85 ed                	test   %ebp,%ebp
    4b52:	0f 85 98 02 00 00    	jne    4df0 <jerasure_matrix_decode+0x360>
    dm_ids = talloc(int, k);
    4b58:	e8 a3 c8 ff ff       	callq  1400 <malloc@plt>
    4b5d:	48 89 44 24 08       	mov    %rax,0x8(%rsp)
    if (dm_ids == NULL) {
    4b62:	48 85 c0             	test   %rax,%rax
    4b65:	0f 84 3f 03 00 00    	je     4eaa <jerasure_matrix_decode+0x41a>
    decoding_matrix = talloc(int, k*k);
    4b6b:	89 df                	mov    %ebx,%edi
    4b6d:	0f af fb             	imul   %ebx,%edi
    4b70:	48 63 ff             	movslq %edi,%rdi
    4b73:	48 c1 e7 02          	shl    $0x2,%rdi
    4b77:	e8 84 c8 ff ff       	callq  1400 <malloc@plt>
    4b7c:	48 89 44 24 10       	mov    %rax,0x10(%rsp)
    if (decoding_matrix == NULL) {
    4b81:	48 85 c0             	test   %rax,%rax
    4b84:	0f 84 5a 03 00 00    	je     4ee4 <jerasure_matrix_decode+0x454>
    if (jerasure_make_decoding_matrix(k, m, w, matrix, erased, decoding_matrix, dm_ids) < 0) {
    4b8a:	48 83 ec 08          	sub    $0x8,%rsp
    4b8e:	ff 74 24 10          	pushq  0x10(%rsp)
    4b92:	44 89 ea             	mov    %r13d,%edx
    4b95:	4d 89 f0             	mov    %r14,%r8
    4b98:	4c 8b 4c 24 20       	mov    0x20(%rsp),%r9
    4b9d:	48 8b 4c 24 28       	mov    0x28(%rsp),%rcx
    4ba2:	8b 74 24 30          	mov    0x30(%rsp),%esi
    4ba6:	89 df                	mov    %ebx,%edi
    4ba8:	e8 03 f5 ff ff       	callq  40b0 <jerasure_make_decoding_matrix>
    4bad:	5a                   	pop    %rdx
    4bae:	59                   	pop    %rcx
    4baf:	85 c0                	test   %eax,%eax
    4bb1:	0f 88 06 03 00 00    	js     4ebd <jerasure_matrix_decode+0x42d>
  for (i = 0; edd > 0 && i < lastdrive; i++) {
    4bb7:	45 85 ff             	test   %r15d,%r15d
    4bba:	0f 8e b8 01 00 00    	jle    4d78 <jerasure_matrix_decode+0x2e8>
    4bc0:	4c 89 f5             	mov    %r14,%rbp
  decoding_matrix = NULL;
    4bc3:	31 c0                	xor    %eax,%eax
  for (i = 0; edd > 0 && i < lastdrive; i++) {
    4bc5:	45 31 c0             	xor    %r8d,%r8d
    4bc8:	4c 89 74 24 30       	mov    %r14,0x30(%rsp)
    4bcd:	44 89 6c 24 38       	mov    %r13d,0x38(%rsp)
    4bd2:	41 89 de             	mov    %ebx,%r14d
    4bd5:	45 89 fd             	mov    %r15d,%r13d
    4bd8:	48 89 eb             	mov    %rbp,%rbx
    4bdb:	45 89 e7             	mov    %r12d,%r15d
    4bde:	44 89 c5             	mov    %r8d,%ebp
    4be1:	41 89 c4             	mov    %eax,%r12d
    4be4:	eb 1d                	jmp    4c03 <jerasure_matrix_decode+0x173>
    4be6:	66 2e 0f 1f 84 00 00 	nopw   %cs:0x0(%rax,%rax,1)
    4bed:	00 00 00 
    4bf0:	ff c5                	inc    %ebp
    4bf2:	48 83 c3 04          	add    $0x4,%rbx
    4bf6:	45 01 f4             	add    %r14d,%r12d
    4bf9:	45 85 ff             	test   %r15d,%r15d
    4bfc:	7e 5a                	jle    4c58 <jerasure_matrix_decode+0x1c8>
    4bfe:	41 39 ed             	cmp    %ebp,%r13d
    4c01:	7e 55                	jle    4c58 <jerasure_matrix_decode+0x1c8>
    if (erased[i]) {
    4c03:	8b 03                	mov    (%rbx),%eax
    4c05:	85 c0                	test   %eax,%eax
    4c07:	74 e7                	je     4bf0 <jerasure_matrix_decode+0x160>
      jerasure_matrix_dotprod(k, w, decoding_matrix+(i*k), dm_ids, i, data_ptrs, coding_ptrs, size);
    4c09:	48 8b 44 24 10       	mov    0x10(%rsp),%rax
    4c0e:	49 63 d4             	movslq %r12d,%rdx
    4c11:	48 8d 14 90          	lea    (%rax,%rdx,4),%rdx
    4c15:	8b 84 24 90 00 00 00 	mov    0x90(%rsp),%eax
    4c1c:	41 89 e8             	mov    %ebp,%r8d
    4c1f:	50                   	push   %rax
    4c20:	44 89 f7             	mov    %r14d,%edi
      edd--;
    4c23:	41 ff cf             	dec    %r15d
      jerasure_matrix_dotprod(k, w, decoding_matrix+(i*k), dm_ids, i, data_ptrs, coding_ptrs, size);
    4c26:	ff b4 24 90 00 00 00 	pushq  0x90(%rsp)
  for (i = 0; edd > 0 && i < lastdrive; i++) {
    4c2d:	ff c5                	inc    %ebp
    4c2f:	48 83 c3 04          	add    $0x4,%rbx
      jerasure_matrix_dotprod(k, w, decoding_matrix+(i*k), dm_ids, i, data_ptrs, coding_ptrs, size);
    4c33:	4c 8b 8c 24 90 00 00 	mov    0x90(%rsp),%r9
    4c3a:	00 
    4c3b:	48 8b 4c 24 18       	mov    0x18(%rsp),%rcx
    4c40:	8b 74 24 48          	mov    0x48(%rsp),%esi
    4c44:	45 01 f4             	add    %r14d,%r12d
    4c47:	e8 64 fb ff ff       	callq  47b0 <jerasure_matrix_dotprod>
      edd--;
    4c4c:	41 5a                	pop    %r10
    4c4e:	41 5b                	pop    %r11
  for (i = 0; edd > 0 && i < lastdrive; i++) {
    4c50:	45 85 ff             	test   %r15d,%r15d
    4c53:	7f a9                	jg     4bfe <jerasure_matrix_decode+0x16e>
    4c55:	0f 1f 00             	nopl   (%rax)
    4c58:	45 89 fc             	mov    %r15d,%r12d
    4c5b:	44 89 f3             	mov    %r14d,%ebx
    4c5e:	45 89 ef             	mov    %r13d,%r15d
    4c61:	4c 8b 74 24 30       	mov    0x30(%rsp),%r14
    4c66:	44 8b 6c 24 38       	mov    0x38(%rsp),%r13d
  if (edd > 0) {
    4c6b:	45 85 e4             	test   %r12d,%r12d
    4c6e:	0f 85 04 01 00 00    	jne    4d78 <jerasure_matrix_decode+0x2e8>
  for (i = 0; i < m; i++) {
    4c74:	8b 7c 24 20          	mov    0x20(%rsp),%edi
    4c78:	48 63 c3             	movslq %ebx,%rax
    4c7b:	48 89 44 24 28       	mov    %rax,0x28(%rsp)
    4c80:	85 ff                	test   %edi,%edi
    4c82:	0f 8e 86 00 00 00    	jle    4d0e <jerasure_matrix_decode+0x27e>
    4c88:	48 8b 44 24 28       	mov    0x28(%rsp),%rax
  decoding_matrix = NULL;
    4c8d:	41 89 df             	mov    %ebx,%r15d
    4c90:	49 8d 2c 86          	lea    (%r14,%rax,4),%rbp
    4c94:	8b 44 24 20          	mov    0x20(%rsp),%eax
    4c98:	4c 89 74 24 20       	mov    %r14,0x20(%rsp)
    4c9d:	01 d8                	add    %ebx,%eax
    4c9f:	41 89 c6             	mov    %eax,%r14d
    4ca2:	44 89 e8             	mov    %r13d,%eax
    4ca5:	45 31 e4             	xor    %r12d,%r12d
    4ca8:	41 89 dd             	mov    %ebx,%r13d
    4cab:	89 c3                	mov    %eax,%ebx
    4cad:	eb 10                	jmp    4cbf <jerasure_matrix_decode+0x22f>
    4caf:	90                   	nop
  for (i = 0; i < m; i++) {
    4cb0:	41 ff c7             	inc    %r15d
    4cb3:	48 83 c5 04          	add    $0x4,%rbp
    4cb7:	45 01 ec             	add    %r13d,%r12d
    4cba:	45 39 fe             	cmp    %r15d,%r14d
    4cbd:	74 4a                	je     4d09 <jerasure_matrix_decode+0x279>
    if (erased[k+i]) {
    4cbf:	8b 75 00             	mov    0x0(%rbp),%esi
    4cc2:	85 f6                	test   %esi,%esi
    4cc4:	74 ea                	je     4cb0 <jerasure_matrix_decode+0x220>
      jerasure_matrix_dotprod(k, w, matrix+(i*k), NULL, i+k, data_ptrs, coding_ptrs, size);
    4cc6:	48 8b 44 24 18       	mov    0x18(%rsp),%rax
    4ccb:	49 63 d4             	movslq %r12d,%rdx
    4cce:	48 8d 14 90          	lea    (%rax,%rdx,4),%rdx
    4cd2:	8b 84 24 90 00 00 00 	mov    0x90(%rsp),%eax
    4cd9:	45 89 f8             	mov    %r15d,%r8d
    4cdc:	50                   	push   %rax
    4cdd:	31 c9                	xor    %ecx,%ecx
    4cdf:	89 de                	mov    %ebx,%esi
    4ce1:	ff b4 24 90 00 00 00 	pushq  0x90(%rsp)
    4ce8:	44 89 ef             	mov    %r13d,%edi
    4ceb:	41 ff c7             	inc    %r15d
    4cee:	4c 8b 8c 24 90 00 00 	mov    0x90(%rsp),%r9
    4cf5:	00 
    4cf6:	48 83 c5 04          	add    $0x4,%rbp
    4cfa:	e8 b1 fa ff ff       	callq  47b0 <jerasure_matrix_dotprod>
    4cff:	5a                   	pop    %rdx
    4d00:	59                   	pop    %rcx
  for (i = 0; i < m; i++) {
    4d01:	45 01 ec             	add    %r13d,%r12d
    4d04:	45 39 fe             	cmp    %r15d,%r14d
    4d07:	75 b6                	jne    4cbf <jerasure_matrix_decode+0x22f>
    4d09:	4c 8b 74 24 20       	mov    0x20(%rsp),%r14
  free(erased);
    4d0e:	4c 89 f7             	mov    %r14,%rdi
    4d11:	e8 6a c5 ff ff       	callq  1280 <free@plt>
  if (dm_ids != NULL) free(dm_ids);
    4d16:	48 83 7c 24 08 00    	cmpq   $0x0,0x8(%rsp)
    4d1c:	74 0a                	je     4d28 <jerasure_matrix_decode+0x298>
    4d1e:	48 8b 7c 24 08       	mov    0x8(%rsp),%rdi
    4d23:	e8 58 c5 ff ff       	callq  1280 <free@plt>
  if (decoding_matrix != NULL) free(decoding_matrix);
    4d28:	48 8b 44 24 10       	mov    0x10(%rsp),%rax
  return 0;
    4d2d:	45 31 e4             	xor    %r12d,%r12d
  if (decoding_matrix != NULL) free(decoding_matrix);
    4d30:	48 85 c0             	test   %rax,%rax
    4d33:	74 08                	je     4d3d <jerasure_matrix_decode+0x2ad>
    4d35:	48 89 c7             	mov    %rax,%rdi
    4d38:	e8 43 c5 ff ff       	callq  1280 <free@plt>
}
    4d3d:	48 83 c4 48          	add    $0x48,%rsp
    4d41:	5b                   	pop    %rbx
    4d42:	5d                   	pop    %rbp
    4d43:	44 89 e0             	mov    %r12d,%eax
    4d46:	41 5c                	pop    %r12
    4d48:	41 5d                	pop    %r13
    4d4a:	41 5e                	pop    %r14
    4d4c:	41 5f                	pop    %r15
    4d4e:	c3                   	retq   
    4d4f:	90                   	nop
    4d50:	41 89 df             	mov    %ebx,%r15d
  if (edd > 1 || (edd > 0 && (!row_k_ones || erased[k]))) {
    4d53:	41 83 fc 01          	cmp    $0x1,%r12d
    4d57:	0f 8e dd fd ff ff    	jle    4b3a <jerasure_matrix_decode+0xaa>
    4d5d:	48 63 c3             	movslq %ebx,%rax
    4d60:	48 89 44 24 28       	mov    %rax,0x28(%rsp)
    4d65:	48 8d 3c 85 00 00 00 	lea    0x0(,%rax,4),%rdi
    4d6c:	00 
    4d6d:	e9 e6 fd ff ff       	jmpq   4b58 <jerasure_matrix_decode+0xc8>
    4d72:	66 0f 1f 44 00 00    	nopw   0x0(%rax,%rax,1)
    tmpids = talloc(int, k);
    4d78:	48 8b 7c 24 28       	mov    0x28(%rsp),%rdi
    4d7d:	48 c1 e7 02          	shl    $0x2,%rdi
    4d81:	e8 7a c6 ff ff       	callq  1400 <malloc@plt>
    4d86:	48 89 c5             	mov    %rax,%rbp
    for (i = 0; i < k; i++) {
    4d89:	85 db                	test   %ebx,%ebx
    4d8b:	7e 24                	jle    4db1 <jerasure_matrix_decode+0x321>
    4d8d:	8b 4c 24 3c          	mov    0x3c(%rsp),%ecx
  decoding_matrix = NULL;
    4d91:	31 d2                	xor    %edx,%edx
    4d93:	eb 06                	jmp    4d9b <jerasure_matrix_decode+0x30b>
    4d95:	0f 1f 00             	nopl   (%rax)
    4d98:	48 89 c2             	mov    %rax,%rdx
      tmpids[i] = (i < lastdrive) ? i : i+1;
    4d9b:	8d 42 01             	lea    0x1(%rdx),%eax
    4d9e:	41 39 d7             	cmp    %edx,%r15d
    4da1:	0f 4f c2             	cmovg  %edx,%eax
    4da4:	89 44 95 00          	mov    %eax,0x0(%rbp,%rdx,4)
    for (i = 0; i < k; i++) {
    4da8:	48 8d 42 01          	lea    0x1(%rdx),%rax
    4dac:	48 39 ca             	cmp    %rcx,%rdx
    4daf:	75 e7                	jne    4d98 <jerasure_matrix_decode+0x308>
    jerasure_matrix_dotprod(k, w, matrix, tmpids, lastdrive, data_ptrs, coding_ptrs, size);
    4db1:	8b 84 24 90 00 00 00 	mov    0x90(%rsp),%eax
    4db8:	45 89 f8             	mov    %r15d,%r8d
    4dbb:	50                   	push   %rax
    4dbc:	48 89 e9             	mov    %rbp,%rcx
    4dbf:	44 89 ee             	mov    %r13d,%esi
    4dc2:	ff b4 24 90 00 00 00 	pushq  0x90(%rsp)
    4dc9:	89 df                	mov    %ebx,%edi
    4dcb:	4c 8b 8c 24 90 00 00 	mov    0x90(%rsp),%r9
    4dd2:	00 
    4dd3:	48 8b 54 24 28       	mov    0x28(%rsp),%rdx
    4dd8:	e8 d3 f9 ff ff       	callq  47b0 <jerasure_matrix_dotprod>
    free(tmpids);
    4ddd:	48 89 ef             	mov    %rbp,%rdi
    4de0:	e8 9b c4 ff ff       	callq  1280 <free@plt>
    4de5:	41 58                	pop    %r8
    4de7:	41 59                	pop    %r9
    4de9:	e9 86 fe ff ff       	jmpq   4c74 <jerasure_matrix_decode+0x1e4>
    4dee:	66 90                	xchg   %ax,%ax
  if (edd > 1 || (edd > 0 && (!row_k_ones || erased[k]))) {
    4df0:	41 8b 34 86          	mov    (%r14,%rax,4),%esi
    4df4:	85 f6                	test   %esi,%esi
    4df6:	0f 85 5c fd ff ff    	jne    4b58 <jerasure_matrix_decode+0xc8>
  dm_ids = NULL;
    4dfc:	48 c7 44 24 08 00 00 	movq   $0x0,0x8(%rsp)
    4e03:	00 00 
  decoding_matrix = NULL;
    4e05:	48 c7 44 24 10 00 00 	movq   $0x0,0x10(%rsp)
    4e0c:	00 00 
  for (i = 0; edd > 0 && i < lastdrive; i++) {
    4e0e:	45 85 ff             	test   %r15d,%r15d
    4e11:	0f 85 a9 fd ff ff    	jne    4bc0 <jerasure_matrix_decode+0x130>
    tmpids = talloc(int, k);
    4e17:	e8 e4 c5 ff ff       	callq  1400 <malloc@plt>
    4e1c:	48 89 c5             	mov    %rax,%rbp
    for (i = 0; i < k; i++) {
    4e1f:	e9 69 ff ff ff       	jmpq   4d8d <jerasure_matrix_decode+0x2fd>
  if (!row_k_ones || erased[k]) lastdrive = k;
    4e24:	48 63 c3             	movslq %ebx,%rax
    4e27:	48 89 44 24 28       	mov    %rax,0x28(%rsp)
    4e2c:	41 8b 04 86          	mov    (%r14,%rax,4),%eax
    4e30:	85 c0                	test   %eax,%eax
    4e32:	74 48                	je     4e7c <jerasure_matrix_decode+0x3ec>
    4e34:	0f 1f 40 00          	nopl   0x0(%rax)
  dm_ids = NULL;
    4e38:	48 c7 44 24 08 00 00 	movq   $0x0,0x8(%rsp)
    4e3f:	00 00 
  decoding_matrix = NULL;
    4e41:	48 c7 44 24 10 00 00 	movq   $0x0,0x10(%rsp)
    4e48:	00 00 
    4e4a:	e9 25 fe ff ff       	jmpq   4c74 <jerasure_matrix_decode+0x1e4>
    4e4f:	90                   	nop
  if (!row_k_ones || erased[k]) lastdrive = k;
    4e50:	85 ed                	test   %ebp,%ebp
    4e52:	75 d0                	jne    4e24 <jerasure_matrix_decode+0x394>
  for (i = 0; i < m; i++) {
    4e54:	48 63 c3             	movslq %ebx,%rax
    4e57:	48 89 44 24 28       	mov    %rax,0x28(%rsp)
    4e5c:	8b 44 24 20          	mov    0x20(%rsp),%eax
  dm_ids = NULL;
    4e60:	48 c7 44 24 08 00 00 	movq   $0x0,0x8(%rsp)
    4e67:	00 00 
  decoding_matrix = NULL;
    4e69:	48 c7 44 24 10 00 00 	movq   $0x0,0x10(%rsp)
    4e70:	00 00 
  for (i = 0; i < m; i++) {
    4e72:	85 c0                	test   %eax,%eax
    4e74:	0f 8f 0e fe ff ff    	jg     4c88 <jerasure_matrix_decode+0x1f8>
    4e7a:	eb 1e                	jmp    4e9a <jerasure_matrix_decode+0x40a>
    4e7c:	8b 44 24 20          	mov    0x20(%rsp),%eax
  dm_ids = NULL;
    4e80:	48 c7 44 24 08 00 00 	movq   $0x0,0x8(%rsp)
    4e87:	00 00 
  decoding_matrix = NULL;
    4e89:	48 c7 44 24 10 00 00 	movq   $0x0,0x10(%rsp)
    4e90:	00 00 
  for (i = 0; i < m; i++) {
    4e92:	85 c0                	test   %eax,%eax
    4e94:	0f 8f ee fd ff ff    	jg     4c88 <jerasure_matrix_decode+0x1f8>
  free(erased);
    4e9a:	4c 89 f7             	mov    %r14,%rdi
    4e9d:	e8 de c3 ff ff       	callq  1280 <free@plt>
  return 0;
    4ea2:	45 31 e4             	xor    %r12d,%r12d
    4ea5:	e9 93 fe ff ff       	jmpq   4d3d <jerasure_matrix_decode+0x2ad>
      free(erased);
    4eaa:	4c 89 f7             	mov    %r14,%rdi
    4ead:	e8 ce c3 ff ff       	callq  1280 <free@plt>
      return -1;
    4eb2:	41 bc ff ff ff ff    	mov    $0xffffffff,%r12d
    4eb8:	e9 80 fe ff ff       	jmpq   4d3d <jerasure_matrix_decode+0x2ad>
      free(erased);
    4ebd:	4c 89 f7             	mov    %r14,%rdi
    4ec0:	e8 bb c3 ff ff       	callq  1280 <free@plt>
      free(dm_ids);
    4ec5:	48 8b 7c 24 08       	mov    0x8(%rsp),%rdi
      return -1;
    4eca:	41 bc ff ff ff ff    	mov    $0xffffffff,%r12d
      free(dm_ids);
    4ed0:	e8 ab c3 ff ff       	callq  1280 <free@plt>
      free(decoding_matrix);
    4ed5:	48 8b 7c 24 10       	mov    0x10(%rsp),%rdi
    4eda:	e8 a1 c3 ff ff       	callq  1280 <free@plt>
      return -1;
    4edf:	e9 59 fe ff ff       	jmpq   4d3d <jerasure_matrix_decode+0x2ad>
      free(erased);
    4ee4:	4c 89 f7             	mov    %r14,%rdi
    4ee7:	e8 94 c3 ff ff       	callq  1280 <free@plt>
      free(dm_ids);
    4eec:	48 8b 7c 24 08       	mov    0x8(%rsp),%rdi
      return -1;
    4ef1:	41 83 cc ff          	or     $0xffffffff,%r12d
      free(dm_ids);
    4ef5:	e8 86 c3 ff ff       	callq  1280 <free@plt>
      return -1;
    4efa:	e9 3e fe ff ff       	jmpq   4d3d <jerasure_matrix_decode+0x2ad>
    4eff:	90                   	nop

0000000000004f00 <jerasure_matrix_encode>:
{
    4f00:	f3 0f 1e fa          	endbr64 
    4f04:	41 57                	push   %r15
  if (w != 8 && w != 16 && w != 32) {
    4f06:	8d 42 f8             	lea    -0x8(%rdx),%eax
{
    4f09:	41 89 d7             	mov    %edx,%r15d
    4f0c:	41 56                	push   %r14
    4f0e:	41 55                	push   %r13
    4f10:	4d 89 cd             	mov    %r9,%r13
    4f13:	41 54                	push   %r12
    4f15:	4d 89 c4             	mov    %r8,%r12
    4f18:	55                   	push   %rbp
    4f19:	89 fd                	mov    %edi,%ebp
    4f1b:	53                   	push   %rbx
    4f1c:	48 83 ec 18          	sub    $0x18,%rsp
  if (w != 8 && w != 16 && w != 32) {
    4f20:	83 e0 f7             	and    $0xfffffff7,%eax
    4f23:	74 05                	je     4f2a <jerasure_matrix_encode+0x2a>
    4f25:	83 fa 20             	cmp    $0x20,%edx
    4f28:	75 60                	jne    4f8a <jerasure_matrix_encode+0x8a>
  for (i = 0; i < m; i++) {
    4f2a:	85 f6                	test   %esi,%esi
    4f2c:	7e 4d                	jle    4f7b <jerasure_matrix_encode+0x7b>
    4f2e:	4c 63 f5             	movslq %ebp,%r14
    4f31:	4a 8d 04 b5 00 00 00 	lea    0x0(,%r14,4),%rax
    4f38:	00 
    4f39:	48 89 04 24          	mov    %rax,(%rsp)
    4f3d:	8d 04 2e             	lea    (%rsi,%rbp,1),%eax
    4f40:	89 44 24 0c          	mov    %eax,0xc(%rsp)
    4f44:	49 89 ce             	mov    %rcx,%r14
    4f47:	89 eb                	mov    %ebp,%ebx
    4f49:	0f 1f 80 00 00 00 00 	nopl   0x0(%rax)
    jerasure_matrix_dotprod(k, w, matrix+(i*k), NULL, k+i, data_ptrs, coding_ptrs, size);
    4f50:	8b 44 24 50          	mov    0x50(%rsp),%eax
    4f54:	4c 89 f2             	mov    %r14,%rdx
    4f57:	50                   	push   %rax
    4f58:	41 89 d8             	mov    %ebx,%r8d
    4f5b:	4d 89 e1             	mov    %r12,%r9
    4f5e:	41 55                	push   %r13
    4f60:	31 c9                	xor    %ecx,%ecx
    4f62:	44 89 fe             	mov    %r15d,%esi
    4f65:	89 ef                	mov    %ebp,%edi
    4f67:	e8 44 f8 ff ff       	callq  47b0 <jerasure_matrix_dotprod>
  for (i = 0; i < m; i++) {
    4f6c:	4c 03 74 24 10       	add    0x10(%rsp),%r14
    4f71:	58                   	pop    %rax
    4f72:	ff c3                	inc    %ebx
    4f74:	5a                   	pop    %rdx
    4f75:	3b 5c 24 0c          	cmp    0xc(%rsp),%ebx
    4f79:	75 d5                	jne    4f50 <jerasure_matrix_encode+0x50>
}
    4f7b:	48 83 c4 18          	add    $0x18,%rsp
    4f7f:	5b                   	pop    %rbx
    4f80:	5d                   	pop    %rbp
    4f81:	41 5c                	pop    %r12
    4f83:	41 5d                	pop    %r13
    4f85:	41 5e                	pop    %r14
    4f87:	41 5f                	pop    %r15
    4f89:	c3                   	retq   
    4f8a:	48 8b 0d af c1 00 00 	mov    0xc1af(%rip),%rcx        # 11140 <stderr@@GLIBC_2.2.5>
    4f91:	48 8d 3d 18 58 00 00 	lea    0x5818(%rip),%rdi        # a7b0 <__PRETTY_FUNCTION__.5741+0xd7>
    4f98:	ba 39 00 00 00       	mov    $0x39,%edx
    4f9d:	be 01 00 00 00       	mov    $0x1,%esi
    4fa2:	e8 c9 c4 ff ff       	callq  1470 <fwrite@plt>
    exit(1);
    4fa7:	bf 01 00 00 00       	mov    $0x1,%edi
    4fac:	e8 af c4 ff ff       	callq  1460 <exit@plt>
    4fb1:	66 66 2e 0f 1f 84 00 	data16 nopw %cs:0x0(%rax,%rax,1)
    4fb8:	00 00 00 00 
    4fbc:	0f 1f 40 00          	nopl   0x0(%rax)

0000000000004fc0 <jerasure_invert_bitmatrix>:
  return scache;

}

int jerasure_invert_bitmatrix(int *mat, int *inv, int rows)
{
    4fc0:	f3 0f 1e fa          	endbr64 
    4fc4:	41 57                	push   %r15
    4fc6:	41 56                	push   %r14
    4fc8:	49 89 f6             	mov    %rsi,%r14
  int tmp;
 
  cols = rows;

  k = 0;
  for (i = 0; i < rows; i++) {
    4fcb:	8d 72 ff             	lea    -0x1(%rdx),%esi
{
    4fce:	41 55                	push   %r13
    4fd0:	41 54                	push   %r12
    4fd2:	55                   	push   %rbp
    4fd3:	53                   	push   %rbx
    4fd4:	89 74 24 f4          	mov    %esi,-0xc(%rsp)
  for (i = 0; i < rows; i++) {
    4fd8:	85 d2                	test   %edx,%edx
    4fda:	0f 8e a1 02 00 00    	jle    5281 <jerasure_invert_bitmatrix+0x2c1>
    4fe0:	49 89 fd             	mov    %rdi,%r13
    4fe3:	41 89 d7             	mov    %edx,%r15d
    4fe6:	31 ff                	xor    %edi,%edi
    4fe8:	45 31 c9             	xor    %r9d,%r9d
    4feb:	0f 1f 44 00 00       	nopl   0x0(%rax,%rax,1)
    for (j = 0; j < cols; j++) {
    4ff0:	48 63 c7             	movslq %edi,%rax
    4ff3:	49 8d 0c 86          	lea    (%r14,%rax,4),%rcx
{
    4ff7:	31 c0                	xor    %eax,%eax
    4ff9:	0f 1f 80 00 00 00 00 	nopl   0x0(%rax)
      inv[k] = (i == j) ? 1 : 0;
    5000:	31 d2                	xor    %edx,%edx
    5002:	41 39 c1             	cmp    %eax,%r9d
    5005:	0f 94 c2             	sete   %dl
    5008:	89 14 81             	mov    %edx,(%rcx,%rax,4)
    for (j = 0; j < cols; j++) {
    500b:	48 89 c2             	mov    %rax,%rdx
    500e:	48 ff c0             	inc    %rax
    5011:	48 39 f2             	cmp    %rsi,%rdx
    5014:	75 ea                	jne    5000 <jerasure_invert_bitmatrix+0x40>
  for (i = 0; i < rows; i++) {
    5016:	41 8d 41 01          	lea    0x1(%r9),%eax
    501a:	44 01 ff             	add    %r15d,%edi
    501d:	41 39 c7             	cmp    %eax,%r15d
    5020:	74 05                	je     5027 <jerasure_invert_bitmatrix+0x67>
    5022:	41 89 c1             	mov    %eax,%r9d
    5025:	eb c9                	jmp    4ff0 <jerasure_invert_bitmatrix+0x30>
    5027:	4d 63 df             	movslq %r15d,%r11
    502a:	44 89 7c 24 e0       	mov    %r15d,-0x20(%rsp)
    502f:	4d 89 ef             	mov    %r13,%r15
    5032:	89 44 24 f0          	mov    %eax,-0x10(%rsp)
  for (i = 0; i < cols; i++) {

    /* Swap rows if we have a zero i,i element.  If we can't swap, then the 
       matrix was not invertible */

    if ((mat[i*cols+i]) == 0) { 
    5036:	41 8b 3f             	mov    (%r15),%edi
    5039:	4a 8d 04 9d 04 00 00 	lea    0x4(,%r11,4),%rax
    5040:	00 
    5041:	49 8d 5d 04          	lea    0x4(%r13),%rbx
    5045:	48 89 44 24 e8       	mov    %rax,-0x18(%rsp)
  for (i = 0; i < rows; i++) {
    504a:	31 ed                	xor    %ebp,%ebp
    if ((mat[i*cols+i]) == 0) { 
    504c:	44 89 c8             	mov    %r9d,%eax
    504f:	48 89 5c 24 f8       	mov    %rbx,-0x8(%rsp)
    5054:	4c 8d 24 83          	lea    (%rbx,%rax,4),%r12
    5058:	48 89 44 24 d0       	mov    %rax,-0x30(%rsp)
  for (i = 0; i < rows; i++) {
    505d:	c7 44 24 e4 00 00 00 	movl   $0x0,-0x1c(%rsp)
    5064:	00 
    5065:	4e 8d 14 9d 00 00 00 	lea    0x0(,%r11,4),%r10
    506c:	00 
    506d:	4c 89 eb             	mov    %r13,%rbx
    5070:	31 f6                	xor    %esi,%esi
    5072:	44 8d 45 01          	lea    0x1(%rbp),%r8d
    if ((mat[i*cols+i]) == 0) { 
    5076:	85 ff                	test   %edi,%edi
    5078:	0f 84 b1 00 00 00    	je     512f <jerasure_invert_bitmatrix+0x16f>
    507e:	66 90                	xchg   %ax,%ax
        tmp = inv[i*cols+k]; inv[i*cols+k] = inv[j*cols+k]; inv[j*cols+k] = tmp;
      }
    }
 
    /* Now for each j>i, add A_ji*Ai to Aj */
    for (j = i+1; j != rows; j++) {
    5080:	48 3b 6c 24 d0       	cmp    -0x30(%rsp),%rbp
    5085:	0f 84 46 01 00 00    	je     51d1 <jerasure_invert_bitmatrix+0x211>
    508b:	8b 4c 24 e0          	mov    -0x20(%rsp),%ecx
    508f:	49 8d 04 33          	lea    (%r11,%rsi,1),%rax
    5093:	01 4c 24 e4          	add    %ecx,-0x1c(%rsp)
    5097:	4d 01 d4             	add    %r10,%r12
    509a:	4c 89 d9             	mov    %r11,%rcx
    509d:	49 8d 3c b2          	lea    (%r10,%rsi,4),%rdi
    50a1:	48 89 44 24 d8       	mov    %rax,-0x28(%rsp)
    50a6:	48 f7 d9             	neg    %rcx
    50a9:	4c 89 e6             	mov    %r12,%rsi
    50ac:	eb 17                	jmp    50c5 <jerasure_invert_bitmatrix+0x105>
    50ae:	66 90                	xchg   %ax,%ax
    50b0:	41 8d 40 01          	lea    0x1(%r8),%eax
    50b4:	4c 29 d9             	sub    %r11,%rcx
    50b7:	4c 01 d6             	add    %r10,%rsi
    50ba:	4c 01 d7             	add    %r10,%rdi
    50bd:	45 39 c8             	cmp    %r9d,%r8d
    50c0:	74 3e                	je     5100 <jerasure_invert_bitmatrix+0x140>
    50c2:	41 89 c0             	mov    %eax,%r8d
      if (mat[j*cols+i] != 0) {
    50c5:	8b 14 3b             	mov    (%rbx,%rdi,1),%edx
    50c8:	85 d2                	test   %edx,%edx
    50ca:	74 e4                	je     50b0 <jerasure_invert_bitmatrix+0xf0>
    50cc:	48 89 7c 24 c8       	mov    %rdi,-0x38(%rsp)
    50d1:	49 8d 44 3d 00       	lea    0x0(%r13,%rdi,1),%rax
    50d6:	49 8d 14 3e          	lea    (%r14,%rdi,1),%rdx
    50da:	66 0f 1f 44 00 00    	nopw   0x0(%rax,%rax,1)
        for (k = 0; k < cols; k++) {
          mat[j*cols+k] ^= mat[i*cols+k]; 
    50e0:	8b 3c 88             	mov    (%rax,%rcx,4),%edi
    50e3:	31 38                	xor    %edi,(%rax)
          inv[j*cols+k] ^= inv[i*cols+k];
    50e5:	48 83 c0 04          	add    $0x4,%rax
    50e9:	8b 3c 8a             	mov    (%rdx,%rcx,4),%edi
    50ec:	31 3a                	xor    %edi,(%rdx)
        for (k = 0; k < cols; k++) {
    50ee:	48 83 c2 04          	add    $0x4,%rdx
    50f2:	48 39 f0             	cmp    %rsi,%rax
    50f5:	75 e9                	jne    50e0 <jerasure_invert_bitmatrix+0x120>
    50f7:	48 8b 7c 24 c8       	mov    -0x38(%rsp),%rdi
    50fc:	eb b2                	jmp    50b0 <jerasure_invert_bitmatrix+0xf0>
    50fe:	66 90                	xchg   %ax,%ax
  for (i = 0; i < cols; i++) {
    5100:	48 8d 45 01          	lea    0x1(%rbp),%rax
    5104:	4c 03 7c 24 e8       	add    -0x18(%rsp),%r15
    5109:	48 83 c3 04          	add    $0x4,%rbx
    510d:	48 3b 6c 24 d0       	cmp    -0x30(%rsp),%rbp
    5112:	0f 84 b9 00 00 00    	je     51d1 <jerasure_invert_bitmatrix+0x211>
    if ((mat[i*cols+i]) == 0) { 
    5118:	41 8b 3f             	mov    (%r15),%edi
    511b:	48 89 c5             	mov    %rax,%rbp
    511e:	48 8b 74 24 d8       	mov    -0x28(%rsp),%rsi
    5123:	44 8d 45 01          	lea    0x1(%rbp),%r8d
    5127:	85 ff                	test   %edi,%edi
    5129:	0f 85 51 ff ff ff    	jne    5080 <jerasure_invert_bitmatrix+0xc0>
      for (j = i+1; j < rows && (mat[j*cols+i]) == 0; j++) ;
    512f:	44 39 44 24 f0       	cmp    %r8d,-0x10(%rsp)
    5134:	0f 8e 64 01 00 00    	jle    529e <jerasure_invert_bitmatrix+0x2de>
    513a:	8b 44 24 e4          	mov    -0x1c(%rsp),%eax
    513e:	03 44 24 e0          	add    -0x20(%rsp),%eax
    5142:	48 98                	cltq   
    5144:	48 01 e8             	add    %rbp,%rax
    5147:	49 8d 54 85 00       	lea    0x0(%r13,%rax,4),%rdx
    514c:	44 89 c0             	mov    %r8d,%eax
