
encoder:     file format elf64-x86-64


Disassembly of section .init:

0000000000001000 <_init>:
    1000:	f3 0f 1e fa          	endbr64 
    1004:	48 83 ec 08          	sub    $0x8,%rsp
    1008:	48 8b 05 d9 cf 00 00 	mov    0xcfd9(%rip),%rax        # dfe8 <__gmon_start__>
    100f:	48 85 c0             	test   %rax,%rax
    1012:	74 02                	je     1016 <_init+0x16>
    1014:	ff d0                	callq  *%rax
    1016:	48 83 c4 08          	add    $0x8,%rsp
    101a:	c3                   	retq   

Disassembly of section .plt:

0000000000001020 <.plt>:
    1020:	ff 35 8a ce 00 00    	pushq  0xce8a(%rip)        # deb0 <_GLOBAL_OFFSET_TABLE_+0x8>
    1026:	f2 ff 25 8b ce 00 00 	bnd jmpq *0xce8b(%rip)        # deb8 <_GLOBAL_OFFSET_TABLE_+0x10>
    102d:	0f 1f 00             	nopl   (%rax)
    1030:	f3 0f 1e fa          	endbr64 
    1034:	68 00 00 00 00       	pushq  $0x0
    1039:	f2 e9 e1 ff ff ff    	bnd jmpq 1020 <.plt>
    103f:	90                   	nop
    1040:	f3 0f 1e fa          	endbr64 
    1044:	68 01 00 00 00       	pushq  $0x1
    1049:	f2 e9 d1 ff ff ff    	bnd jmpq 1020 <.plt>
    104f:	90                   	nop
    1050:	f3 0f 1e fa          	endbr64 
    1054:	68 02 00 00 00       	pushq  $0x2
    1059:	f2 e9 c1 ff ff ff    	bnd jmpq 1020 <.plt>
    105f:	90                   	nop
    1060:	f3 0f 1e fa          	endbr64 
    1064:	68 03 00 00 00       	pushq  $0x3
    1069:	f2 e9 b1 ff ff ff    	bnd jmpq 1020 <.plt>
    106f:	90                   	nop
    1070:	f3 0f 1e fa          	endbr64 
    1074:	68 04 00 00 00       	pushq  $0x4
    1079:	f2 e9 a1 ff ff ff    	bnd jmpq 1020 <.plt>
    107f:	90                   	nop
    1080:	f3 0f 1e fa          	endbr64 
    1084:	68 05 00 00 00       	pushq  $0x5
    1089:	f2 e9 91 ff ff ff    	bnd jmpq 1020 <.plt>
    108f:	90                   	nop
    1090:	f3 0f 1e fa          	endbr64 
    1094:	68 06 00 00 00       	pushq  $0x6
    1099:	f2 e9 81 ff ff ff    	bnd jmpq 1020 <.plt>
    109f:	90                   	nop
    10a0:	f3 0f 1e fa          	endbr64 
    10a4:	68 07 00 00 00       	pushq  $0x7
    10a9:	f2 e9 71 ff ff ff    	bnd jmpq 1020 <.plt>
    10af:	90                   	nop
    10b0:	f3 0f 1e fa          	endbr64 
    10b4:	68 08 00 00 00       	pushq  $0x8
    10b9:	f2 e9 61 ff ff ff    	bnd jmpq 1020 <.plt>
    10bf:	90                   	nop
    10c0:	f3 0f 1e fa          	endbr64 
    10c4:	68 09 00 00 00       	pushq  $0x9
    10c9:	f2 e9 51 ff ff ff    	bnd jmpq 1020 <.plt>
    10cf:	90                   	nop
    10d0:	f3 0f 1e fa          	endbr64 
    10d4:	68 0a 00 00 00       	pushq  $0xa
    10d9:	f2 e9 41 ff ff ff    	bnd jmpq 1020 <.plt>
    10df:	90                   	nop
    10e0:	f3 0f 1e fa          	endbr64 
    10e4:	68 0b 00 00 00       	pushq  $0xb
    10e9:	f2 e9 31 ff ff ff    	bnd jmpq 1020 <.plt>
    10ef:	90                   	nop
    10f0:	f3 0f 1e fa          	endbr64 
    10f4:	68 0c 00 00 00       	pushq  $0xc
    10f9:	f2 e9 21 ff ff ff    	bnd jmpq 1020 <.plt>
    10ff:	90                   	nop
    1100:	f3 0f 1e fa          	endbr64 
    1104:	68 0d 00 00 00       	pushq  $0xd
    1109:	f2 e9 11 ff ff ff    	bnd jmpq 1020 <.plt>
    110f:	90                   	nop
    1110:	f3 0f 1e fa          	endbr64 
    1114:	68 0e 00 00 00       	pushq  $0xe
    1119:	f2 e9 01 ff ff ff    	bnd jmpq 1020 <.plt>
    111f:	90                   	nop
    1120:	f3 0f 1e fa          	endbr64 
    1124:	68 0f 00 00 00       	pushq  $0xf
    1129:	f2 e9 f1 fe ff ff    	bnd jmpq 1020 <.plt>
    112f:	90                   	nop
    1130:	f3 0f 1e fa          	endbr64 
    1134:	68 10 00 00 00       	pushq  $0x10
    1139:	f2 e9 e1 fe ff ff    	bnd jmpq 1020 <.plt>
    113f:	90                   	nop
    1140:	f3 0f 1e fa          	endbr64 
    1144:	68 11 00 00 00       	pushq  $0x11
    1149:	f2 e9 d1 fe ff ff    	bnd jmpq 1020 <.plt>
    114f:	90                   	nop
    1150:	f3 0f 1e fa          	endbr64 
    1154:	68 12 00 00 00       	pushq  $0x12
    1159:	f2 e9 c1 fe ff ff    	bnd jmpq 1020 <.plt>
    115f:	90                   	nop
    1160:	f3 0f 1e fa          	endbr64 
    1164:	68 13 00 00 00       	pushq  $0x13
    1169:	f2 e9 b1 fe ff ff    	bnd jmpq 1020 <.plt>
    116f:	90                   	nop
    1170:	f3 0f 1e fa          	endbr64 
    1174:	68 14 00 00 00       	pushq  $0x14
    1179:	f2 e9 a1 fe ff ff    	bnd jmpq 1020 <.plt>
    117f:	90                   	nop
    1180:	f3 0f 1e fa          	endbr64 
    1184:	68 15 00 00 00       	pushq  $0x15
    1189:	f2 e9 91 fe ff ff    	bnd jmpq 1020 <.plt>
    118f:	90                   	nop
    1190:	f3 0f 1e fa          	endbr64 
    1194:	68 16 00 00 00       	pushq  $0x16
    1199:	f2 e9 81 fe ff ff    	bnd jmpq 1020 <.plt>
    119f:	90                   	nop
    11a0:	f3 0f 1e fa          	endbr64 
    11a4:	68 17 00 00 00       	pushq  $0x17
    11a9:	f2 e9 71 fe ff ff    	bnd jmpq 1020 <.plt>
    11af:	90                   	nop
    11b0:	f3 0f 1e fa          	endbr64 
    11b4:	68 18 00 00 00       	pushq  $0x18
    11b9:	f2 e9 61 fe ff ff    	bnd jmpq 1020 <.plt>
    11bf:	90                   	nop
    11c0:	f3 0f 1e fa          	endbr64 
    11c4:	68 19 00 00 00       	pushq  $0x19
    11c9:	f2 e9 51 fe ff ff    	bnd jmpq 1020 <.plt>
    11cf:	90                   	nop
    11d0:	f3 0f 1e fa          	endbr64 
    11d4:	68 1a 00 00 00       	pushq  $0x1a
    11d9:	f2 e9 41 fe ff ff    	bnd jmpq 1020 <.plt>
    11df:	90                   	nop
    11e0:	f3 0f 1e fa          	endbr64 
    11e4:	68 1b 00 00 00       	pushq  $0x1b
    11e9:	f2 e9 31 fe ff ff    	bnd jmpq 1020 <.plt>
    11ef:	90                   	nop
    11f0:	f3 0f 1e fa          	endbr64 
    11f4:	68 1c 00 00 00       	pushq  $0x1c
    11f9:	f2 e9 21 fe ff ff    	bnd jmpq 1020 <.plt>
    11ff:	90                   	nop
    1200:	f3 0f 1e fa          	endbr64 
    1204:	68 1d 00 00 00       	pushq  $0x1d
    1209:	f2 e9 11 fe ff ff    	bnd jmpq 1020 <.plt>
    120f:	90                   	nop
    1210:	f3 0f 1e fa          	endbr64 
    1214:	68 1e 00 00 00       	pushq  $0x1e
    1219:	f2 e9 01 fe ff ff    	bnd jmpq 1020 <.plt>
    121f:	90                   	nop
    1220:	f3 0f 1e fa          	endbr64 
    1224:	68 1f 00 00 00       	pushq  $0x1f
    1229:	f2 e9 f1 fd ff ff    	bnd jmpq 1020 <.plt>
    122f:	90                   	nop
    1230:	f3 0f 1e fa          	endbr64 
    1234:	68 20 00 00 00       	pushq  $0x20
    1239:	f2 e9 e1 fd ff ff    	bnd jmpq 1020 <.plt>
    123f:	90                   	nop
    1240:	f3 0f 1e fa          	endbr64 
    1244:	68 21 00 00 00       	pushq  $0x21
    1249:	f2 e9 d1 fd ff ff    	bnd jmpq 1020 <.plt>
    124f:	90                   	nop
    1250:	f3 0f 1e fa          	endbr64 
    1254:	68 22 00 00 00       	pushq  $0x22
    1259:	f2 e9 c1 fd ff ff    	bnd jmpq 1020 <.plt>
    125f:	90                   	nop

Disassembly of section .plt.got:

0000000000001260 <__cxa_finalize@plt>:
    1260:	f3 0f 1e fa          	endbr64 
    1264:	f2 ff 25 8d cd 00 00 	bnd jmpq *0xcd8d(%rip)        # dff8 <__cxa_finalize@GLIBC_2.2.5>
    126b:	0f 1f 44 00 00       	nopl   0x0(%rax,%rax,1)

Disassembly of section .plt.sec:

0000000000001270 <free@plt>:
    1270:	f3 0f 1e fa          	endbr64 
    1274:	f2 ff 25 45 cc 00 00 	bnd jmpq *0xcc45(%rip)        # dec0 <free@GLIBC_2.2.5>
    127b:	0f 1f 44 00 00       	nopl   0x0(%rax,%rax,1)

0000000000001280 <putchar@plt>:
    1280:	f3 0f 1e fa          	endbr64 
    1284:	f2 ff 25 3d cc 00 00 	bnd jmpq *0xcc3d(%rip)        # dec8 <putchar@GLIBC_2.2.5>
    128b:	0f 1f 44 00 00       	nopl   0x0(%rax,%rax,1)

0000000000001290 <__errno_location@plt>:
    1290:	f3 0f 1e fa          	endbr64 
    1294:	f2 ff 25 35 cc 00 00 	bnd jmpq *0xcc35(%rip)        # ded0 <__errno_location@GLIBC_2.2.5>
    129b:	0f 1f 44 00 00       	nopl   0x0(%rax,%rax,1)

00000000000012a0 <strcpy@plt>:
    12a0:	f3 0f 1e fa          	endbr64 
    12a4:	f2 ff 25 2d cc 00 00 	bnd jmpq *0xcc2d(%rip)        # ded8 <strcpy@GLIBC_2.2.5>
    12ab:	0f 1f 44 00 00       	nopl   0x0(%rax,%rax,1)

00000000000012b0 <mkdir@plt>:
    12b0:	f3 0f 1e fa          	endbr64 
    12b4:	f2 ff 25 25 cc 00 00 	bnd jmpq *0xcc25(%rip)        # dee0 <mkdir@GLIBC_2.2.5>
    12bb:	0f 1f 44 00 00       	nopl   0x0(%rax,%rax,1)

00000000000012c0 <fread@plt>:
    12c0:	f3 0f 1e fa          	endbr64 
    12c4:	f2 ff 25 1d cc 00 00 	bnd jmpq *0xcc1d(%rip)        # dee8 <fread@GLIBC_2.2.5>
    12cb:	0f 1f 44 00 00       	nopl   0x0(%rax,%rax,1)

00000000000012d0 <clock_gettime@plt>:
    12d0:	f3 0f 1e fa          	endbr64 
    12d4:	f2 ff 25 15 cc 00 00 	bnd jmpq *0xcc15(%rip)        # def0 <clock_gettime@GLIBC_2.17>
    12db:	0f 1f 44 00 00       	nopl   0x0(%rax,%rax,1)

00000000000012e0 <fclose@plt>:
    12e0:	f3 0f 1e fa          	endbr64 
    12e4:	f2 ff 25 0d cc 00 00 	bnd jmpq *0xcc0d(%rip)        # def8 <fclose@GLIBC_2.2.5>
    12eb:	0f 1f 44 00 00       	nopl   0x0(%rax,%rax,1)

00000000000012f0 <ctime@plt>:
    12f0:	f3 0f 1e fa          	endbr64 
    12f4:	f2 ff 25 05 cc 00 00 	bnd jmpq *0xcc05(%rip)        # df00 <ctime@GLIBC_2.2.5>
    12fb:	0f 1f 44 00 00       	nopl   0x0(%rax,%rax,1)

0000000000001300 <__stack_chk_fail@plt>:
    1300:	f3 0f 1e fa          	endbr64 
    1304:	f2 ff 25 fd cb 00 00 	bnd jmpq *0xcbfd(%rip)        # df08 <__stack_chk_fail@GLIBC_2.4>
    130b:	0f 1f 44 00 00       	nopl   0x0(%rax,%rax,1)

0000000000001310 <strchr@plt>:
    1310:	f3 0f 1e fa          	endbr64 
    1314:	f2 ff 25 f5 cb 00 00 	bnd jmpq *0xcbf5(%rip)        # df10 <strchr@GLIBC_2.2.5>
    131b:	0f 1f 44 00 00       	nopl   0x0(%rax,%rax,1)

0000000000001320 <strrchr@plt>:
    1320:	f3 0f 1e fa          	endbr64 
    1324:	f2 ff 25 ed cb 00 00 	bnd jmpq *0xcbed(%rip)        # df18 <strrchr@GLIBC_2.2.5>
    132b:	0f 1f 44 00 00       	nopl   0x0(%rax,%rax,1)

0000000000001330 <__assert_fail@plt>:
    1330:	f3 0f 1e fa          	endbr64 
    1334:	f2 ff 25 e5 cb 00 00 	bnd jmpq *0xcbe5(%rip)        # df20 <__assert_fail@GLIBC_2.2.5>
    133b:	0f 1f 44 00 00       	nopl   0x0(%rax,%rax,1)

0000000000001340 <memset@plt>:
    1340:	f3 0f 1e fa          	endbr64 
    1344:	f2 ff 25 dd cb 00 00 	bnd jmpq *0xcbdd(%rip)        # df28 <memset@GLIBC_2.2.5>
    134b:	0f 1f 44 00 00       	nopl   0x0(%rax,%rax,1)

0000000000001350 <getcwd@plt>:
    1350:	f3 0f 1e fa          	endbr64 
    1354:	f2 ff 25 d5 cb 00 00 	bnd jmpq *0xcbd5(%rip)        # df30 <getcwd@GLIBC_2.2.5>
    135b:	0f 1f 44 00 00       	nopl   0x0(%rax,%rax,1)

0000000000001360 <mrand48@plt>:
    1360:	f3 0f 1e fa          	endbr64 
    1364:	f2 ff 25 cd cb 00 00 	bnd jmpq *0xcbcd(%rip)        # df38 <mrand48@GLIBC_2.2.5>
    136b:	0f 1f 44 00 00       	nopl   0x0(%rax,%rax,1)

0000000000001370 <calloc@plt>:
    1370:	f3 0f 1e fa          	endbr64 
    1374:	f2 ff 25 c5 cb 00 00 	bnd jmpq *0xcbc5(%rip)        # df40 <calloc@GLIBC_2.2.5>
    137b:	0f 1f 44 00 00       	nopl   0x0(%rax,%rax,1)

0000000000001380 <strcmp@plt>:
    1380:	f3 0f 1e fa          	endbr64 
    1384:	f2 ff 25 bd cb 00 00 	bnd jmpq *0xcbbd(%rip)        # df48 <strcmp@GLIBC_2.2.5>
    138b:	0f 1f 44 00 00       	nopl   0x0(%rax,%rax,1)

0000000000001390 <signal@plt>:
    1390:	f3 0f 1e fa          	endbr64 
    1394:	f2 ff 25 b5 cb 00 00 	bnd jmpq *0xcbb5(%rip)        # df50 <signal@GLIBC_2.2.5>
    139b:	0f 1f 44 00 00       	nopl   0x0(%rax,%rax,1)

00000000000013a0 <__memcpy_chk@plt>:
    13a0:	f3 0f 1e fa          	endbr64 
    13a4:	f2 ff 25 ad cb 00 00 	bnd jmpq *0xcbad(%rip)        # df58 <__memcpy_chk@GLIBC_2.3.4>
    13ab:	0f 1f 44 00 00       	nopl   0x0(%rax,%rax,1)

00000000000013b0 <memcpy@plt>:
    13b0:	f3 0f 1e fa          	endbr64 
    13b4:	f2 ff 25 a5 cb 00 00 	bnd jmpq *0xcba5(%rip)        # df60 <memcpy@GLIBC_2.14>
    13bb:	0f 1f 44 00 00       	nopl   0x0(%rax,%rax,1)

00000000000013c0 <time@plt>:
    13c0:	f3 0f 1e fa          	endbr64 
    13c4:	f2 ff 25 9d cb 00 00 	bnd jmpq *0xcb9d(%rip)        # df68 <time@GLIBC_2.2.5>
    13cb:	0f 1f 44 00 00       	nopl   0x0(%rax,%rax,1)

00000000000013d0 <__stpcpy_chk@plt>:
    13d0:	f3 0f 1e fa          	endbr64 
    13d4:	f2 ff 25 95 cb 00 00 	bnd jmpq *0xcb95(%rip)        # df70 <__stpcpy_chk@GLIBC_2.3.4>
    13db:	0f 1f 44 00 00       	nopl   0x0(%rax,%rax,1)

00000000000013e0 <__xstat@plt>:
    13e0:	f3 0f 1e fa          	endbr64 
    13e4:	f2 ff 25 8d cb 00 00 	bnd jmpq *0xcb8d(%rip)        # df78 <__xstat@GLIBC_2.2.5>
    13eb:	0f 1f 44 00 00       	nopl   0x0(%rax,%rax,1)

00000000000013f0 <malloc@plt>:
    13f0:	f3 0f 1e fa          	endbr64 
    13f4:	f2 ff 25 85 cb 00 00 	bnd jmpq *0xcb85(%rip)        # df80 <malloc@GLIBC_2.2.5>
    13fb:	0f 1f 44 00 00       	nopl   0x0(%rax,%rax,1)

0000000000001400 <__isoc99_sscanf@plt>:
    1400:	f3 0f 1e fa          	endbr64 
    1404:	f2 ff 25 7d cb 00 00 	bnd jmpq *0xcb7d(%rip)        # df88 <__isoc99_sscanf@GLIBC_2.7>
    140b:	0f 1f 44 00 00       	nopl   0x0(%rax,%rax,1)

0000000000001410 <srand48@plt>:
    1410:	f3 0f 1e fa          	endbr64 
    1414:	f2 ff 25 75 cb 00 00 	bnd jmpq *0xcb75(%rip)        # df90 <srand48@GLIBC_2.2.5>
    141b:	0f 1f 44 00 00       	nopl   0x0(%rax,%rax,1)

0000000000001420 <__printf_chk@plt>:
    1420:	f3 0f 1e fa          	endbr64 
    1424:	f2 ff 25 6d cb 00 00 	bnd jmpq *0xcb6d(%rip)        # df98 <__printf_chk@GLIBC_2.3.4>
    142b:	0f 1f 44 00 00       	nopl   0x0(%rax,%rax,1)

0000000000001430 <fopen@plt>:
    1430:	f3 0f 1e fa          	endbr64 
    1434:	f2 ff 25 65 cb 00 00 	bnd jmpq *0xcb65(%rip)        # dfa0 <fopen@GLIBC_2.2.5>
    143b:	0f 1f 44 00 00       	nopl   0x0(%rax,%rax,1)

0000000000001440 <perror@plt>:
    1440:	f3 0f 1e fa          	endbr64 
    1444:	f2 ff 25 5d cb 00 00 	bnd jmpq *0xcb5d(%rip)        # dfa8 <perror@GLIBC_2.2.5>
    144b:	0f 1f 44 00 00       	nopl   0x0(%rax,%rax,1)

0000000000001450 <exit@plt>:
    1450:	f3 0f 1e fa          	endbr64 
    1454:	f2 ff 25 55 cb 00 00 	bnd jmpq *0xcb55(%rip)        # dfb0 <exit@GLIBC_2.2.5>
    145b:	0f 1f 44 00 00       	nopl   0x0(%rax,%rax,1)

0000000000001460 <fwrite@plt>:
    1460:	f3 0f 1e fa          	endbr64 
    1464:	f2 ff 25 4d cb 00 00 	bnd jmpq *0xcb4d(%rip)        # dfb8 <fwrite@GLIBC_2.2.5>
    146b:	0f 1f 44 00 00       	nopl   0x0(%rax,%rax,1)

0000000000001470 <__fprintf_chk@plt>:
    1470:	f3 0f 1e fa          	endbr64 
    1474:	f2 ff 25 45 cb 00 00 	bnd jmpq *0xcb45(%rip)        # dfc0 <__fprintf_chk@GLIBC_2.3.4>
    147b:	0f 1f 44 00 00       	nopl   0x0(%rax,%rax,1)

0000000000001480 <strdup@plt>:
    1480:	f3 0f 1e fa          	endbr64 
    1484:	f2 ff 25 3d cb 00 00 	bnd jmpq *0xcb3d(%rip)        # dfc8 <strdup@GLIBC_2.2.5>
    148b:	0f 1f 44 00 00       	nopl   0x0(%rax,%rax,1)

0000000000001490 <__sprintf_chk@plt>:
    1490:	f3 0f 1e fa          	endbr64 
    1494:	f2 ff 25 35 cb 00 00 	bnd jmpq *0xcb35(%rip)        # dfd0 <__sprintf_chk@GLIBC_2.3.4>
    149b:	0f 1f 44 00 00       	nopl   0x0(%rax,%rax,1)

Disassembly of section .text:

00000000000014a0 <main>:
    14a0:	f3 0f 1e fa          	endbr64 
    14a4:	41 57                	push   %r15
    14a6:	41 56                	push   %r14
    14a8:	41 55                	push   %r13
    14aa:	41 54                	push   %r12
    14ac:	41 89 fc             	mov    %edi,%r12d
    14af:	bf 03 00 00 00       	mov    $0x3,%edi
    14b4:	55                   	push   %rbp
    14b5:	53                   	push   %rbx
    14b6:	48 89 f3             	mov    %rsi,%rbx
    14b9:	48 8d 35 50 13 00 00 	lea    0x1350(%rip),%rsi        # 2810 <ctrl_bs_handler>
    14c0:	48 81 ec 98 01 00 00 	sub    $0x198,%rsp
    14c7:	64 48 8b 04 25 28 00 	mov    %fs:0x28,%rax
    14ce:	00 00 
    14d0:	48 89 84 24 88 01 00 	mov    %rax,0x188(%rsp)
    14d7:	00 
    14d8:	31 c0                	xor    %eax,%eax
    14da:	48 8d ac 24 b0 00 00 	lea    0xb0(%rsp),%rbp
    14e1:	00 
    14e2:	e8 a9 fe ff ff       	callq  1390 <signal@plt>
    14e7:	31 ff                	xor    %edi,%edi
    14e9:	48 89 ee             	mov    %rbp,%rsi
    14ec:	e8 df fd ff ff       	callq  12d0 <clock_gettime@plt>
    14f1:	41 83 fc 08          	cmp    $0x8,%r12d
    14f5:	0f 84 98 00 00 00    	je     1593 <main+0xf3>
    14fb:	48 8b 0d 3e fc 00 00 	mov    0xfc3e(%rip),%rcx        # 11140 <stderr@@GLIBC_2.2.5>
    1502:	ba 3e 00 00 00       	mov    $0x3e,%edx
    1507:	be 01 00 00 00       	mov    $0x1,%esi
    150c:	48 8d 3d 85 8d 00 00 	lea    0x8d85(%rip),%rdi        # a298 <_IO_stdin_used+0x298>
    1513:	e8 48 ff ff ff       	callq  1460 <fwrite@plt>
    1518:	ba 91 00 00 00       	mov    $0x91,%edx
    151d:	48 8b 0d 1c fc 00 00 	mov    0xfc1c(%rip),%rcx        # 11140 <stderr@@GLIBC_2.2.5>
    1524:	be 01 00 00 00       	mov    $0x1,%esi
    1529:	48 8d 3d a8 8d 00 00 	lea    0x8da8(%rip),%rdi        # a2d8 <_IO_stdin_used+0x2d8>
    1530:	e8 2b ff ff ff       	callq  1460 <fwrite@plt>
    1535:	ba 2a 00 00 00       	mov    $0x2a,%edx
    153a:	48 8b 0d ff fb 00 00 	mov    0xfbff(%rip),%rcx        # 11140 <stderr@@GLIBC_2.2.5>
    1541:	be 01 00 00 00       	mov    $0x1,%esi
    1546:	48 8d 3d 23 8e 00 00 	lea    0x8e23(%rip),%rdi        # a370 <_IO_stdin_used+0x370>
    154d:	e8 0e ff ff ff       	callq  1460 <fwrite@plt>
    1552:	ba 3f 00 00 00       	mov    $0x3f,%edx
    1557:	48 8b 0d e2 fb 00 00 	mov    0xfbe2(%rip),%rcx        # 11140 <stderr@@GLIBC_2.2.5>
    155e:	be 01 00 00 00       	mov    $0x1,%esi
    1563:	48 8d 3d 36 8e 00 00 	lea    0x8e36(%rip),%rdi        # a3a0 <_IO_stdin_used+0x3a0>
    156a:	e8 f1 fe ff ff       	callq  1460 <fwrite@plt>
    156f:	ba 7c 00 00 00       	mov    $0x7c,%edx
    1574:	be 01 00 00 00       	mov    $0x1,%esi
    1579:	48 8b 0d c0 fb 00 00 	mov    0xfbc0(%rip),%rcx        # 11140 <stderr@@GLIBC_2.2.5>
    1580:	48 8d 3d 59 8e 00 00 	lea    0x8e59(%rip),%rdi        # a3e0 <_IO_stdin_used+0x3e0>
    1587:	e8 d4 fe ff ff       	callq  1460 <fwrite@plt>
    158c:	31 ff                	xor    %edi,%edi
    158e:	e8 bd fe ff ff       	callq  1450 <exit@plt>
    1593:	48 8b 7b 10          	mov    0x10(%rbx),%rdi
    1597:	31 c0                	xor    %eax,%eax
    1599:	48 8d 94 24 90 00 00 	lea    0x90(%rsp),%rdx
    15a0:	00 
    15a1:	48 8d 35 8f 8a 00 00 	lea    0x8a8f(%rip),%rsi        # a037 <_IO_stdin_used+0x37>
    15a8:	e8 53 fe ff ff       	callq  1400 <__isoc99_sscanf@plt>
    15ad:	85 c0                	test   %eax,%eax
    15af:	74 0a                	je     15bb <main+0x11b>
    15b1:	83 bc 24 90 00 00 00 	cmpl   $0x0,0x90(%rsp)
    15b8:	00 
    15b9:	7f 24                	jg     15df <main+0x13f>
    15bb:	48 8b 0d 7e fb 00 00 	mov    0xfb7e(%rip),%rcx        # 11140 <stderr@@GLIBC_2.2.5>
    15c2:	ba 14 00 00 00       	mov    $0x14,%edx
    15c7:	be 01 00 00 00       	mov    $0x1,%esi
    15cc:	48 8d 3d 67 8a 00 00 	lea    0x8a67(%rip),%rdi        # a03a <_IO_stdin_used+0x3a>
    15d3:	e8 88 fe ff ff       	callq  1460 <fwrite@plt>
    15d8:	31 ff                	xor    %edi,%edi
    15da:	e8 71 fe ff ff       	callq  1450 <exit@plt>
    15df:	48 8b 7b 18          	mov    0x18(%rbx),%rdi
    15e3:	31 c0                	xor    %eax,%eax
    15e5:	48 8d 94 24 94 00 00 	lea    0x94(%rsp),%rdx
    15ec:	00 
    15ed:	48 8d 35 43 8a 00 00 	lea    0x8a43(%rip),%rsi        # a037 <_IO_stdin_used+0x37>
    15f4:	e8 07 fe ff ff       	callq  1400 <__isoc99_sscanf@plt>
    15f9:	85 c0                	test   %eax,%eax
    15fb:	74 0a                	je     1607 <main+0x167>
    15fd:	83 bc 24 94 00 00 00 	cmpl   $0x0,0x94(%rsp)
    1604:	00 
    1605:	79 24                	jns    162b <main+0x18b>
    1607:	48 8b 0d 32 fb 00 00 	mov    0xfb32(%rip),%rcx        # 11140 <stderr@@GLIBC_2.2.5>
    160e:	ba 14 00 00 00       	mov    $0x14,%edx
    1613:	be 01 00 00 00       	mov    $0x1,%esi
    1618:	48 8d 3d 30 8a 00 00 	lea    0x8a30(%rip),%rdi        # a04f <_IO_stdin_used+0x4f>
    161f:	e8 3c fe ff ff       	callq  1460 <fwrite@plt>
    1624:	31 ff                	xor    %edi,%edi
    1626:	e8 25 fe ff ff       	callq  1450 <exit@plt>
    162b:	48 8b 7b 28          	mov    0x28(%rbx),%rdi
    162f:	31 c0                	xor    %eax,%eax
    1631:	48 8d 94 24 98 00 00 	lea    0x98(%rsp),%rdx
    1638:	00 
    1639:	48 8d 35 f7 89 00 00 	lea    0x89f7(%rip),%rsi        # a037 <_IO_stdin_used+0x37>
    1640:	e8 bb fd ff ff       	callq  1400 <__isoc99_sscanf@plt>
    1645:	85 c0                	test   %eax,%eax
    1647:	74 0a                	je     1653 <main+0x1b3>
    1649:	83 bc 24 98 00 00 00 	cmpl   $0x0,0x98(%rsp)
    1650:	00 
    1651:	7f 24                	jg     1677 <main+0x1d7>
    1653:	48 8b 0d e6 fa 00 00 	mov    0xfae6(%rip),%rcx        # 11140 <stderr@@GLIBC_2.2.5>
    165a:	ba 15 00 00 00       	mov    $0x15,%edx
    165f:	be 01 00 00 00       	mov    $0x1,%esi
    1664:	48 8d 3d f9 89 00 00 	lea    0x89f9(%rip),%rdi        # a064 <_IO_stdin_used+0x64>
    166b:	e8 f0 fd ff ff       	callq  1460 <fwrite@plt>
    1670:	31 ff                	xor    %edi,%edi
    1672:	e8 d9 fd ff ff       	callq  1450 <exit@plt>
    1677:	48 8b 7b 30          	mov    0x30(%rbx),%rdi
    167b:	31 c0                	xor    %eax,%eax
    167d:	48 8d 94 24 9c 00 00 	lea    0x9c(%rsp),%rdx
    1684:	00 
    1685:	48 8d 35 ab 89 00 00 	lea    0x89ab(%rip),%rsi        # a037 <_IO_stdin_used+0x37>
    168c:	e8 6f fd ff ff       	callq  1400 <__isoc99_sscanf@plt>
    1691:	85 c0                	test   %eax,%eax
    1693:	74 0a                	je     169f <main+0x1ff>
    1695:	83 bc 24 9c 00 00 00 	cmpl   $0x0,0x9c(%rsp)
    169c:	00 
    169d:	79 24                	jns    16c3 <main+0x223>
    169f:	48 8b 0d 9a fa 00 00 	mov    0xfa9a(%rip),%rcx        # 11140 <stderr@@GLIBC_2.2.5>
    16a6:	ba 1e 00 00 00       	mov    $0x1e,%edx
    16ab:	be 01 00 00 00       	mov    $0x1,%esi
    16b0:	48 8d 3d a9 8d 00 00 	lea    0x8da9(%rip),%rdi        # a460 <_IO_stdin_used+0x460>
    16b7:	e8 a4 fd ff ff       	callq  1460 <fwrite@plt>
    16bc:	31 ff                	xor    %edi,%edi
    16be:	e8 8d fd ff ff       	callq  1450 <exit@plt>
    16c3:	48 8b 7b 38          	mov    0x38(%rbx),%rdi
    16c7:	31 c0                	xor    %eax,%eax
    16c9:	48 8d 94 24 a8 00 00 	lea    0xa8(%rsp),%rdx
    16d0:	00 
    16d1:	48 8d 35 a2 89 00 00 	lea    0x89a2(%rip),%rsi        # a07a <_IO_stdin_used+0x7a>
    16d8:	e8 23 fd ff ff       	callq  1400 <__isoc99_sscanf@plt>
    16dd:	85 c0                	test   %eax,%eax
    16df:	0f 84 ae 01 00 00    	je     1893 <main+0x3f3>
    16e5:	48 8b 8c 24 a8 00 00 	mov    0xa8(%rsp),%rcx
    16ec:	00 
    16ed:	48 85 c9             	test   %rcx,%rcx
    16f0:	0f 88 9d 01 00 00    	js     1893 <main+0x3f3>
    16f6:	74 66                	je     175e <main+0x2be>
    16f8:	48 63 b4 24 98 00 00 	movslq 0x98(%rsp),%rsi
    16ff:	00 
    1700:	48 63 94 24 90 00 00 	movslq 0x90(%rsp),%rdx
    1707:	00 
    1708:	48 63 84 24 9c 00 00 	movslq 0x9c(%rsp),%rax
    170f:	00 
    1710:	48 0f af f2          	imul   %rdx,%rsi
    1714:	85 c0                	test   %eax,%eax
    1716:	0f 85 28 05 00 00    	jne    1c44 <main+0x7a4>
    171c:	48 c1 e6 03          	shl    $0x3,%rsi
    1720:	48 89 c8             	mov    %rcx,%rax
    1723:	31 d2                	xor    %edx,%edx
    1725:	48 f7 f6             	div    %rsi
    1728:	48 85 d2             	test   %rdx,%rdx
    172b:	74 31                	je     175e <main+0x2be>
    172d:	48 89 cf             	mov    %rcx,%rdi
    1730:	48 89 f8             	mov    %rdi,%rax
    1733:	31 d2                	xor    %edx,%edx
    1735:	48 f7 f6             	div    %rsi
    1738:	48 85 d2             	test   %rdx,%rdx
    173b:	0f 84 aa 0f 00 00    	je     26eb <main+0x124b>
    1741:	48 83 c1 01          	add    $0x1,%rcx
    1745:	31 d2                	xor    %edx,%edx
    1747:	48 83 ef 01          	sub    $0x1,%rdi
    174b:	48 89 c8             	mov    %rcx,%rax
    174e:	48 f7 f6             	div    %rsi
    1751:	48 85 d2             	test   %rdx,%rdx
    1754:	75 da                	jne    1730 <main+0x290>
    1756:	48 89 8c 24 a8 00 00 	mov    %rcx,0xa8(%rsp)
    175d:	00 
    175e:	4c 8b 63 20          	mov    0x20(%rbx),%r12
    1762:	48 8d 35 34 89 00 00 	lea    0x8934(%rip),%rsi        # a09d <_IO_stdin_used+0x9d>
    1769:	4c 89 e7             	mov    %r12,%rdi
    176c:	e8 0f fc ff ff       	callq  1380 <strcmp@plt>
    1771:	85 c0                	test   %eax,%eax
    1773:	0f 84 87 01 00 00    	je     1900 <main+0x460>
    1779:	48 8d 35 27 89 00 00 	lea    0x8927(%rip),%rsi        # a0a7 <_IO_stdin_used+0xa7>
    1780:	4c 89 e7             	mov    %r12,%rdi
    1783:	e8 f8 fb ff ff       	callq  1380 <strcmp@plt>
    1788:	85 c0                	test   %eax,%eax
    178a:	0f 85 27 01 00 00    	jne    18b7 <main+0x417>
    1790:	8b 84 24 98 00 00 00 	mov    0x98(%rsp),%eax
    1797:	8d 50 f8             	lea    -0x8(%rax),%edx
    179a:	83 e2 f7             	and    $0xfffffff7,%edx
    179d:	74 09                	je     17a8 <main+0x308>
    179f:	83 f8 20             	cmp    $0x20,%eax
    17a2:	0f 85 f6 04 00 00    	jne    1c9e <main+0x7fe>
    17a8:	c7 44 24 68 00 00 00 	movl   $0x0,0x68(%rsp)
    17af:	00 
    17b0:	8b 44 24 68          	mov    0x68(%rsp),%eax
    17b4:	bf d4 03 00 00       	mov    $0x3d4,%edi
    17b9:	89 05 59 11 01 00    	mov    %eax,0x11159(%rip)        # 12918 <method>
    17bf:	e8 2c fc ff ff       	callq  13f0 <malloc@plt>
    17c4:	be d4 03 00 00       	mov    $0x3d4,%esi
    17c9:	48 89 c7             	mov    %rax,%rdi
    17cc:	49 89 c4             	mov    %rax,%r12
    17cf:	e8 7c fb ff ff       	callq  1350 <getcwd@plt>
    17d4:	49 39 c4             	cmp    %rax,%r12
    17d7:	0f 85 87 0c 00 00    	jne    2464 <main+0xfc4>
    17dd:	bf e8 03 00 00       	mov    $0x3e8,%edi
    17e2:	e8 09 fc ff ff       	callq  13f0 <malloc@plt>
    17e7:	ba e8 03 00 00       	mov    $0x3e8,%edx
    17ec:	4c 89 e6             	mov    %r12,%rsi
    17ef:	49 89 c7             	mov    %rax,%r15
    17f2:	48 89 c7             	mov    %rax,%rdi
    17f5:	48 89 44 24 10       	mov    %rax,0x10(%rsp)
    17fa:	e8 d1 fb ff ff       	callq  13d0 <__stpcpy_chk@plt>
    17ff:	4c 89 f9             	mov    %r15,%rcx
    1802:	ba 0c 00 00 00       	mov    $0xc,%edx
    1807:	48 8d 35 75 89 00 00 	lea    0x8975(%rip),%rsi        # a183 <_IO_stdin_used+0x183>
    180e:	48 29 c1             	sub    %rax,%rcx
    1811:	48 89 c7             	mov    %rax,%rdi
    1814:	48 81 c1 e8 03 00 00 	add    $0x3e8,%rcx
    181b:	e8 80 fb ff ff       	callq  13a0 <__memcpy_chk@plt>
    1820:	48 8b 7b 08          	mov    0x8(%rbx),%rdi
    1824:	80 3f 2d             	cmpb   $0x2d,(%rdi)
    1827:	0f 84 c8 03 00 00    	je     1bf5 <main+0x755>
    182d:	48 8d 35 5b 89 00 00 	lea    0x895b(%rip),%rsi        # a18f <_IO_stdin_used+0x18f>
    1834:	e8 f7 fb ff ff       	callq  1430 <fopen@plt>
    1839:	48 89 44 24 08       	mov    %rax,0x8(%rsp)
    183e:	48 85 c0             	test   %rax,%rax
    1841:	0f 84 a6 0a 00 00    	je     22ed <main+0xe4d>
    1847:	be c0 01 00 00       	mov    $0x1c0,%esi
    184c:	48 8d 3d 55 89 00 00 	lea    0x8955(%rip),%rdi        # a1a8 <_IO_stdin_used+0x1a8>
    1853:	e8 58 fa ff ff       	callq  12b0 <mkdir@plt>
    1858:	83 c0 01             	add    $0x1,%eax
    185b:	0f 85 ac 00 00 00    	jne    190d <main+0x46d>
    1861:	e8 2a fa ff ff       	callq  1290 <__errno_location@plt>
    1866:	83 38 11             	cmpl   $0x11,(%rax)
    1869:	0f 84 9e 00 00 00    	je     190d <main+0x46d>
    186f:	48 8b 0d ca f8 00 00 	mov    0xf8ca(%rip),%rcx        # 11140 <stderr@@GLIBC_2.2.5>
    1876:	ba 23 00 00 00       	mov    $0x23,%edx
    187b:	be 01 00 00 00       	mov    $0x1,%esi
    1880:	48 8d 3d 89 8d 00 00 	lea    0x8d89(%rip),%rdi        # a610 <_IO_stdin_used+0x610>
    1887:	e8 d4 fb ff ff       	callq  1460 <fwrite@plt>
    188c:	31 ff                	xor    %edi,%edi
    188e:	e8 bd fb ff ff       	callq  1450 <exit@plt>
    1893:	48 8b 0d a6 f8 00 00 	mov    0xf8a6(%rip),%rcx        # 11140 <stderr@@GLIBC_2.2.5>
    189a:	ba 1d 00 00 00       	mov    $0x1d,%edx
    189f:	be 01 00 00 00       	mov    $0x1,%esi
    18a4:	48 8d 3d d4 87 00 00 	lea    0x87d4(%rip),%rdi        # a07f <_IO_stdin_used+0x7f>
    18ab:	e8 b0 fb ff ff       	callq  1460 <fwrite@plt>
    18b0:	31 ff                	xor    %edi,%edi
    18b2:	e8 99 fb ff ff       	callq  1450 <exit@plt>
    18b7:	48 8d 35 14 88 00 00 	lea    0x8814(%rip),%rsi        # a0d2 <_IO_stdin_used+0xd2>
    18be:	4c 89 e7             	mov    %r12,%rdi
    18c1:	e8 ba fa ff ff       	callq  1380 <strcmp@plt>
    18c6:	85 c0                	test   %eax,%eax
    18c8:	0f 85 68 0a 00 00    	jne    2336 <main+0xe96>
    18ce:	83 bc 24 94 00 00 00 	cmpl   $0x2,0x94(%rsp)
    18d5:	02 
    18d6:	0f 84 35 0a 00 00    	je     2311 <main+0xe71>
    18dc:	48 8b 0d 5d f8 00 00 	mov    0xf85d(%rip),%rcx        # 11140 <stderr@@GLIBC_2.2.5>
    18e3:	ba 15 00 00 00       	mov    $0x15,%edx
    18e8:	be 01 00 00 00       	mov    $0x1,%esi
    18ed:	48 8d 3d ed 87 00 00 	lea    0x87ed(%rip),%rdi        # a0e1 <_IO_stdin_used+0xe1>
    18f4:	e8 67 fb ff ff       	callq  1460 <fwrite@plt>
    18f9:	31 ff                	xor    %edi,%edi
    18fb:	e8 50 fb ff ff       	callq  1450 <exit@plt>
    1900:	c7 44 24 68 09 00 00 	movl   $0x9,0x68(%rsp)
    1907:	00 
    1908:	e9 a3 fe ff ff       	jmpq   17b0 <main+0x310>
    190d:	48 8b 73 08          	mov    0x8(%rbx),%rsi
    1911:	48 8d 94 24 f0 00 00 	lea    0xf0(%rsp),%rdx
    1918:	00 
    1919:	bf 01 00 00 00       	mov    $0x1,%edi
    191e:	e8 bd fa ff ff       	callq  13e0 <__xstat@plt>
    1923:	48 8b 84 24 20 01 00 	mov    0x120(%rsp),%rax
    192a:	00 
    192b:	48 89 84 24 a0 00 00 	mov    %rax,0xa0(%rsp)
    1932:	00 
    1933:	4c 63 84 24 90 00 00 	movslq 0x90(%rsp),%r8
    193a:	00 
    193b:	8b 8c 24 98 00 00 00 	mov    0x98(%rsp),%ecx
    1942:	8b 84 24 9c 00 00 00 	mov    0x9c(%rsp),%eax
    1949:	48 8b b4 24 a0 00 00 	mov    0xa0(%rsp),%rsi
    1950:	00 
    1951:	41 0f af c8          	imul   %r8d,%ecx
    1955:	85 c0                	test   %eax,%eax
    1957:	0f 84 67 02 00 00    	je     1bc4 <main+0x724>
    195d:	0f af c8             	imul   %eax,%ecx
    1960:	31 d2                	xor    %edx,%edx
    1962:	48 89 f0             	mov    %rsi,%rax
    1965:	48 89 f7             	mov    %rsi,%rdi
    1968:	48 63 c9             	movslq %ecx,%rcx
    196b:	48 c1 e1 03          	shl    $0x3,%rcx
    196f:	48 f7 f1             	div    %rcx
    1972:	48 85 d2             	test   %rdx,%rdx
    1975:	0f 85 14 02 00 00    	jne    1b8f <main+0x6ef>
    197b:	4c 8b a4 24 a8 00 00 	mov    0xa8(%rsp),%r12
    1982:	00 
    1983:	4d 85 e4             	test   %r12,%r12
    1986:	0f 85 c0 01 00 00    	jne    1b4c <main+0x6ac>
    198c:	48 89 f8             	mov    %rdi,%rax
    198f:	48 89 b4 24 a8 00 00 	mov    %rsi,0xa8(%rsp)
    1996:	00 
    1997:	c7 05 6f 0f 01 00 01 	movl   $0x1,0x10f6f(%rip)        # 12910 <readins>
    199e:	00 00 00 
    19a1:	48 99                	cqto   
    19a3:	49 f7 f8             	idiv   %r8
    19a6:	48 89 44 24 58       	mov    %rax,0x58(%rsp)
    19ab:	e8 40 fa ff ff       	callq  13f0 <malloc@plt>
    19b0:	48 89 44 24 48       	mov    %rax,0x48(%rsp)
    19b5:	4c 8b 63 08          	mov    0x8(%rbx),%r12
    19b9:	31 c0                	xor    %eax,%eax
    19bb:	48 83 c9 ff          	or     $0xffffffffffffffff,%rcx
    19bf:	4c 89 e7             	mov    %r12,%rdi
    19c2:	f2 ae                	repnz scas %es:(%rdi),%al
    19c4:	48 f7 d1             	not    %rcx
    19c7:	48 8d 79 13          	lea    0x13(%rcx),%rdi
    19cb:	49 89 cd             	mov    %rcx,%r13
    19ce:	e8 1d fa ff ff       	callq  13f0 <malloc@plt>
    19d3:	be 2f 00 00 00       	mov    $0x2f,%esi
    19d8:	4c 89 e7             	mov    %r12,%rdi
    19db:	48 89 44 24 78       	mov    %rax,0x78(%rsp)
    19e0:	49 89 c7             	mov    %rax,%r15
    19e3:	e8 38 f9 ff ff       	callq  1320 <strrchr@plt>
    19e8:	48 85 c0             	test   %rax,%rax
    19eb:	0f 84 98 02 00 00    	je     1c89 <main+0x7e9>
    19f1:	48 8d 70 01          	lea    0x1(%rax),%rsi
    19f5:	4c 89 ff             	mov    %r15,%rdi
    19f8:	e8 a3 f8 ff ff       	callq  12a0 <strcpy@plt>
    19fd:	48 8b 7c 24 78       	mov    0x78(%rsp),%rdi
    1a02:	be 2e 00 00 00       	mov    $0x2e,%esi
    1a07:	e8 04 f9 ff ff       	callq  1310 <strchr@plt>
    1a0c:	49 89 c5             	mov    %rax,%r13
    1a0f:	48 85 c0             	test   %rax,%rax
    1a12:	0f 84 5b 02 00 00    	je     1c73 <main+0x7d3>
    1a18:	48 89 c7             	mov    %rax,%rdi
    1a1b:	e8 60 fa ff ff       	callq  1480 <strdup@plt>
    1a20:	41 c6 45 00 00       	movb   $0x0,0x0(%r13)
    1a25:	48 89 44 24 18       	mov    %rax,0x18(%rsp)
    1a2a:	49 83 c9 ff          	or     $0xffffffffffffffff,%r9
    1a2e:	45 31 f6             	xor    %r14d,%r14d
    1a31:	4c 89 e7             	mov    %r12,%rdi
    1a34:	4c 89 c9             	mov    %r9,%rcx
    1a37:	44 89 f0             	mov    %r14d,%eax
    1a3a:	f2 ae                	repnz scas %es:(%rdi),%al
    1a3c:	48 8b 7c 24 10       	mov    0x10(%rsp),%rdi
    1a41:	49 89 cc             	mov    %rcx,%r12
    1a44:	4c 89 c9             	mov    %r9,%rcx
    1a47:	f2 ae                	repnz scas %es:(%rdi),%al
    1a49:	49 f7 d4             	not    %r12
    1a4c:	48 f7 d1             	not    %rcx
    1a4f:	49 8d 7c 0c 12       	lea    0x12(%r12,%rcx,1),%rdi
    1a54:	4c 8d a4 24 83 01 00 	lea    0x183(%rsp),%r12
    1a5b:	00 
    1a5c:	e8 8f f9 ff ff       	callq  13f0 <malloc@plt>
    1a61:	44 8b 84 24 90 00 00 	mov    0x90(%rsp),%r8d
    1a68:	00 
    1a69:	ba 05 00 00 00       	mov    $0x5,%edx
    1a6e:	4c 89 e7             	mov    %r12,%rdi
    1a71:	be 01 00 00 00       	mov    $0x1,%esi
    1a76:	48 8d 0d ba 85 00 00 	lea    0x85ba(%rip),%rcx        # a037 <_IO_stdin_used+0x37>
    1a7d:	49 89 c5             	mov    %rax,%r13
    1a80:	31 c0                	xor    %eax,%eax
    1a82:	e8 09 fa ff ff       	callq  1490 <__sprintf_chk@plt>
    1a87:	49 83 c9 ff          	or     $0xffffffffffffffff,%r9
    1a8b:	4c 89 e7             	mov    %r12,%rdi
    1a8e:	44 89 f0             	mov    %r14d,%eax
    1a91:	4c 89 c9             	mov    %r9,%rcx
    1a94:	45 31 e4             	xor    %r12d,%r12d
    1a97:	f2 ae                	repnz scas %es:(%rdi),%al
    1a99:	48 63 bc 24 90 00 00 	movslq 0x90(%rsp),%rdi
    1aa0:	00 
    1aa1:	48 c1 e7 03          	shl    $0x3,%rdi
    1aa5:	48 f7 d1             	not    %rcx
    1aa8:	8d 41 ff             	lea    -0x1(%rcx),%eax
    1aab:	89 44 24 24          	mov    %eax,0x24(%rsp)
    1aaf:	e8 3c f9 ff ff       	callq  13f0 <malloc@plt>
    1ab4:	48 63 bc 24 94 00 00 	movslq 0x94(%rsp),%rdi
    1abb:	00 
    1abc:	49 89 c6             	mov    %rax,%r14
    1abf:	48 c1 e7 03          	shl    $0x3,%rdi
    1ac3:	e8 28 f9 ff ff       	callq  13f0 <malloc@plt>
    1ac8:	4c 63 7c 24 58       	movslq 0x58(%rsp),%r15
    1acd:	48 89 5c 24 28       	mov    %rbx,0x28(%rsp)
    1ad2:	48 89 44 24 38       	mov    %rax,0x38(%rsp)
    1ad7:	48 89 c3             	mov    %rax,%rbx
    1ada:	4c 89 f8             	mov    %r15,%rax
    1add:	4d 89 e7             	mov    %r12,%r15
    1ae0:	49 89 ec             	mov    %rbp,%r12
    1ae3:	48 89 c5             	mov    %rax,%rbp
    1ae6:	eb 19                	jmp    1b01 <main+0x661>
    1ae8:	48 89 ef             	mov    %rbp,%rdi
    1aeb:	e8 00 f9 ff ff       	callq  13f0 <malloc@plt>
    1af0:	4a 89 04 fb          	mov    %rax,(%rbx,%r15,8)
    1af4:	49 83 c7 01          	add    $0x1,%r15
    1af8:	48 85 c0             	test   %rax,%rax
    1afb:	0f 84 cf 0b 00 00    	je     26d0 <main+0x1230>
    1b01:	44 39 bc 24 94 00 00 	cmp    %r15d,0x94(%rsp)
    1b08:	00 
    1b09:	7f dd                	jg     1ae8 <main+0x648>
    1b0b:	48 8d 84 24 d0 00 00 	lea    0xd0(%rsp),%rax
    1b12:	00 
    1b13:	31 ff                	xor    %edi,%edi
    1b15:	48 8b 5c 24 28       	mov    0x28(%rsp),%rbx
    1b1a:	4c 89 e5             	mov    %r12,%rbp
    1b1d:	48 89 c6             	mov    %rax,%rsi
    1b20:	48 89 44 24 40       	mov    %rax,0x40(%rsp)
    1b25:	e8 a6 f7 ff ff       	callq  12d0 <clock_gettime@plt>
    1b2a:	8b 44 24 68          	mov    0x68(%rsp),%eax
    1b2e:	83 f8 08             	cmp    $0x8,%eax
    1b31:	0f 87 4c 09 00 00    	ja     2483 <main+0xfe3>
    1b37:	48 8d 15 42 8b 00 00 	lea    0x8b42(%rip),%rdx        # a680 <_IO_stdin_used+0x680>
    1b3e:	48 63 04 82          	movslq (%rdx,%rax,4),%rax
    1b42:	48 01 d0             	add    %rdx,%rax
    1b45:	3e ff e0             	notrack jmpq *%rax
    1b48:	48 83 c7 01          	add    $0x1,%rdi
    1b4c:	48 89 f8             	mov    %rdi,%rax
    1b4f:	48 99                	cqto   
    1b51:	49 f7 fc             	idiv   %r12
    1b54:	48 85 d2             	test   %rdx,%rdx
    1b57:	75 ef                	jne    1b48 <main+0x6a8>
    1b59:	49 39 f4             	cmp    %rsi,%r12
    1b5c:	0f 8d 2a fe ff ff    	jge    198c <main+0x4ec>
    1b62:	4c 89 e7             	mov    %r12,%rdi
    1b65:	89 05 a5 0d 01 00    	mov    %eax,0x10da5(%rip)        # 12910 <readins>
    1b6b:	e8 80 f8 ff ff       	callq  13f0 <malloc@plt>
    1b70:	48 63 8c 24 90 00 00 	movslq 0x90(%rsp),%rcx
    1b77:	00 
    1b78:	48 89 44 24 48       	mov    %rax,0x48(%rsp)
    1b7d:	4c 89 e0             	mov    %r12,%rax
    1b80:	48 99                	cqto   
    1b82:	48 f7 f9             	idiv   %rcx
    1b85:	48 89 44 24 58       	mov    %rax,0x58(%rsp)
    1b8a:	e9 26 fe ff ff       	jmpq   19b5 <main+0x515>
    1b8f:	48 83 c7 01          	add    $0x1,%rdi
    1b93:	31 d2                	xor    %edx,%edx
    1b95:	48 89 f8             	mov    %rdi,%rax
    1b98:	48 f7 f1             	div    %rcx
    1b9b:	48 85 d2             	test   %rdx,%rdx
    1b9e:	75 ef                	jne    1b8f <main+0x6ef>
    1ba0:	e9 d6 fd ff ff       	jmpq   197b <main+0x4db>
    1ba5:	48 8d 0d 25 8b 00 00 	lea    0x8b25(%rip),%rcx        # a6d1 <__PRETTY_FUNCTION__.5230>
    1bac:	ba d8 01 00 00       	mov    $0x1d8,%edx
    1bb1:	48 8d 35 73 84 00 00 	lea    0x8473(%rip),%rsi        # a02b <_IO_stdin_used+0x2b>
    1bb8:	48 8d 3d 76 84 00 00 	lea    0x8476(%rip),%rdi        # a035 <_IO_stdin_used+0x35>
    1bbf:	e8 6c f7 ff ff       	callq  1330 <__assert_fail@plt>
    1bc4:	48 63 c9             	movslq %ecx,%rcx
    1bc7:	48 89 f0             	mov    %rsi,%rax
    1bca:	31 d2                	xor    %edx,%edx
    1bcc:	48 89 f7             	mov    %rsi,%rdi
    1bcf:	48 c1 e1 03          	shl    $0x3,%rcx
    1bd3:	48 f7 f1             	div    %rcx
    1bd6:	48 85 d2             	test   %rdx,%rdx
    1bd9:	0f 84 9c fd ff ff    	je     197b <main+0x4db>
    1bdf:	48 83 c7 01          	add    $0x1,%rdi
    1be3:	31 d2                	xor    %edx,%edx
    1be5:	48 89 f8             	mov    %rdi,%rax
    1be8:	48 f7 f1             	div    %rcx
    1beb:	48 85 d2             	test   %rdx,%rdx
    1bee:	75 ef                	jne    1bdf <main+0x73f>
    1bf0:	e9 86 fd ff ff       	jmpq   197b <main+0x4db>
    1bf5:	48 83 c7 01          	add    $0x1,%rdi
    1bf9:	31 c0                	xor    %eax,%eax
    1bfb:	48 8d 94 24 a0 00 00 	lea    0xa0(%rsp),%rdx
    1c02:	00 
    1c03:	48 8d 35 70 84 00 00 	lea    0x8470(%rip),%rsi        # a07a <_IO_stdin_used+0x7a>
    1c0a:	e8 f1 f7 ff ff       	callq  1400 <__isoc99_sscanf@plt>
    1c0f:	83 e8 01             	sub    $0x1,%eax
    1c12:	0f 85 e0 0a 00 00    	jne    26f8 <main+0x1258>
    1c18:	48 83 bc 24 a0 00 00 	cmpq   $0x0,0xa0(%rsp)
    1c1f:	00 00 
    1c21:	0f 8e d1 0a 00 00    	jle    26f8 <main+0x1258>
    1c27:	31 ff                	xor    %edi,%edi
    1c29:	e8 92 f7 ff ff       	callq  13c0 <time@plt>
    1c2e:	48 89 c7             	mov    %rax,%rdi
    1c31:	e8 da f7 ff ff       	callq  1410 <srand48@plt>
    1c36:	48 c7 44 24 08 00 00 	movq   $0x0,0x8(%rsp)
    1c3d:	00 00 
    1c3f:	e9 ef fc ff ff       	jmpq   1933 <main+0x493>
    1c44:	48 0f af f0          	imul   %rax,%rsi
    1c48:	31 d2                	xor    %edx,%edx
    1c4a:	48 89 c8             	mov    %rcx,%rax
    1c4d:	48 c1 e6 03          	shl    $0x3,%rsi
    1c51:	48 f7 f6             	div    %rsi
    1c54:	48 85 d2             	test   %rdx,%rdx
    1c57:	0f 84 01 fb ff ff    	je     175e <main+0x2be>
    1c5d:	48 83 c1 01          	add    $0x1,%rcx
    1c61:	31 d2                	xor    %edx,%edx
    1c63:	48 89 c8             	mov    %rcx,%rax
    1c66:	48 f7 f6             	div    %rsi
    1c69:	48 85 d2             	test   %rdx,%rdx
    1c6c:	75 ef                	jne    1c5d <main+0x7bd>
    1c6e:	e9 e3 fa ff ff       	jmpq   1756 <main+0x2b6>
    1c73:	48 8d 3d b0 83 00 00 	lea    0x83b0(%rip),%rdi        # a02a <_IO_stdin_used+0x2a>
    1c7a:	e8 01 f8 ff ff       	callq  1480 <strdup@plt>
    1c7f:	48 89 44 24 18       	mov    %rax,0x18(%rsp)
    1c84:	e9 a1 fd ff ff       	jmpq   1a2a <main+0x58a>
    1c89:	48 8b 7c 24 78       	mov    0x78(%rsp),%rdi
    1c8e:	4c 89 ea             	mov    %r13,%rdx
    1c91:	4c 89 e6             	mov    %r12,%rsi
    1c94:	e8 17 f7 ff ff       	callq  13b0 <memcpy@plt>
    1c99:	e9 5f fd ff ff       	jmpq   19fd <main+0x55d>
    1c9e:	48 8b 0d 9b f4 00 00 	mov    0xf49b(%rip),%rcx        # 11140 <stderr@@GLIBC_2.2.5>
    1ca5:	ba 1d 00 00 00       	mov    $0x1d,%edx
    1caa:	be 01 00 00 00       	mov    $0x1,%esi
    1caf:	48 8d 3d fe 83 00 00 	lea    0x83fe(%rip),%rdi        # a0b4 <_IO_stdin_used+0xb4>
    1cb6:	e8 a5 f7 ff ff       	callq  1460 <fwrite@plt>
    1cbb:	31 ff                	xor    %edi,%edi
    1cbd:	e8 8e f7 ff ff       	callq  1450 <exit@plt>
    1cc2:	8b bc 24 90 00 00 00 	mov    0x90(%rsp),%edi
    1cc9:	e8 72 10 00 00       	callq  2d40 <liber8tion_coding_bitmatrix>
    1cce:	8b 94 24 98 00 00 00 	mov    0x98(%rsp),%edx
    1cd5:	8b b4 24 94 00 00 00 	mov    0x94(%rsp),%esi
    1cdc:	48 89 c1             	mov    %rax,%rcx
    1cdf:	8b bc 24 90 00 00 00 	mov    0x90(%rsp),%edi
    1ce6:	e8 55 45 00 00       	callq  6240 <jerasure_smart_bitmatrix_to_schedule>
    1ceb:	48 c7 44 24 70 00 00 	movq   $0x0,0x70(%rsp)
    1cf2:	00 00 
    1cf4:	48 89 44 24 60       	mov    %rax,0x60(%rsp)
    1cf9:	48 8d 84 24 e0 00 00 	lea    0xe0(%rsp),%rax
    1d00:	00 
    1d01:	31 ff                	xor    %edi,%edi
    1d03:	48 89 c6             	mov    %rax,%rsi
    1d06:	49 89 c7             	mov    %rax,%r15
    1d09:	48 89 44 24 50       	mov    %rax,0x50(%rsp)
    1d0e:	e8 bd f5 ff ff       	callq  12d0 <clock_gettime@plt>
    1d13:	48 8b 7c 24 40       	mov    0x40(%rsp),%rdi
    1d18:	4c 89 fe             	mov    %r15,%rsi
    1d1b:	e8 30 7c 00 00       	callq  9950 <timing_delta>
    1d20:	f2 0f 58 05 b0 89 00 	addsd  0x89b0(%rip),%xmm0        # a6d8 <__PRETTY_FUNCTION__.5230+0x7>
    1d27:	00 
    1d28:	c7 05 e2 0b 01 00 01 	movl   $0x1,0x10be2(%rip)        # 12914 <n>
    1d2f:	00 00 00 
    1d32:	c7 44 24 6c 00 00 00 	movl   $0x0,0x6c(%rsp)
    1d39:	00 
    1d3a:	4c 63 64 24 58       	movslq 0x58(%rsp),%r12
    1d3f:	48 89 9c 24 80 00 00 	mov    %rbx,0x80(%rsp)
    1d46:	00 
    1d47:	4c 8b 7c 24 78       	mov    0x78(%rsp),%r15
    1d4c:	48 89 ac 24 88 00 00 	mov    %rbp,0x88(%rsp)
    1d53:	00 
    1d54:	f2 0f 11 44 24 30    	movsd  %xmm0,0x30(%rsp)
    1d5a:	8b 05 b0 0b 01 00    	mov    0x10bb0(%rip),%eax        # 12910 <readins>
    1d60:	39 05 ae 0b 01 00    	cmp    %eax,0x10bae(%rip)        # 12914 <n>
    1d66:	0f 8f 45 03 00 00    	jg     20b1 <main+0xc11>
    1d6c:	48 63 44 24 6c       	movslq 0x6c(%rsp),%rax
    1d71:	48 8b 94 24 a0 00 00 	mov    0xa0(%rsp),%rdx
    1d78:	00 
    1d79:	48 39 d0             	cmp    %rdx,%rax
    1d7c:	0f 8c ae 02 00 00    	jl     2030 <main+0xb90>
    1d82:	0f 84 06 03 00 00    	je     208e <main+0xbee>
    1d88:	8b 8c 24 90 00 00 00 	mov    0x90(%rsp),%ecx
    1d8f:	48 8b 54 24 48       	mov    0x48(%rsp),%rdx
    1d94:	31 c0                	xor    %eax,%eax
    1d96:	eb 0b                	jmp    1da3 <main+0x903>
    1d98:	49 89 14 c6          	mov    %rdx,(%r14,%rax,8)
    1d9c:	48 83 c0 01          	add    $0x1,%rax
    1da0:	4c 01 e2             	add    %r12,%rdx
    1da3:	39 c1                	cmp    %eax,%ecx
    1da5:	7f f1                	jg     1d98 <main+0x8f8>
    1da7:	48 8b 74 24 40       	mov    0x40(%rsp),%rsi
    1dac:	31 ff                	xor    %edi,%edi
    1dae:	e8 1d f5 ff ff       	callq  12d0 <clock_gettime@plt>
    1db3:	8b 44 24 68          	mov    0x68(%rsp),%eax
    1db7:	83 f8 08             	cmp    $0x8,%eax
    1dba:	77 48                	ja     1e04 <main+0x964>
    1dbc:	48 8d 1d e1 88 00 00 	lea    0x88e1(%rip),%rbx        # a6a4 <_IO_stdin_used+0x6a4>
    1dc3:	48 63 04 83          	movslq (%rbx,%rax,4),%rax
    1dc7:	48 01 d8             	add    %rbx,%rax
    1dca:	3e ff e0             	notrack jmpq *%rax
    1dcd:	8b 84 24 9c 00 00 00 	mov    0x9c(%rsp),%eax
    1dd4:	4d 89 f0             	mov    %r14,%r8
    1dd7:	50                   	push   %rax
    1dd8:	8b 44 24 60          	mov    0x60(%rsp),%eax
    1ddc:	50                   	push   %rax
    1ddd:	4c 8b 4c 24 48       	mov    0x48(%rsp),%r9
    1de2:	48 8b 4c 24 70       	mov    0x70(%rsp),%rcx
    1de7:	8b 94 24 a8 00 00 00 	mov    0xa8(%rsp),%edx
    1dee:	8b b4 24 a4 00 00 00 	mov    0xa4(%rsp),%esi
    1df5:	8b bc 24 a0 00 00 00 	mov    0xa0(%rsp),%edi
    1dfc:	e8 9f 41 00 00       	callq  5fa0 <jerasure_schedule_encode>
    1e01:	5f                   	pop    %rdi
    1e02:	41 58                	pop    %r8
    1e04:	48 8b 74 24 50       	mov    0x50(%rsp),%rsi
    1e09:	31 ff                	xor    %edi,%edi
    1e0b:	bb 01 00 00 00       	mov    $0x1,%ebx
    1e10:	e8 bb f4 ff ff       	callq  12d0 <clock_gettime@plt>
    1e15:	eb 71                	jmp    1e88 <main+0x9e8>
    1e17:	56                   	push   %rsi
    1e18:	48 83 ca ff          	or     $0xffffffffffffffff,%rdx
    1e1c:	4d 89 f9             	mov    %r15,%r9
    1e1f:	48 8d 0d 9b 83 00 00 	lea    0x839b(%rip),%rcx        # a1c1 <_IO_stdin_used+0x1c1>
    1e26:	ff 74 24 20          	pushq  0x20(%rsp)
    1e2a:	be 01 00 00 00       	mov    $0x1,%esi
    1e2f:	4c 89 ef             	mov    %r13,%rdi
    1e32:	53                   	push   %rbx
    1e33:	8b 44 24 3c          	mov    0x3c(%rsp),%eax
    1e37:	50                   	push   %rax
    1e38:	4c 8b 44 24 30       	mov    0x30(%rsp),%r8
    1e3d:	31 c0                	xor    %eax,%eax
    1e3f:	e8 4c f6 ff ff       	callq  1490 <__sprintf_chk@plt>
    1e44:	48 83 c4 20          	add    $0x20,%rsp
    1e48:	83 3d c5 0a 01 00 01 	cmpl   $0x1,0x10ac5(%rip)        # 12914 <n>
    1e4f:	0f 84 da 00 00 00    	je     1f2f <main+0xa8f>
    1e55:	48 8d 35 7d 83 00 00 	lea    0x837d(%rip),%rsi        # a1d9 <_IO_stdin_used+0x1d9>
    1e5c:	4c 89 ef             	mov    %r13,%rdi
    1e5f:	e8 cc f5 ff ff       	callq  1430 <fopen@plt>
    1e64:	48 89 c5             	mov    %rax,%rbp
    1e67:	49 8b 7c de f8       	mov    -0x8(%r14,%rbx,8),%rdi
    1e6c:	48 89 e9             	mov    %rbp,%rcx
    1e6f:	4c 89 e2             	mov    %r12,%rdx
    1e72:	be 01 00 00 00       	mov    $0x1,%esi
    1e77:	e8 e4 f5 ff ff       	callq  1460 <fwrite@plt>
    1e7c:	48 89 ef             	mov    %rbp,%rdi
    1e7f:	e8 5c f4 ff ff       	callq  12e0 <fclose@plt>
    1e84:	48 83 c3 01          	add    $0x1,%rbx
    1e88:	39 9c 24 90 00 00 00 	cmp    %ebx,0x90(%rsp)
    1e8f:	0f 8c b1 00 00 00    	jl     1f46 <main+0xaa6>
    1e95:	48 83 7c 24 08 00    	cmpq   $0x0,0x8(%rsp)
    1e9b:	0f 85 76 ff ff ff    	jne    1e17 <main+0x977>
    1ea1:	49 8b 7c de f8       	mov    -0x8(%r14,%rbx,8),%rdi
    1ea6:	4c 89 e2             	mov    %r12,%rdx
    1ea9:	31 f6                	xor    %esi,%esi
    1eab:	e8 90 f4 ff ff       	callq  1340 <memset@plt>
    1eb0:	eb d2                	jmp    1e84 <main+0x9e4>
    1eb2:	48 8d 0d 18 88 00 00 	lea    0x8818(%rip),%rcx        # a6d1 <__PRETTY_FUNCTION__.5230>
    1eb9:	ba 14 02 00 00       	mov    $0x214,%edx
    1ebe:	48 8d 35 66 81 00 00 	lea    0x8166(%rip),%rsi        # a02b <_IO_stdin_used+0x2b>
    1ec5:	48 8d 3d 69 81 00 00 	lea    0x8169(%rip),%rdi        # a035 <_IO_stdin_used+0x35>
    1ecc:	e8 5f f4 ff ff       	callq  1330 <__assert_fail@plt>
    1ed1:	44 8b 44 24 58       	mov    0x58(%rsp),%r8d
    1ed6:	48 8b 4c 24 38       	mov    0x38(%rsp),%rcx
    1edb:	4c 89 f2             	mov    %r14,%rdx
    1ede:	8b b4 24 98 00 00 00 	mov    0x98(%rsp),%esi
    1ee5:	8b bc 24 90 00 00 00 	mov    0x90(%rsp),%edi
    1eec:	e8 bf 6a 00 00       	callq  89b0 <reed_sol_r6_encode>
    1ef1:	e9 0e ff ff ff       	jmpq   1e04 <main+0x964>
    1ef6:	41 51                	push   %r9
    1ef8:	8b 44 24 60          	mov    0x60(%rsp),%eax
    1efc:	4d 89 f0             	mov    %r14,%r8
    1eff:	50                   	push   %rax
    1f00:	4c 8b 4c 24 48       	mov    0x48(%rsp),%r9
    1f05:	48 8b 8c 24 80 00 00 	mov    0x80(%rsp),%rcx
    1f0c:	00 
    1f0d:	8b 94 24 a8 00 00 00 	mov    0xa8(%rsp),%edx
    1f14:	8b b4 24 a4 00 00 00 	mov    0xa4(%rsp),%esi
    1f1b:	8b bc 24 a0 00 00 00 	mov    0xa0(%rsp),%edi
    1f22:	e8 d9 2f 00 00       	callq  4f00 <jerasure_matrix_encode>
    1f27:	41 5b                	pop    %r11
    1f29:	5b                   	pop    %rbx
    1f2a:	e9 d5 fe ff ff       	jmpq   1e04 <main+0x964>
    1f2f:	48 8d 35 a0 82 00 00 	lea    0x82a0(%rip),%rsi        # a1d6 <_IO_stdin_used+0x1d6>
    1f36:	4c 89 ef             	mov    %r13,%rdi
    1f39:	e8 f2 f4 ff ff       	callq  1430 <fopen@plt>
    1f3e:	48 89 c5             	mov    %rax,%rbp
    1f41:	e9 21 ff ff ff       	jmpq   1e67 <main+0x9c7>
    1f46:	bb 01 00 00 00       	mov    $0x1,%ebx
    1f4b:	4c 89 74 24 28       	mov    %r14,0x28(%rsp)
    1f50:	49 89 de             	mov    %rbx,%r14
    1f53:	48 8b 5c 24 38       	mov    0x38(%rsp),%rbx
    1f58:	eb 6e                	jmp    1fc8 <main+0xb28>
    1f5a:	51                   	push   %rcx
    1f5b:	48 83 ca ff          	or     $0xffffffffffffffff,%rdx
    1f5f:	4d 89 f9             	mov    %r15,%r9
    1f62:	48 8d 0d 73 82 00 00 	lea    0x8273(%rip),%rcx        # a1dc <_IO_stdin_used+0x1dc>
    1f69:	ff 74 24 20          	pushq  0x20(%rsp)
    1f6d:	be 01 00 00 00       	mov    $0x1,%esi
    1f72:	4c 89 ef             	mov    %r13,%rdi
    1f75:	41 56                	push   %r14
    1f77:	8b 44 24 3c          	mov    0x3c(%rsp),%eax
    1f7b:	50                   	push   %rax
    1f7c:	4c 8b 44 24 30       	mov    0x30(%rsp),%r8
    1f81:	31 c0                	xor    %eax,%eax
    1f83:	e8 08 f5 ff ff       	callq  1490 <__sprintf_chk@plt>
    1f88:	48 83 c4 20          	add    $0x20,%rsp
    1f8c:	83 3d 81 09 01 00 01 	cmpl   $0x1,0x10981(%rip)        # 12914 <n>
    1f93:	74 5b                	je     1ff0 <main+0xb50>
    1f95:	48 8d 35 3d 82 00 00 	lea    0x823d(%rip),%rsi        # a1d9 <_IO_stdin_used+0x1d9>
    1f9c:	4c 89 ef             	mov    %r13,%rdi
    1f9f:	e8 8c f4 ff ff       	callq  1430 <fopen@plt>
    1fa4:	48 89 c5             	mov    %rax,%rbp
    1fa7:	4a 8b 7c f3 f8       	mov    -0x8(%rbx,%r14,8),%rdi
    1fac:	48 89 e9             	mov    %rbp,%rcx
    1faf:	4c 89 e2             	mov    %r12,%rdx
    1fb2:	be 01 00 00 00       	mov    $0x1,%esi
    1fb7:	e8 a4 f4 ff ff       	callq  1460 <fwrite@plt>
    1fbc:	48 89 ef             	mov    %rbp,%rdi
    1fbf:	e8 1c f3 ff ff       	callq  12e0 <fclose@plt>
    1fc4:	49 83 c6 01          	add    $0x1,%r14
    1fc8:	44 39 b4 24 94 00 00 	cmp    %r14d,0x94(%rsp)
    1fcf:	00 
    1fd0:	7c 32                	jl     2004 <main+0xb64>
    1fd2:	48 83 7c 24 08 00    	cmpq   $0x0,0x8(%rsp)
    1fd8:	75 80                	jne    1f5a <main+0xaba>
    1fda:	48 8b 44 24 28       	mov    0x28(%rsp),%rax
    1fdf:	4c 89 e2             	mov    %r12,%rdx
    1fe2:	31 f6                	xor    %esi,%esi
    1fe4:	4a 8b 7c f0 f8       	mov    -0x8(%rax,%r14,8),%rdi
    1fe9:	e8 52 f3 ff ff       	callq  1340 <memset@plt>
    1fee:	eb d4                	jmp    1fc4 <main+0xb24>
    1ff0:	48 8d 35 df 81 00 00 	lea    0x81df(%rip),%rsi        # a1d6 <_IO_stdin_used+0x1d6>
    1ff7:	4c 89 ef             	mov    %r13,%rdi
    1ffa:	e8 31 f4 ff ff       	callq  1430 <fopen@plt>
    1fff:	48 89 c5             	mov    %rax,%rbp
    2002:	eb a3                	jmp    1fa7 <main+0xb07>
    2004:	48 8b 74 24 50       	mov    0x50(%rsp),%rsi
    2009:	48 8b 7c 24 40       	mov    0x40(%rsp),%rdi
    200e:	83 05 ff 08 01 00 01 	addl   $0x1,0x108ff(%rip)        # 12914 <n>
    2015:	4c 8b 74 24 28       	mov    0x28(%rsp),%r14
    201a:	e8 31 79 00 00       	callq  9950 <timing_delta>
    201f:	f2 0f 58 44 24 30    	addsd  0x30(%rsp),%xmm0
    2025:	f2 0f 11 44 24 30    	movsd  %xmm0,0x30(%rsp)
    202b:	e9 2a fd ff ff       	jmpq   1d5a <main+0x8ba>
    2030:	4c 8b 84 24 a8 00 00 	mov    0xa8(%rsp),%r8
    2037:	00 
    2038:	48 8b 4c 24 08       	mov    0x8(%rsp),%rcx
    203d:	be 01 00 00 00       	mov    $0x1,%esi
    2042:	4c 01 c0             	add    %r8,%rax
    2045:	48 39 c2             	cmp    %rax,%rdx
    2048:	4c 89 c2             	mov    %r8,%rdx
    204b:	7d 2e                	jge    207b <main+0xbdb>
    204d:	48 8b 5c 24 48       	mov    0x48(%rsp),%rbx
    2052:	48 89 df             	mov    %rbx,%rdi
    2055:	e8 b6 08 00 00       	callq  2910 <jfread>
    205a:	48 8b 94 24 a8 00 00 	mov    0xa8(%rsp),%rdx
    2061:	00 
    2062:	48 89 d9             	mov    %rbx,%rcx
    2065:	48 98                	cltq   
    2067:	eb 08                	jmp    2071 <main+0xbd1>
    2069:	c6 04 01 30          	movb   $0x30,(%rcx,%rax,1)
    206d:	48 83 c0 01          	add    $0x1,%rax
    2071:	48 39 c2             	cmp    %rax,%rdx
    2074:	7f f3                	jg     2069 <main+0xbc9>
    2076:	e9 0d fd ff ff       	jmpq   1d88 <main+0x8e8>
    207b:	48 8b 7c 24 48       	mov    0x48(%rsp),%rdi
    2080:	e8 8b 08 00 00       	callq  2910 <jfread>
    2085:	01 44 24 6c          	add    %eax,0x6c(%rsp)
    2089:	e9 fa fc ff ff       	jmpq   1d88 <main+0x8e8>
    208e:	48 8b 94 24 a8 00 00 	mov    0xa8(%rsp),%rdx
    2095:	00 
    2096:	48 8b 4c 24 48       	mov    0x48(%rsp),%rcx
    209b:	31 c0                	xor    %eax,%eax
    209d:	eb 08                	jmp    20a7 <main+0xc07>
    209f:	c6 04 01 30          	movb   $0x30,(%rcx,%rax,1)
    20a3:	48 83 c0 01          	add    $0x1,%rax
    20a7:	48 39 d0             	cmp    %rdx,%rax
    20aa:	7c f3                	jl     209f <main+0xbff>
    20ac:	e9 d7 fc ff ff       	jmpq   1d88 <main+0x8e8>
    20b1:	48 83 7c 24 08 00    	cmpq   $0x0,0x8(%rsp)
    20b7:	48 8b 9c 24 80 00 00 	mov    0x80(%rsp),%rbx
    20be:	00 
    20bf:	48 8b ac 24 88 00 00 	mov    0x88(%rsp),%rbp
    20c6:	00 
    20c7:	0f 84 04 01 00 00    	je     21d1 <main+0xd31>
    20cd:	4c 8b 4c 24 78       	mov    0x78(%rsp),%r9
    20d2:	4c 8b 44 24 10       	mov    0x10(%rsp),%r8
    20d7:	48 83 ca ff          	or     $0xffffffffffffffff,%rdx
    20db:	31 c0                	xor    %eax,%eax
    20dd:	48 8d 0d 0d 81 00 00 	lea    0x810d(%rip),%rcx        # a1f1 <_IO_stdin_used+0x1f1>
    20e4:	be 01 00 00 00       	mov    $0x1,%esi
    20e9:	4c 89 ef             	mov    %r13,%rdi
    20ec:	e8 9f f3 ff ff       	callq  1490 <__sprintf_chk@plt>
    20f1:	48 8d 35 de 80 00 00 	lea    0x80de(%rip),%rsi        # a1d6 <_IO_stdin_used+0x1d6>
    20f8:	4c 89 ef             	mov    %r13,%rdi
    20fb:	e8 30 f3 ff ff       	callq  1430 <fopen@plt>
    2100:	48 8b 4b 08          	mov    0x8(%rbx),%rcx
    2104:	be 01 00 00 00       	mov    $0x1,%esi
    2109:	48 8d 15 f5 7e 00 00 	lea    0x7ef5(%rip),%rdx        # a005 <_IO_stdin_used+0x5>
    2110:	49 89 c4             	mov    %rax,%r12
    2113:	48 89 c7             	mov    %rax,%rdi
    2116:	31 c0                	xor    %eax,%eax
    2118:	e8 53 f3 ff ff       	callq  1470 <__fprintf_chk@plt>
    211d:	be 01 00 00 00       	mov    $0x1,%esi
    2122:	4c 89 e7             	mov    %r12,%rdi
    2125:	31 c0                	xor    %eax,%eax
    2127:	48 8b 8c 24 a0 00 00 	mov    0xa0(%rsp),%rcx
    212e:	00 
    212f:	48 8d 15 dd 80 00 00 	lea    0x80dd(%rip),%rdx        # a213 <_IO_stdin_used+0x213>
    2136:	e8 35 f3 ff ff       	callq  1470 <__fprintf_chk@plt>
    213b:	ff b4 24 a8 00 00 00 	pushq  0xa8(%rsp)
    2142:	be 01 00 00 00       	mov    $0x1,%esi
    2147:	4c 89 e7             	mov    %r12,%rdi
    214a:	8b 84 24 a4 00 00 00 	mov    0xa4(%rsp),%eax
    2151:	48 8d 15 af 80 00 00 	lea    0x80af(%rip),%rdx        # a207 <_IO_stdin_used+0x207>
    2158:	50                   	push   %rax
    2159:	44 8b 8c 24 a8 00 00 	mov    0xa8(%rsp),%r9d
    2160:	00 
    2161:	31 c0                	xor    %eax,%eax
    2163:	44 8b 84 24 a4 00 00 	mov    0xa4(%rsp),%r8d
    216a:	00 
    216b:	8b 8c 24 a0 00 00 00 	mov    0xa0(%rsp),%ecx
    2172:	e8 f9 f2 ff ff       	callq  1470 <__fprintf_chk@plt>
    2177:	48 8b 4b 20          	mov    0x20(%rbx),%rcx
    217b:	be 01 00 00 00       	mov    $0x1,%esi
    2180:	31 c0                	xor    %eax,%eax
    2182:	48 8d 15 7c 7e 00 00 	lea    0x7e7c(%rip),%rdx        # a005 <_IO_stdin_used+0x5>
    2189:	4c 89 e7             	mov    %r12,%rdi
    218c:	e8 df f2 ff ff       	callq  1470 <__fprintf_chk@plt>
    2191:	8b 4c 24 78          	mov    0x78(%rsp),%ecx
    2195:	be 01 00 00 00       	mov    $0x1,%esi
    219a:	31 c0                	xor    %eax,%eax
    219c:	48 8d 15 77 7e 00 00 	lea    0x7e77(%rip),%rdx        # a01a <_IO_stdin_used+0x1a>
    21a3:	4c 89 e7             	mov    %r12,%rdi
    21a6:	e8 c5 f2 ff ff       	callq  1470 <__fprintf_chk@plt>
    21ab:	8b 0d 5f 07 01 00    	mov    0x1075f(%rip),%ecx        # 12910 <readins>
    21b1:	4c 89 e7             	mov    %r12,%rdi
    21b4:	31 c0                	xor    %eax,%eax
    21b6:	48 8d 15 5d 7e 00 00 	lea    0x7e5d(%rip),%rdx        # a01a <_IO_stdin_used+0x1a>
    21bd:	be 01 00 00 00       	mov    $0x1,%esi
    21c2:	e8 a9 f2 ff ff       	callq  1470 <__fprintf_chk@plt>
    21c7:	4c 89 e7             	mov    %r12,%rdi
    21ca:	e8 11 f1 ff ff       	callq  12e0 <fclose@plt>
    21cf:	58                   	pop    %rax
    21d0:	5a                   	pop    %rdx
    21d1:	48 8b 7c 24 78       	mov    0x78(%rsp),%rdi
    21d6:	4c 8d a4 24 c0 00 00 	lea    0xc0(%rsp),%r12
    21dd:	00 
    21de:	e8 8d f0 ff ff       	callq  1270 <free@plt>
    21e3:	4c 89 ef             	mov    %r13,%rdi
    21e6:	e8 85 f0 ff ff       	callq  1270 <free@plt>
    21eb:	48 8b 7c 24 48       	mov    0x48(%rsp),%rdi
    21f0:	e8 7b f0 ff ff       	callq  1270 <free@plt>
    21f5:	48 8b 7c 24 10       	mov    0x10(%rsp),%rdi
    21fa:	e8 71 f0 ff ff       	callq  1270 <free@plt>
    21ff:	31 ff                	xor    %edi,%edi
    2201:	4c 89 e6             	mov    %r12,%rsi
    2204:	e8 c7 f0 ff ff       	callq  12d0 <clock_gettime@plt>
    2209:	4c 89 e6             	mov    %r12,%rsi
    220c:	48 89 ef             	mov    %rbp,%rdi
    220f:	e8 3c 77 00 00       	callq  9950 <timing_delta>
    2214:	bf 01 00 00 00       	mov    $0x1,%edi
    2219:	b8 01 00 00 00       	mov    $0x1,%eax
    221e:	f2 0f 10 0d ba 84 00 	movsd  0x84ba(%rip),%xmm1        # a6e0 <__PRETTY_FUNCTION__.5230+0xf>
    2225:	00 
    2226:	f2 0f 11 44 24 08    	movsd  %xmm0,0x8(%rsp)
    222c:	66 0f ef c0          	pxor   %xmm0,%xmm0
    2230:	48 8d 35 e2 7f 00 00 	lea    0x7fe2(%rip),%rsi        # a219 <_IO_stdin_used+0x219>
    2237:	f2 48 0f 2a 84 24 a0 	cvtsi2sdq 0xa0(%rsp),%xmm0
    223e:	00 00 00 
    2241:	f2 0f 59 c1          	mulsd  %xmm1,%xmm0
    2245:	f2 0f 59 c1          	mulsd  %xmm1,%xmm0
    2249:	f2 0f 5e 44 24 30    	divsd  0x30(%rsp),%xmm0
    224f:	e8 cc f1 ff ff       	callq  1420 <__printf_chk@plt>
    2254:	66 0f ef c0          	pxor   %xmm0,%xmm0
    2258:	48 8b 05 81 84 00 00 	mov    0x8481(%rip),%rax        # a6e0 <__PRETTY_FUNCTION__.5230+0xf>
    225f:	f2 48 0f 2a 84 24 a0 	cvtsi2sdq 0xa0(%rsp),%xmm0
    2266:	00 00 00 
    2269:	48 8d 35 c4 7f 00 00 	lea    0x7fc4(%rip),%rsi        # a234 <_IO_stdin_used+0x234>
    2270:	bf 01 00 00 00       	mov    $0x1,%edi
    2275:	66 48 0f 6e c8       	movq   %rax,%xmm1
    227a:	b8 01 00 00 00       	mov    $0x1,%eax
    227f:	f2 0f 59 c1          	mulsd  %xmm1,%xmm0
    2283:	f2 0f 59 c1          	mulsd  %xmm1,%xmm0
    2287:	f2 0f 5e 44 24 08    	divsd  0x8(%rsp),%xmm0
    228d:	e8 8e f1 ff ff       	callq  1420 <__printf_chk@plt>
    2292:	48 8b 84 24 88 01 00 	mov    0x188(%rsp),%rax
    2299:	00 
    229a:	64 48 33 04 25 28 00 	xor    %fs:0x28,%rax
    22a1:	00 00 
    22a3:	0f 85 3d 04 00 00    	jne    26e6 <main+0x1246>
    22a9:	48 81 c4 98 01 00 00 	add    $0x198,%rsp
    22b0:	31 c0                	xor    %eax,%eax
    22b2:	5b                   	pop    %rbx
    22b3:	5d                   	pop    %rbp
    22b4:	41 5c                	pop    %r12
    22b6:	41 5d                	pop    %r13
    22b8:	41 5e                	pop    %r14
    22ba:	41 5f                	pop    %r15
    22bc:	c3                   	retq   
    22bd:	8b b4 24 98 00 00 00 	mov    0x98(%rsp),%esi
    22c4:	8b bc 24 90 00 00 00 	mov    0x90(%rsp),%edi
    22cb:	e8 b0 0e 00 00       	callq  3180 <blaum_roth_coding_bitmatrix>
    22d0:	e9 f9 f9 ff ff       	jmpq   1cce <main+0x82e>
    22d5:	8b b4 24 98 00 00 00 	mov    0x98(%rsp),%esi
    22dc:	8b bc 24 90 00 00 00 	mov    0x90(%rsp),%edi
    22e3:	e8 e8 08 00 00       	callq  2bd0 <liberation_coding_bitmatrix>
    22e8:	e9 e1 f9 ff ff       	jmpq   1cce <main+0x82e>
    22ed:	48 8b 0d 4c ee 00 00 	mov    0xee4c(%rip),%rcx        # 11140 <stderr@@GLIBC_2.2.5>
    22f4:	ba 15 00 00 00       	mov    $0x15,%edx
    22f9:	be 01 00 00 00       	mov    $0x1,%esi
    22fe:	48 8d 3d 8d 7e 00 00 	lea    0x7e8d(%rip),%rdi        # a192 <_IO_stdin_used+0x192>
    2305:	e8 56 f1 ff ff       	callq  1460 <fwrite@plt>
    230a:	31 ff                	xor    %edi,%edi
    230c:	e8 3f f1 ff ff       	callq  1450 <exit@plt>
    2311:	8b 84 24 98 00 00 00 	mov    0x98(%rsp),%eax
    2318:	8d 50 f8             	lea    -0x8(%rax),%edx
    231b:	83 e2 f7             	and    $0xfffffff7,%edx
    231e:	74 09                	je     2329 <main+0xe89>
    2320:	83 f8 20             	cmp    $0x20,%eax
    2323:	0f 85 75 f9 ff ff    	jne    1c9e <main+0x7fe>
    2329:	c7 44 24 68 01 00 00 	movl   $0x1,0x68(%rsp)
    2330:	00 
    2331:	e9 7a f4 ff ff       	jmpq   17b0 <main+0x310>
    2336:	48 8d 35 ba 7d 00 00 	lea    0x7dba(%rip),%rsi        # a0f7 <_IO_stdin_used+0xf7>
    233d:	4c 89 e7             	mov    %r12,%rdi
    2340:	e8 3b f0 ff ff       	callq  1380 <strcmp@plt>
    2345:	85 c0                	test   %eax,%eax
    2347:	0f 85 e9 00 00 00    	jne    2436 <main+0xf96>
    234d:	83 bc 24 9c 00 00 00 	cmpl   $0x0,0x9c(%rsp)
    2354:	00 
    2355:	c7 44 24 68 02 00 00 	movl   $0x2,0x68(%rsp)
    235c:	00 
    235d:	0f 85 4d f4 ff ff    	jne    17b0 <main+0x310>
    2363:	48 8b 0d d6 ed 00 00 	mov    0xedd6(%rip),%rcx        # 11140 <stderr@@GLIBC_2.2.5>
    236a:	ba 19 00 00 00       	mov    $0x19,%edx
    236f:	be 01 00 00 00       	mov    $0x1,%esi
    2374:	48 8d 3d 88 7d 00 00 	lea    0x7d88(%rip),%rdi        # a103 <_IO_stdin_used+0x103>
    237b:	e8 e0 f0 ff ff       	callq  1460 <fwrite@plt>
    2380:	31 ff                	xor    %edi,%edi
    2382:	e8 c9 f0 ff ff       	callq  1450 <exit@plt>
    2387:	8b 94 24 98 00 00 00 	mov    0x98(%rsp),%edx
    238e:	8b b4 24 94 00 00 00 	mov    0x94(%rsp),%esi
    2395:	8b bc 24 90 00 00 00 	mov    0x90(%rsp),%edi
    239c:	e8 3f 73 00 00       	callq  96e0 <cauchy_good_general_coding_matrix>
    23a1:	8b 94 24 98 00 00 00 	mov    0x98(%rsp),%edx
    23a8:	8b b4 24 94 00 00 00 	mov    0x94(%rsp),%esi
    23af:	48 89 c1             	mov    %rax,%rcx
    23b2:	48 89 44 24 70       	mov    %rax,0x70(%rsp)
    23b7:	8b bc 24 90 00 00 00 	mov    0x90(%rsp),%edi
    23be:	e8 fd 11 00 00       	callq  35c0 <jerasure_matrix_to_bitmatrix>
    23c3:	8b 94 24 98 00 00 00 	mov    0x98(%rsp),%edx
    23ca:	8b b4 24 94 00 00 00 	mov    0x94(%rsp),%esi
    23d1:	8b bc 24 90 00 00 00 	mov    0x90(%rsp),%edi
    23d8:	48 89 c1             	mov    %rax,%rcx
    23db:	e8 60 3e 00 00       	callq  6240 <jerasure_smart_bitmatrix_to_schedule>
    23e0:	48 89 44 24 60       	mov    %rax,0x60(%rsp)
    23e5:	e9 0f f9 ff ff       	jmpq   1cf9 <main+0x859>
    23ea:	8b 94 24 98 00 00 00 	mov    0x98(%rsp),%edx
    23f1:	8b b4 24 94 00 00 00 	mov    0x94(%rsp),%esi
    23f8:	8b bc 24 90 00 00 00 	mov    0x90(%rsp),%edi
    23ff:	e8 ac 6c 00 00       	callq  90b0 <reed_sol_vandermonde_coding_matrix>
    2404:	48 c7 44 24 60 00 00 	movq   $0x0,0x60(%rsp)
    240b:	00 00 
    240d:	48 89 44 24 70       	mov    %rax,0x70(%rsp)
    2412:	e9 e2 f8 ff ff       	jmpq   1cf9 <main+0x859>
    2417:	8b 94 24 98 00 00 00 	mov    0x98(%rsp),%edx
    241e:	8b b4 24 94 00 00 00 	mov    0x94(%rsp),%esi
    2425:	8b bc 24 90 00 00 00 	mov    0x90(%rsp),%edi
    242c:	e8 af 6e 00 00       	callq  92e0 <cauchy_original_coding_matrix>
    2431:	e9 6b ff ff ff       	jmpq   23a1 <main+0xf01>
    2436:	48 8d 35 e0 7c 00 00 	lea    0x7ce0(%rip),%rsi        # a11d <_IO_stdin_used+0x11d>
    243d:	4c 89 e7             	mov    %r12,%rdi
    2440:	e8 3b ef ff ff       	callq  1380 <strcmp@plt>
    2445:	85 c0                	test   %eax,%eax
    2447:	75 51                	jne    249a <main+0xffa>
    2449:	83 bc 24 9c 00 00 00 	cmpl   $0x0,0x9c(%rsp)
    2450:	00 
    2451:	0f 84 0c ff ff ff    	je     2363 <main+0xec3>
    2457:	c7 44 24 68 03 00 00 	movl   $0x3,0x68(%rsp)
    245e:	00 
    245f:	e9 4c f3 ff ff       	jmpq   17b0 <main+0x310>
    2464:	48 8d 0d 66 82 00 00 	lea    0x8266(%rip),%rcx        # a6d1 <__PRETTY_FUNCTION__.5230>
    246b:	ba 4c 01 00 00       	mov    $0x14c,%edx
    2470:	48 8d 35 b4 7b 00 00 	lea    0x7bb4(%rip),%rsi        # a02b <_IO_stdin_used+0x2b>
    2477:	48 8d 3d 6a 81 00 00 	lea    0x816a(%rip),%rdi        # a5e8 <_IO_stdin_used+0x5e8>
    247e:	e8 ad ee ff ff       	callq  1330 <__assert_fail@plt>
    2483:	48 c7 44 24 60 00 00 	movq   $0x0,0x60(%rsp)
    248a:	00 00 
    248c:	48 c7 44 24 70 00 00 	movq   $0x0,0x70(%rsp)
    2493:	00 00 
    2495:	e9 5f f8 ff ff       	jmpq   1cf9 <main+0x859>
    249a:	48 8d 35 88 7c 00 00 	lea    0x7c88(%rip),%rsi        # a129 <_IO_stdin_used+0x129>
    24a1:	4c 89 e7             	mov    %r12,%rdi
    24a4:	e8 d7 ee ff ff       	callq  1380 <strcmp@plt>
    24a9:	85 c0                	test   %eax,%eax
    24ab:	75 67                	jne    2514 <main+0x1074>
    24ad:	8b bc 24 98 00 00 00 	mov    0x98(%rsp),%edi
    24b4:	39 bc 24 90 00 00 00 	cmp    %edi,0x90(%rsp)
    24bb:	7f 33                	jg     24f0 <main+0x1050>
    24bd:	83 ff 02             	cmp    $0x2,%edi
    24c0:	7e 0a                	jle    24cc <main+0x102c>
    24c2:	40 f6 c7 01          	test   $0x1,%dil
    24c6:	0f 85 f6 00 00 00    	jne    25c2 <main+0x1122>
    24cc:	48 8b 0d 6d ec 00 00 	mov    0xec6d(%rip),%rcx        # 11140 <stderr@@GLIBC_2.2.5>
    24d3:	ba 2f 00 00 00       	mov    $0x2f,%edx
    24d8:	be 01 00 00 00       	mov    $0x1,%esi
    24dd:	48 8d 3d c4 7f 00 00 	lea    0x7fc4(%rip),%rdi        # a4a8 <_IO_stdin_used+0x4a8>
    24e4:	e8 77 ef ff ff       	callq  1460 <fwrite@plt>
    24e9:	31 ff                	xor    %edi,%edi
    24eb:	e8 60 ef ff ff       	callq  1450 <exit@plt>
    24f0:	48 8b 0d 49 ec 00 00 	mov    0xec49(%rip),%rcx        # 11140 <stderr@@GLIBC_2.2.5>
    24f7:	ba 22 00 00 00       	mov    $0x22,%edx
    24fc:	be 01 00 00 00       	mov    $0x1,%esi
    2501:	48 8d 3d 78 7f 00 00 	lea    0x7f78(%rip),%rdi        # a480 <_IO_stdin_used+0x480>
    2508:	e8 53 ef ff ff       	callq  1460 <fwrite@plt>
    250d:	31 ff                	xor    %edi,%edi
    250f:	e8 3c ef ff ff       	callq  1450 <exit@plt>
    2514:	48 8d 35 19 7c 00 00 	lea    0x7c19(%rip),%rsi        # a134 <_IO_stdin_used+0x134>
    251b:	4c 89 e7             	mov    %r12,%rdi
    251e:	e8 5d ee ff ff       	callq  1380 <strcmp@plt>
    2523:	85 c0                	test   %eax,%eax
    2525:	75 44                	jne    256b <main+0x10cb>
    2527:	8b 84 24 98 00 00 00 	mov    0x98(%rsp),%eax
    252e:	39 84 24 90 00 00 00 	cmp    %eax,0x90(%rsp)
    2535:	7f b9                	jg     24f0 <main+0x1050>
    2537:	83 f8 02             	cmp    $0x2,%eax
    253a:	7e 0b                	jle    2547 <main+0x10a7>
    253c:	8d 78 01             	lea    0x1(%rax),%edi
    253f:	a8 01                	test   $0x1,%al
    2541:	0f 84 cb 00 00 00    	je     2612 <main+0x1172>
    2547:	48 8b 0d f2 eb 00 00 	mov    0xebf2(%rip),%rcx        # 11140 <stderr@@GLIBC_2.2.5>
    254e:	ba 31 00 00 00       	mov    $0x31,%edx
    2553:	be 01 00 00 00       	mov    $0x1,%esi
    2558:	48 8d 3d a9 7f 00 00 	lea    0x7fa9(%rip),%rdi        # a508 <_IO_stdin_used+0x508>
    255f:	e8 fc ee ff ff       	callq  1460 <fwrite@plt>
    2564:	31 ff                	xor    %edi,%edi
    2566:	e8 e5 ee ff ff       	callq  1450 <exit@plt>
    256b:	48 8d 35 cd 7b 00 00 	lea    0x7bcd(%rip),%rsi        # a13f <_IO_stdin_used+0x13f>
    2572:	4c 89 e7             	mov    %r12,%rdi
    2575:	e8 06 ee ff ff       	callq  1380 <strcmp@plt>
    257a:	85 c0                	test   %eax,%eax
    257c:	0f 85 0f 01 00 00    	jne    2691 <main+0x11f1>
    2582:	83 bc 24 9c 00 00 00 	cmpl   $0x0,0x9c(%rsp)
    2589:	00 
    258a:	0f 84 dd 00 00 00    	je     266d <main+0x11cd>
    2590:	83 bc 24 98 00 00 00 	cmpl   $0x8,0x98(%rsp)
    2597:	08 
    2598:	0f 84 a1 00 00 00    	je     263f <main+0x119f>
    259e:	48 8b 0d 9b eb 00 00 	mov    0xeb9b(%rip),%rcx        # 11140 <stderr@@GLIBC_2.2.5>
    25a5:	ba 0f 00 00 00       	mov    $0xf,%edx
    25aa:	be 01 00 00 00       	mov    $0x1,%esi
    25af:	48 8d 3d ad 7b 00 00 	lea    0x7bad(%rip),%rdi        # a163 <_IO_stdin_used+0x163>
    25b6:	e8 a5 ee ff ff       	callq  1460 <fwrite@plt>
    25bb:	31 ff                	xor    %edi,%edi
    25bd:	e8 8e ee ff ff       	callq  1450 <exit@plt>
    25c2:	e8 a9 03 00 00       	callq  2970 <is_prime>
    25c7:	85 c0                	test   %eax,%eax
    25c9:	0f 84 fd fe ff ff    	je     24cc <main+0x102c>
    25cf:	8b 84 24 9c 00 00 00 	mov    0x9c(%rsp),%eax
    25d6:	85 c0                	test   %eax,%eax
    25d8:	0f 84 85 fd ff ff    	je     2363 <main+0xec3>
    25de:	c7 44 24 68 04 00 00 	movl   $0x4,0x68(%rsp)
    25e5:	00 
    25e6:	a8 07                	test   $0x7,%al
    25e8:	0f 84 c2 f1 ff ff    	je     17b0 <main+0x310>
    25ee:	48 8b 0d 4b eb 00 00 	mov    0xeb4b(%rip),%rcx        # 11140 <stderr@@GLIBC_2.2.5>
    25f5:	ba 2e 00 00 00       	mov    $0x2e,%edx
    25fa:	be 01 00 00 00       	mov    $0x1,%esi
    25ff:	48 8d 3d d2 7e 00 00 	lea    0x7ed2(%rip),%rdi        # a4d8 <_IO_stdin_used+0x4d8>
    2606:	e8 55 ee ff ff       	callq  1460 <fwrite@plt>
    260b:	31 ff                	xor    %edi,%edi
    260d:	e8 3e ee ff ff       	callq  1450 <exit@plt>
    2612:	e8 59 03 00 00       	callq  2970 <is_prime>
    2617:	85 c0                	test   %eax,%eax
    2619:	0f 84 28 ff ff ff    	je     2547 <main+0x10a7>
    261f:	8b 84 24 9c 00 00 00 	mov    0x9c(%rsp),%eax
    2626:	85 c0                	test   %eax,%eax
    2628:	0f 84 35 fd ff ff    	je     2363 <main+0xec3>
    262e:	a8 07                	test   $0x7,%al
    2630:	75 bc                	jne    25ee <main+0x114e>
    2632:	c7 44 24 68 05 00 00 	movl   $0x5,0x68(%rsp)
    2639:	00 
    263a:	e9 71 f1 ff ff       	jmpq   17b0 <main+0x310>
    263f:	83 bc 24 94 00 00 00 	cmpl   $0x2,0x94(%rsp)
    2646:	02 
    2647:	74 6c                	je     26b5 <main+0x1215>
    2649:	48 8b 0d f0 ea 00 00 	mov    0xeaf0(%rip),%rcx        # 11140 <stderr@@GLIBC_2.2.5>
    2650:	ba 0f 00 00 00       	mov    $0xf,%edx
    2655:	be 01 00 00 00       	mov    $0x1,%esi
    265a:	48 8d 3d 12 7b 00 00 	lea    0x7b12(%rip),%rdi        # a173 <_IO_stdin_used+0x173>
    2661:	e8 fa ed ff ff       	callq  1460 <fwrite@plt>
    2666:	31 ff                	xor    %edi,%edi
    2668:	e8 e3 ed ff ff       	callq  1450 <exit@plt>
    266d:	48 8b 0d cc ea 00 00 	mov    0xeacc(%rip),%rcx        # 11140 <stderr@@GLIBC_2.2.5>
    2674:	ba 18 00 00 00       	mov    $0x18,%edx
    2679:	be 01 00 00 00       	mov    $0x1,%esi
    267e:	48 8d 3d c5 7a 00 00 	lea    0x7ac5(%rip),%rdi        # a14a <_IO_stdin_used+0x14a>
    2685:	e8 d6 ed ff ff       	callq  1460 <fwrite@plt>
    268a:	31 ff                	xor    %edi,%edi
    268c:	e8 bf ed ff ff       	callq  1450 <exit@plt>
    2691:	48 8b 0d a8 ea 00 00 	mov    0xeaa8(%rip),%rcx        # 11140 <stderr@@GLIBC_2.2.5>
    2698:	ba a1 00 00 00       	mov    $0xa1,%edx
    269d:	be 01 00 00 00       	mov    $0x1,%esi
    26a2:	48 8d 3d 97 7e 00 00 	lea    0x7e97(%rip),%rdi        # a540 <_IO_stdin_used+0x540>
    26a9:	e8 b2 ed ff ff       	callq  1460 <fwrite@plt>
    26ae:	31 ff                	xor    %edi,%edi
    26b0:	e8 9b ed ff ff       	callq  1450 <exit@plt>
    26b5:	83 bc 24 90 00 00 00 	cmpl   $0x8,0x90(%rsp)
    26bc:	08 
    26bd:	0f 8f 2d fe ff ff    	jg     24f0 <main+0x1050>
    26c3:	c7 44 24 68 06 00 00 	movl   $0x6,0x68(%rsp)
    26ca:	00 
    26cb:	e9 e0 f0 ff ff       	jmpq   17b0 <main+0x310>
    26d0:	48 8d 3d e3 7a 00 00 	lea    0x7ae3(%rip),%rdi        # a1ba <_IO_stdin_used+0x1ba>
    26d7:	e8 64 ed ff ff       	callq  1440 <perror@plt>
    26dc:	bf 01 00 00 00       	mov    $0x1,%edi
    26e1:	e8 6a ed ff ff       	callq  1450 <exit@plt>
    26e6:	e8 15 ec ff ff       	callq  1300 <__stack_chk_fail@plt>
    26eb:	48 89 bc 24 a8 00 00 	mov    %rdi,0xa8(%rsp)
    26f2:	00 
    26f3:	e9 66 f0 ff ff       	jmpq   175e <main+0x2be>
    26f8:	48 8b 0d 41 ea 00 00 	mov    0xea41(%rip),%rcx        # 11140 <stderr@@GLIBC_2.2.5>
    26ff:	ba 43 00 00 00       	mov    $0x43,%edx
    2704:	be 01 00 00 00       	mov    $0x1,%esi
    2709:	48 8d 3d 28 7f 00 00 	lea    0x7f28(%rip),%rdi        # a638 <_IO_stdin_used+0x638>
    2710:	e8 4b ed ff ff       	callq  1460 <fwrite@plt>
    2715:	bf 01 00 00 00       	mov    $0x1,%edi
    271a:	e8 31 ed ff ff       	callq  1450 <exit@plt>
    271f:	90                   	nop

0000000000002720 <_start>:
    2720:	f3 0f 1e fa          	endbr64 
    2724:	31 ed                	xor    %ebp,%ebp
    2726:	49 89 d1             	mov    %rdx,%r9
    2729:	5e                   	pop    %rsi
    272a:	48 89 e2             	mov    %rsp,%rdx
    272d:	48 83 e4 f0          	and    $0xfffffffffffffff0,%rsp
    2731:	50                   	push   %rax
    2732:	54                   	push   %rsp
    2733:	4c 8d 05 a6 73 00 00 	lea    0x73a6(%rip),%r8        # 9ae0 <__libc_csu_fini>
    273a:	48 8d 0d 2f 73 00 00 	lea    0x732f(%rip),%rcx        # 9a70 <__libc_csu_init>
    2741:	48 8d 3d 58 ed ff ff 	lea    -0x12a8(%rip),%rdi        # 14a0 <main>
    2748:	ff 15 92 b8 00 00    	callq  *0xb892(%rip)        # dfe0 <__libc_start_main@GLIBC_2.2.5>
    274e:	f4                   	hlt    
    274f:	90                   	nop

0000000000002750 <deregister_tm_clones>:
    2750:	48 8d 3d d1 e9 00 00 	lea    0xe9d1(%rip),%rdi        # 11128 <__TMC_END__>
    2757:	48 8d 05 ca e9 00 00 	lea    0xe9ca(%rip),%rax        # 11128 <__TMC_END__>
    275e:	48 39 f8             	cmp    %rdi,%rax
    2761:	74 15                	je     2778 <deregister_tm_clones+0x28>
    2763:	48 8b 05 6e b8 00 00 	mov    0xb86e(%rip),%rax        # dfd8 <_ITM_deregisterTMCloneTable>
    276a:	48 85 c0             	test   %rax,%rax
    276d:	74 09                	je     2778 <deregister_tm_clones+0x28>
    276f:	ff e0                	jmpq   *%rax
    2771:	0f 1f 80 00 00 00 00 	nopl   0x0(%rax)
    2778:	c3                   	retq   
    2779:	0f 1f 80 00 00 00 00 	nopl   0x0(%rax)

0000000000002780 <register_tm_clones>:
    2780:	48 8d 3d a1 e9 00 00 	lea    0xe9a1(%rip),%rdi        # 11128 <__TMC_END__>
    2787:	48 8d 35 9a e9 00 00 	lea    0xe99a(%rip),%rsi        # 11128 <__TMC_END__>
    278e:	48 29 fe             	sub    %rdi,%rsi
    2791:	48 89 f0             	mov    %rsi,%rax
    2794:	48 c1 ee 3f          	shr    $0x3f,%rsi
    2798:	48 c1 f8 03          	sar    $0x3,%rax
    279c:	48 01 c6             	add    %rax,%rsi
    279f:	48 d1 fe             	sar    %rsi
    27a2:	74 14                	je     27b8 <register_tm_clones+0x38>
    27a4:	48 8b 05 45 b8 00 00 	mov    0xb845(%rip),%rax        # dff0 <_ITM_registerTMCloneTable>
    27ab:	48 85 c0             	test   %rax,%rax
    27ae:	74 08                	je     27b8 <register_tm_clones+0x38>
    27b0:	ff e0                	jmpq   *%rax
    27b2:	66 0f 1f 44 00 00    	nopw   0x0(%rax,%rax,1)
    27b8:	c3                   	retq   
    27b9:	0f 1f 80 00 00 00 00 	nopl   0x0(%rax)

00000000000027c0 <__do_global_dtors_aux>:
    27c0:	f3 0f 1e fa          	endbr64 
    27c4:	80 3d 7d e9 00 00 00 	cmpb   $0x0,0xe97d(%rip)        # 11148 <completed.8061>
    27cb:	75 2b                	jne    27f8 <__do_global_dtors_aux+0x38>
    27cd:	55                   	push   %rbp
    27ce:	48 83 3d 22 b8 00 00 	cmpq   $0x0,0xb822(%rip)        # dff8 <__cxa_finalize@GLIBC_2.2.5>
    27d5:	00 
    27d6:	48 89 e5             	mov    %rsp,%rbp
    27d9:	74 0c                	je     27e7 <__do_global_dtors_aux+0x27>
    27db:	48 8b 3d 26 b8 00 00 	mov    0xb826(%rip),%rdi        # e008 <__dso_handle>
    27e2:	e8 79 ea ff ff       	callq  1260 <__cxa_finalize@plt>
    27e7:	e8 64 ff ff ff       	callq  2750 <deregister_tm_clones>
    27ec:	c6 05 55 e9 00 00 01 	movb   $0x1,0xe955(%rip)        # 11148 <completed.8061>
    27f3:	5d                   	pop    %rbp
    27f4:	c3                   	retq   
    27f5:	0f 1f 00             	nopl   (%rax)
    27f8:	c3                   	retq   
    27f9:	0f 1f 80 00 00 00 00 	nopl   0x0(%rax)

0000000000002800 <frame_dummy>:
    2800:	f3 0f 1e fa          	endbr64 
    2804:	e9 77 ff ff ff       	jmpq   2780 <register_tm_clones>
    2809:	0f 1f 80 00 00 00 00 	nopl   0x0(%rax)

0000000000002810 <ctrl_bs_handler>:
    2810:	f3 0f 1e fa          	endbr64 
    2814:	48 83 ec 18          	sub    $0x18,%rsp
    2818:	31 ff                	xor    %edi,%edi
    281a:	64 48 8b 04 25 28 00 	mov    %fs:0x28,%rax
    2821:	00 00 
    2823:	48 89 44 24 08       	mov    %rax,0x8(%rsp)
    2828:	31 c0                	xor    %eax,%eax
    282a:	e8 91 eb ff ff       	callq  13c0 <time@plt>
    282f:	48 89 e7             	mov    %rsp,%rdi
    2832:	48 89 04 24          	mov    %rax,(%rsp)
    2836:	e8 b5 ea ff ff       	callq  12f0 <ctime@plt>
    283b:	48 8b 3d fe e8 00 00 	mov    0xe8fe(%rip),%rdi        # 11140 <stderr@@GLIBC_2.2.5>
    2842:	be 01 00 00 00       	mov    $0x1,%esi
    2847:	48 8d 15 b6 77 00 00 	lea    0x77b6(%rip),%rdx        # a004 <_IO_stdin_used+0x4>
    284e:	48 89 c1             	mov    %rax,%rcx
    2851:	31 c0                	xor    %eax,%eax
    2853:	e8 18 ec ff ff       	callq  1470 <__fprintf_chk@plt>
    2858:	ba 24 00 00 00       	mov    $0x24,%edx
    285d:	48 8b 0d dc e8 00 00 	mov    0xe8dc(%rip),%rcx        # 11140 <stderr@@GLIBC_2.2.5>
    2864:	be 01 00 00 00       	mov    $0x1,%esi
    2869:	48 8d 3d e0 79 00 00 	lea    0x79e0(%rip),%rdi        # a250 <_IO_stdin_used+0x250>
    2870:	e8 eb eb ff ff       	callq  1460 <fwrite@plt>
    2875:	8b 0d 95 00 01 00    	mov    0x10095(%rip),%ecx        # 12910 <readins>
    287b:	be 01 00 00 00       	mov    $0x1,%esi
    2880:	31 c0                	xor    %eax,%eax
    2882:	48 8b 3d b7 e8 00 00 	mov    0xe8b7(%rip),%rdi        # 11140 <stderr@@GLIBC_2.2.5>
    2889:	48 8d 15 e8 79 00 00 	lea    0x79e8(%rip),%rdx        # a278 <_IO_stdin_used+0x278>
    2890:	e8 db eb ff ff       	callq  1470 <__fprintf_chk@plt>
    2895:	8b 0d 79 00 01 00    	mov    0x10079(%rip),%ecx        # 12914 <n>
    289b:	be 01 00 00 00       	mov    $0x1,%esi
    28a0:	31 c0                	xor    %eax,%eax
    28a2:	48 8b 3d 97 e8 00 00 	mov    0xe897(%rip),%rdi        # 11140 <stderr@@GLIBC_2.2.5>
    28a9:	48 8d 15 59 77 00 00 	lea    0x7759(%rip),%rdx        # a009 <_IO_stdin_used+0x9>
    28b0:	e8 bb eb ff ff       	callq  1470 <__fprintf_chk@plt>
    28b5:	8b 15 5d 00 01 00    	mov    0x1005d(%rip),%edx        # 12918 <method>
    28bb:	be 01 00 00 00       	mov    $0x1,%esi
    28c0:	48 8d 05 59 b7 00 00 	lea    0xb759(%rip),%rax        # e020 <Methods>
    28c7:	48 8b 3d 72 e8 00 00 	mov    0xe872(%rip),%rdi        # 11140 <stderr@@GLIBC_2.2.5>
    28ce:	48 8b 0c d0          	mov    (%rax,%rdx,8),%rcx
    28d2:	48 8d 15 45 77 00 00 	lea    0x7745(%rip),%rdx        # a01e <_IO_stdin_used+0x1e>
    28d9:	31 c0                	xor    %eax,%eax
    28db:	e8 90 eb ff ff       	callq  1470 <__fprintf_chk@plt>
    28e0:	48 8d 35 29 ff ff ff 	lea    -0xd7(%rip),%rsi        # 2810 <ctrl_bs_handler>
    28e7:	bf 03 00 00 00       	mov    $0x3,%edi
    28ec:	e8 9f ea ff ff       	callq  1390 <signal@plt>
    28f1:	48 8b 44 24 08       	mov    0x8(%rsp),%rax
    28f6:	64 48 33 04 25 28 00 	xor    %fs:0x28,%rax
    28fd:	00 00 
    28ff:	75 05                	jne    2906 <ctrl_bs_handler+0xf6>
    2901:	48 83 c4 18          	add    $0x18,%rsp
    2905:	c3                   	retq   
    2906:	e8 f5 e9 ff ff       	callq  1300 <__stack_chk_fail@plt>
    290b:	0f 1f 44 00 00       	nopl   0x0(%rax,%rax,1)

0000000000002910 <jfread>:
    2910:	f3 0f 1e fa          	endbr64 
    2914:	41 54                	push   %r12
    2916:	48 63 f6             	movslq %esi,%rsi
    2919:	55                   	push   %rbp
    291a:	53                   	push   %rbx
    291b:	48 85 c9             	test   %rcx,%rcx
    291e:	74 10                	je     2930 <jfread+0x20>
    2920:	e8 9b e9 ff ff       	callq  12c0 <fread@plt>
    2925:	5b                   	pop    %rbx
    2926:	5d                   	pop    %rbp
    2927:	41 5c                	pop    %r12
    2929:	c3                   	retq   
    292a:	66 0f 1f 44 00 00    	nopw   0x0(%rax,%rax,1)
    2930:	48 89 f5             	mov    %rsi,%rbp
    2933:	48 c1 ee 02          	shr    $0x2,%rsi
    2937:	85 f6                	test   %esi,%esi
    2939:	7e 26                	jle    2961 <jfread+0x51>
    293b:	8d 46 ff             	lea    -0x1(%rsi),%eax
    293e:	48 89 fb             	mov    %rdi,%rbx
    2941:	4c 8d 64 87 04       	lea    0x4(%rdi,%rax,4),%r12
    2946:	66 2e 0f 1f 84 00 00 	nopw   %cs:0x0(%rax,%rax,1)
    294d:	00 00 00 
    2950:	e8 0b ea ff ff       	callq  1360 <mrand48@plt>
    2955:	48 83 c3 04          	add    $0x4,%rbx
    2959:	89 43 fc             	mov    %eax,-0x4(%rbx)
    295c:	49 39 dc             	cmp    %rbx,%r12
    295f:	75 ef                	jne    2950 <jfread+0x40>
    2961:	89 e8                	mov    %ebp,%eax
    2963:	5b                   	pop    %rbx
    2964:	5d                   	pop    %rbp
    2965:	41 5c                	pop    %r12
    2967:	c3                   	retq   
    2968:	0f 1f 84 00 00 00 00 	nopl   0x0(%rax,%rax,1)
    296f:	00 

0000000000002970 <is_prime>:
    2970:	f3 0f 1e fa          	endbr64 
    2974:	48 81 ec f8 00 00 00 	sub    $0xf8,%rsp
    297b:	be 02 00 00 00       	mov    $0x2,%esi
    2980:	64 48 8b 04 25 28 00 	mov    %fs:0x28,%rax
    2987:	00 00 
    2989:	48 89 84 24 e8 00 00 	mov    %rax,0xe8(%rsp)
    2990:	00 
    2991:	31 c0                	xor    %eax,%eax
    2993:	48 8d 4c 24 04       	lea    0x4(%rsp),%rcx
    2998:	4c 8d 84 24 dc 00 00 	lea    0xdc(%rsp),%r8
    299f:	00 
    29a0:	48 b8 03 00 00 00 05 	movabs $0x500000003,%rax
    29a7:	00 00 00 
    29aa:	48 89 44 24 04       	mov    %rax,0x4(%rsp)
    29af:	48 b8 07 00 00 00 0b 	movabs $0xb00000007,%rax
    29b6:	00 00 00 
    29b9:	48 89 44 24 0c       	mov    %rax,0xc(%rsp)
    29be:	48 b8 0d 00 00 00 11 	movabs $0x110000000d,%rax
    29c5:	00 00 00 
    29c8:	48 89 44 24 14       	mov    %rax,0x14(%rsp)
    29cd:	48 b8 13 00 00 00 17 	movabs $0x1700000013,%rax
    29d4:	00 00 00 
    29d7:	48 89 44 24 1c       	mov    %rax,0x1c(%rsp)
    29dc:	48 b8 1d 00 00 00 1f 	movabs $0x1f0000001d,%rax
    29e3:	00 00 00 
    29e6:	48 89 44 24 24       	mov    %rax,0x24(%rsp)
    29eb:	48 b8 25 00 00 00 29 	movabs $0x2900000025,%rax
    29f2:	00 00 00 
    29f5:	48 89 44 24 2c       	mov    %rax,0x2c(%rsp)
    29fa:	48 b8 2b 00 00 00 2f 	movabs $0x2f0000002b,%rax
    2a01:	00 00 00 
    2a04:	48 89 44 24 34       	mov    %rax,0x34(%rsp)
    2a09:	48 b8 35 00 00 00 3b 	movabs $0x3b00000035,%rax
    2a10:	00 00 00 
    2a13:	48 89 44 24 3c       	mov    %rax,0x3c(%rsp)
    2a18:	48 b8 3d 00 00 00 43 	movabs $0x430000003d,%rax
    2a1f:	00 00 00 
    2a22:	48 89 44 24 44       	mov    %rax,0x44(%rsp)
    2a27:	48 b8 47 00 00 00 49 	movabs $0x4900000047,%rax
    2a2e:	00 00 00 
    2a31:	48 89 44 24 4c       	mov    %rax,0x4c(%rsp)
    2a36:	48 b8 4f 00 00 00 53 	movabs $0x530000004f,%rax
    2a3d:	00 00 00 
    2a40:	48 89 44 24 54       	mov    %rax,0x54(%rsp)
    2a45:	48 b8 59 00 00 00 61 	movabs $0x6100000059,%rax
    2a4c:	00 00 00 
    2a4f:	48 89 44 24 5c       	mov    %rax,0x5c(%rsp)
    2a54:	48 b8 65 00 00 00 67 	movabs $0x6700000065,%rax
    2a5b:	00 00 00 
    2a5e:	48 89 44 24 64       	mov    %rax,0x64(%rsp)
    2a63:	48 b8 6b 00 00 00 6d 	movabs $0x6d0000006b,%rax
    2a6a:	00 00 00 
    2a6d:	48 89 44 24 6c       	mov    %rax,0x6c(%rsp)
    2a72:	48 b8 71 00 00 00 7f 	movabs $0x7f00000071,%rax
    2a79:	00 00 00 
    2a7c:	48 89 44 24 74       	mov    %rax,0x74(%rsp)
    2a81:	48 b8 83 00 00 00 89 	movabs $0x8900000083,%rax
    2a88:	00 00 00 
    2a8b:	48 89 44 24 7c       	mov    %rax,0x7c(%rsp)
    2a90:	48 b8 8b 00 00 00 95 	movabs $0x950000008b,%rax
    2a97:	00 00 00 
    2a9a:	48 89 84 24 84 00 00 	mov    %rax,0x84(%rsp)
    2aa1:	00 
    2aa2:	48 b8 97 00 00 00 9d 	movabs $0x9d00000097,%rax
    2aa9:	00 00 00 
    2aac:	48 89 84 24 8c 00 00 	mov    %rax,0x8c(%rsp)
    2ab3:	00 
    2ab4:	48 b8 a3 00 00 00 a7 	movabs $0xa7000000a3,%rax
    2abb:	00 00 00 
    2abe:	48 89 84 24 94 00 00 	mov    %rax,0x94(%rsp)
    2ac5:	00 
    2ac6:	48 b8 ad 00 00 00 b3 	movabs $0xb3000000ad,%rax
    2acd:	00 00 00 
    2ad0:	48 89 84 24 9c 00 00 	mov    %rax,0x9c(%rsp)
    2ad7:	00 
    2ad8:	48 b8 b5 00 00 00 bf 	movabs $0xbf000000b5,%rax
    2adf:	00 00 00 
    2ae2:	48 89 84 24 a4 00 00 	mov    %rax,0xa4(%rsp)
    2ae9:	00 
    2aea:	48 b8 c1 00 00 00 c5 	movabs $0xc5000000c1,%rax
    2af1:	00 00 00 
    2af4:	48 89 84 24 ac 00 00 	mov    %rax,0xac(%rsp)
    2afb:	00 
    2afc:	48 b8 c7 00 00 00 d3 	movabs $0xd3000000c7,%rax
    2b03:	00 00 00 
    2b06:	48 89 84 24 b4 00 00 	mov    %rax,0xb4(%rsp)
    2b0d:	00 
    2b0e:	48 b8 df 00 00 00 e3 	movabs $0xe3000000df,%rax
    2b15:	00 00 00 
    2b18:	48 89 84 24 bc 00 00 	mov    %rax,0xbc(%rsp)
    2b1f:	00 
    2b20:	48 b8 e5 00 00 00 e9 	movabs $0xe9000000e5,%rax
    2b27:	00 00 00 
    2b2a:	48 89 84 24 c4 00 00 	mov    %rax,0xc4(%rsp)
    2b31:	00 
    2b32:	48 b8 ef 00 00 00 f1 	movabs $0xf1000000ef,%rax
    2b39:	00 00 00 
    2b3c:	48 89 84 24 cc 00 00 	mov    %rax,0xcc(%rsp)
    2b43:	00 
    2b44:	48 b8 fb 00 00 00 01 	movabs $0x101000000fb,%rax
    2b4b:	01 00 00 
    2b4e:	48 89 84 24 d4 00 00 	mov    %rax,0xd4(%rsp)
    2b55:	00 
    2b56:	eb 13                	jmp    2b6b <is_prime+0x1fb>
    2b58:	0f 1f 84 00 00 00 00 	nopl   0x0(%rax,%rax,1)
    2b5f:	00 
    2b60:	4c 39 c1             	cmp    %r8,%rcx
    2b63:	74 3b                	je     2ba0 <is_prime+0x230>
    2b65:	8b 31                	mov    (%rcx),%esi
    2b67:	48 83 c1 04          	add    $0x4,%rcx
    2b6b:	89 f8                	mov    %edi,%eax
    2b6d:	99                   	cltd   
    2b6e:	f7 fe                	idiv   %esi
    2b70:	85 d2                	test   %edx,%edx
    2b72:	75 ec                	jne    2b60 <is_prime+0x1f0>
    2b74:	31 c0                	xor    %eax,%eax
    2b76:	39 f7                	cmp    %esi,%edi
    2b78:	0f 94 c0             	sete   %al
    2b7b:	48 8b bc 24 e8 00 00 	mov    0xe8(%rsp),%rdi
    2b82:	00 
    2b83:	64 48 33 3c 25 28 00 	xor    %fs:0x28,%rdi
    2b8a:	00 00 
    2b8c:	75 31                	jne    2bbf <is_prime+0x24f>
    2b8e:	48 81 c4 f8 00 00 00 	add    $0xf8,%rsp
    2b95:	c3                   	retq   
    2b96:	66 2e 0f 1f 84 00 00 	nopw   %cs:0x0(%rax,%rax,1)
    2b9d:	00 00 00 
    2ba0:	48 8d 0d 21 7b 00 00 	lea    0x7b21(%rip),%rcx        # a6c8 <__PRETTY_FUNCTION__.5291>
    2ba7:	ba 65 02 00 00       	mov    $0x265,%edx
    2bac:	48 8d 35 78 74 00 00 	lea    0x7478(%rip),%rsi        # a02b <_IO_stdin_used+0x2b>
    2bb3:	48 8d 3d 7b 74 00 00 	lea    0x747b(%rip),%rdi        # a035 <_IO_stdin_used+0x35>
    2bba:	e8 71 e7 ff ff       	callq  1330 <__assert_fail@plt>
    2bbf:	e8 3c e7 ff ff       	callq  1300 <__stack_chk_fail@plt>
    2bc4:	66 2e 0f 1f 84 00 00 	nopw   %cs:0x0(%rax,%rax,1)
    2bcb:	00 00 00 
    2bce:	66 90                	xchg   %ax,%ax

0000000000002bd0 <liberation_coding_bitmatrix>:
    2bd0:	f3 0f 1e fa          	endbr64 
    2bd4:	39 f7                	cmp    %esi,%edi
    2bd6:	0f 8f 50 01 00 00    	jg     2d2c <liberation_coding_bitmatrix+0x15c>
    2bdc:	41 56                	push   %r14
    2bde:	41 55                	push   %r13
    2be0:	41 54                	push   %r12
    2be2:	41 89 fc             	mov    %edi,%r12d
    2be5:	44 0f af e6          	imul   %esi,%r12d
    2be9:	55                   	push   %rbp
    2bea:	89 fd                	mov    %edi,%ebp
    2bec:	53                   	push   %rbx
    2bed:	89 f3                	mov    %esi,%ebx
    2bef:	45 89 e5             	mov    %r12d,%r13d
    2bf2:	44 0f af ee          	imul   %esi,%r13d
    2bf6:	43 8d 7c 2d 00       	lea    0x0(%r13,%r13,1),%edi
    2bfb:	48 63 ff             	movslq %edi,%rdi
    2bfe:	48 c1 e7 02          	shl    $0x2,%rdi
    2c02:	e8 e9 e7 ff ff       	callq  13f0 <malloc@plt>
    2c07:	49 89 c0             	mov    %rax,%r8
    2c0a:	48 85 c0             	test   %rax,%rax
    2c0d:	0f 84 0a 01 00 00    	je     2d1d <liberation_coding_bitmatrix+0x14d>
    2c13:	4c 63 f3             	movslq %ebx,%r14
    2c16:	48 63 c5             	movslq %ebp,%rax
    2c19:	4c 89 c7             	mov    %r8,%rdi
    2c1c:	31 f6                	xor    %esi,%esi
    2c1e:	4c 89 f2             	mov    %r14,%rdx
    2c21:	49 0f af d6          	imul   %r14,%rdx
    2c25:	48 0f af d0          	imul   %rax,%rdx
    2c29:	48 c1 e2 03          	shl    $0x3,%rdx
    2c2d:	e8 0e e7 ff ff       	callq  1340 <memset@plt>
    2c32:	49 89 c0             	mov    %rax,%r8
    2c35:	85 db                	test   %ebx,%ebx
    2c37:	7e 49                	jle    2c82 <liberation_coding_bitmatrix+0xb2>
    2c39:	49 63 c4             	movslq %r12d,%rax
    2c3c:	4c 89 c7             	mov    %r8,%rdi
    2c3f:	4a 8d 0c b5 00 00 00 	lea    0x0(,%r14,4),%rcx
    2c46:	00 
    2c47:	31 f6                	xor    %esi,%esi
    2c49:	4c 8d 0c 85 04 00 00 	lea    0x4(,%rax,4),%r9
    2c50:	00 
    2c51:	0f 1f 80 00 00 00 00 	nopl   0x0(%rax)
    2c58:	85 ed                	test   %ebp,%ebp
    2c5a:	7e 1c                	jle    2c78 <liberation_coding_bitmatrix+0xa8>
    2c5c:	48 89 fa             	mov    %rdi,%rdx
    2c5f:	31 c0                	xor    %eax,%eax
    2c61:	0f 1f 80 00 00 00 00 	nopl   0x0(%rax)
    2c68:	83 c0 01             	add    $0x1,%eax
    2c6b:	c7 02 01 00 00 00    	movl   $0x1,(%rdx)
    2c71:	48 01 ca             	add    %rcx,%rdx
    2c74:	39 c5                	cmp    %eax,%ebp
    2c76:	75 f0                	jne    2c68 <liberation_coding_bitmatrix+0x98>
    2c78:	83 c6 01             	add    $0x1,%esi
    2c7b:	4c 01 cf             	add    %r9,%rdi
    2c7e:	39 f3                	cmp    %esi,%ebx
    2c80:	75 d6                	jne    2c58 <liberation_coding_bitmatrix+0x88>
    2c82:	85 ed                	test   %ebp,%ebp
    2c84:	0f 8e 87 00 00 00    	jle    2d11 <liberation_coding_bitmatrix+0x141>
    2c8a:	8d 43 ff             	lea    -0x1(%rbx),%eax
    2c8d:	45 89 eb             	mov    %r13d,%r11d
    2c90:	89 df                	mov    %ebx,%edi
    2c92:	45 31 ed             	xor    %r13d,%r13d
    2c95:	41 89 c6             	mov    %eax,%r14d
    2c98:	45 31 c9             	xor    %r9d,%r9d
    2c9b:	41 c1 ee 1f          	shr    $0x1f,%r14d
    2c9f:	41 01 c6             	add    %eax,%r14d
    2ca2:	41 d1 fe             	sar    %r14d
    2ca5:	0f 1f 00             	nopl   (%rax)
    2ca8:	85 db                	test   %ebx,%ebx
    2caa:	7e 28                	jle    2cd4 <liberation_coding_bitmatrix+0x104>
    2cac:	44 89 c9             	mov    %r9d,%ecx
    2caf:	44 89 de             	mov    %r11d,%esi
    2cb2:	66 0f 1f 44 00 00    	nopw   0x0(%rax,%rax,1)
    2cb8:	89 c8                	mov    %ecx,%eax
    2cba:	83 c1 01             	add    $0x1,%ecx
    2cbd:	99                   	cltd   
    2cbe:	f7 fb                	idiv   %ebx
    2cc0:	01 f2                	add    %esi,%edx
    2cc2:	44 01 e6             	add    %r12d,%esi
    2cc5:	48 63 d2             	movslq %edx,%rdx
    2cc8:	41 c7 04 90 01 00 00 	movl   $0x1,(%r8,%rdx,4)
    2ccf:	00 
    2cd0:	39 cf                	cmp    %ecx,%edi
    2cd2:	75 e4                	jne    2cb8 <liberation_coding_bitmatrix+0xe8>
    2cd4:	45 85 c9             	test   %r9d,%r9d
    2cd7:	74 26                	je     2cff <liberation_coding_bitmatrix+0x12f>
    2cd9:	44 89 e8             	mov    %r13d,%eax
    2cdc:	89 e9                	mov    %ebp,%ecx
    2cde:	99                   	cltd   
    2cdf:	f7 fb                	idiv   %ebx
    2ce1:	0f af ca             	imul   %edx,%ecx
    2ce4:	41 8d 44 11 ff       	lea    -0x1(%r9,%rdx,1),%eax
    2ce9:	99                   	cltd   
    2cea:	f7 fb                	idiv   %ebx
    2cec:	0f af cb             	imul   %ebx,%ecx
    2cef:	44 01 d9             	add    %r11d,%ecx
    2cf2:	01 d1                	add    %edx,%ecx
    2cf4:	48 63 c9             	movslq %ecx,%rcx
    2cf7:	41 c7 04 88 01 00 00 	movl   $0x1,(%r8,%rcx,4)
    2cfe:	00 
    2cff:	41 83 c1 01          	add    $0x1,%r9d
    2d03:	45 01 f5             	add    %r14d,%r13d
    2d06:	41 01 db             	add    %ebx,%r11d
    2d09:	83 c7 01             	add    $0x1,%edi
    2d0c:	44 39 cd             	cmp    %r9d,%ebp
    2d0f:	75 97                	jne    2ca8 <liberation_coding_bitmatrix+0xd8>
    2d11:	5b                   	pop    %rbx
    2d12:	4c 89 c0             	mov    %r8,%rax
    2d15:	5d                   	pop    %rbp
    2d16:	41 5c                	pop    %r12
    2d18:	41 5d                	pop    %r13
    2d1a:	41 5e                	pop    %r14
    2d1c:	c3                   	retq   
    2d1d:	45 31 c0             	xor    %r8d,%r8d
    2d20:	5b                   	pop    %rbx
    2d21:	5d                   	pop    %rbp
    2d22:	4c 89 c0             	mov    %r8,%rax
    2d25:	41 5c                	pop    %r12
    2d27:	41 5d                	pop    %r13
    2d29:	41 5e                	pop    %r14
    2d2b:	c3                   	retq   
    2d2c:	45 31 c0             	xor    %r8d,%r8d
    2d2f:	4c 89 c0             	mov    %r8,%rax
    2d32:	c3                   	retq   
    2d33:	66 66 2e 0f 1f 84 00 	data16 nopw %cs:0x0(%rax,%rax,1)
    2d3a:	00 00 00 00 
    2d3e:	66 90                	xchg   %ax,%ax

0000000000002d40 <liber8tion_coding_bitmatrix>:
    2d40:	f3 0f 1e fa          	endbr64 
    2d44:	83 ff 08             	cmp    $0x8,%edi
    2d47:	0f 8f 27 04 00 00    	jg     3174 <liber8tion_coding_bitmatrix+0x434>
    2d4d:	41 54                	push   %r12
    2d4f:	be 01 00 00 00       	mov    $0x1,%esi
    2d54:	55                   	push   %rbp
    2d55:	53                   	push   %rbx
    2d56:	89 fb                	mov    %edi,%ebx
    2d58:	c1 e7 07             	shl    $0x7,%edi
    2d5b:	48 63 ff             	movslq %edi,%rdi
    2d5e:	48 c1 e7 02          	shl    $0x2,%rdi
    2d62:	e8 09 e6 ff ff       	callq  1370 <calloc@plt>
    2d67:	48 85 c0             	test   %rax,%rax
    2d6a:	0f 84 fd 03 00 00    	je     316d <liber8tion_coding_bitmatrix+0x42d>
    2d70:	8d 7b ff             	lea    -0x1(%rbx),%edi
    2d73:	44 8d 0c dd 00 00 00 	lea    0x0(,%rbx,8),%r9d
    2d7a:	00 
    2d7b:	be 08 00 00 00       	mov    $0x8,%esi
    2d80:	48 83 c7 01          	add    $0x1,%rdi
    2d84:	49 63 d1             	movslq %r9d,%rdx
    2d87:	48 89 f9             	mov    %rdi,%rcx
    2d8a:	48 f7 df             	neg    %rdi
    2d8d:	4c 8d 04 95 04 00 00 	lea    0x4(,%rdx,4),%r8
    2d94:	00 
    2d95:	48 c1 e1 05          	shl    $0x5,%rcx
    2d99:	48 c1 e7 05          	shl    $0x5,%rdi
    2d9d:	48 01 c1             	add    %rax,%rcx
    2da0:	85 db                	test   %ebx,%ebx
    2da2:	7e 1b                	jle    2dbf <liber8tion_coding_bitmatrix+0x7f>
    2da4:	48 8d 14 0f          	lea    (%rdi,%rcx,1),%rdx
    2da8:	0f 1f 84 00 00 00 00 	nopl   0x0(%rax,%rax,1)
    2daf:	00 
    2db0:	c7 02 01 00 00 00    	movl   $0x1,(%rdx)
    2db6:	48 83 c2 20          	add    $0x20,%rdx
    2dba:	48 39 ca             	cmp    %rcx,%rdx
    2dbd:	75 f1                	jne    2db0 <liber8tion_coding_bitmatrix+0x70>
    2dbf:	4c 01 c1             	add    %r8,%rcx
    2dc2:	83 ee 01             	sub    $0x1,%esi
    2dc5:	75 d9                	jne    2da0 <liber8tion_coding_bitmatrix+0x60>
    2dc7:	85 db                	test   %ebx,%ebx
    2dc9:	0f 84 99 03 00 00    	je     3168 <liber8tion_coding_bitmatrix+0x428>
    2dcf:	41 89 d8             	mov    %ebx,%r8d
    2dd2:	41 c1 e0 06          	shl    $0x6,%r8d
    2dd6:	43 8d 3c 08          	lea    (%r8,%r9,1),%edi
    2dda:	49 63 d0             	movslq %r8d,%rdx
    2ddd:	c7 04 90 01 00 00 00 	movl   $0x1,(%rax,%rdx,4)
    2de4:	46 8d 24 0f          	lea    (%rdi,%r9,1),%r12d
    2de8:	48 63 d7             	movslq %edi,%rdx
    2deb:	c7 44 90 04 01 00 00 	movl   $0x1,0x4(%rax,%rdx,4)
    2df2:	00 
    2df3:	47 8d 1c 0c          	lea    (%r12,%r9,1),%r11d
    2df7:	49 63 d4             	movslq %r12d,%rdx
    2dfa:	c7 44 90 08 01 00 00 	movl   $0x1,0x8(%rax,%rdx,4)
    2e01:	00 
    2e02:	43 8d 34 0b          	lea    (%r11,%r9,1),%esi
    2e06:	49 63 d3             	movslq %r11d,%rdx
    2e09:	c7 44 90 0c 01 00 00 	movl   $0x1,0xc(%rax,%rdx,4)
    2e10:	00 
    2e11:	42 8d 0c 0e          	lea    (%rsi,%r9,1),%ecx
    2e15:	48 63 d6             	movslq %esi,%rdx
    2e18:	c7 44 90 10 01 00 00 	movl   $0x1,0x10(%rax,%rdx,4)
    2e1f:	00 
    2e20:	48 63 d1             	movslq %ecx,%rdx
    2e23:	c7 44 90 14 01 00 00 	movl   $0x1,0x14(%rax,%rdx,4)
    2e2a:	00 
    2e2b:	42 8d 14 09          	lea    (%rcx,%r9,1),%edx
    2e2f:	48 63 ea             	movslq %edx,%rbp
    2e32:	41 01 d1             	add    %edx,%r9d
    2e35:	c7 44 a8 18 01 00 00 	movl   $0x1,0x18(%rax,%rbp,4)
    2e3c:	00 
    2e3d:	49 63 e9             	movslq %r9d,%rbp
    2e40:	c7 44 a8 1c 01 00 00 	movl   $0x1,0x1c(%rax,%rbp,4)
    2e47:	00 
    2e48:	83 fb 01             	cmp    $0x1,%ebx
    2e4b:	0f 84 17 03 00 00    	je     3168 <liber8tion_coding_bitmatrix+0x428>
    2e51:	41 83 c0 08          	add    $0x8,%r8d
    2e55:	41 83 c4 08          	add    $0x8,%r12d
    2e59:	83 c1 08             	add    $0x8,%ecx
    2e5c:	83 c2 08             	add    $0x8,%edx
    2e5f:	4d 63 c0             	movslq %r8d,%r8
    2e62:	4d 63 e4             	movslq %r12d,%r12
    2e65:	48 63 c9             	movslq %ecx,%rcx
    2e68:	48 63 d2             	movslq %edx,%rdx
    2e6b:	49 83 c0 07          	add    $0x7,%r8
    2e6f:	48 83 c1 01          	add    $0x1,%rcx
    2e73:	48 83 c2 05          	add    $0x5,%rdx
    2e77:	42 c7 04 80 01 00 00 	movl   $0x1,(%rax,%r8,4)
    2e7e:	00 
    2e7f:	4a 8d 2c 85 00 00 00 	lea    0x0(,%r8,4),%rbp
    2e86:	00 
    2e87:	44 8d 47 08          	lea    0x8(%rdi),%r8d
    2e8b:	4d 63 c0             	movslq %r8d,%r8
    2e8e:	49 83 c0 03          	add    $0x3,%r8
    2e92:	42 c7 04 80 01 00 00 	movl   $0x1,(%rax,%r8,4)
    2e99:	00 
    2e9a:	4a 8d 3c 85 00 00 00 	lea    0x0(,%r8,4),%rdi
    2ea1:	00 
    2ea2:	4e 8d 04 a5 00 00 00 	lea    0x0(,%r12,4),%r8
    2ea9:	00 
    2eaa:	42 c7 04 a0 01 00 00 	movl   $0x1,(%rax,%r12,4)
    2eb1:	00 
    2eb2:	45 8d 63 08          	lea    0x8(%r11),%r12d
    2eb6:	4d 63 e4             	movslq %r12d,%r12
    2eb9:	49 83 c4 02          	add    $0x2,%r12
    2ebd:	42 c7 04 a0 01 00 00 	movl   $0x1,(%rax,%r12,4)
    2ec4:	00 
    2ec5:	4e 8d 1c a5 00 00 00 	lea    0x0(,%r12,4),%r11
    2ecc:	00 
    2ecd:	44 8d 66 08          	lea    0x8(%rsi),%r12d
    2ed1:	4d 63 e4             	movslq %r12d,%r12
    2ed4:	49 83 c4 06          	add    $0x6,%r12
    2ed8:	42 c7 04 a0 01 00 00 	movl   $0x1,(%rax,%r12,4)
    2edf:	00 
    2ee0:	4a 8d 34 a5 00 00 00 	lea    0x0(,%r12,4),%rsi
    2ee7:	00 
    2ee8:	4c 8d 24 8d 00 00 00 	lea    0x0(,%rcx,4),%r12
    2eef:	00 
    2ef0:	c7 04 88 01 00 00 00 	movl   $0x1,(%rax,%rcx,4)
    2ef7:	48 8d 0c 95 00 00 00 	lea    0x0(,%rdx,4),%rcx
    2efe:	00 
    2eff:	c7 04 90 01 00 00 00 	movl   $0x1,(%rax,%rdx,4)
    2f06:	41 8d 51 08          	lea    0x8(%r9),%edx
    2f0a:	48 63 d2             	movslq %edx,%rdx
    2f0d:	48 83 c2 04          	add    $0x4,%rdx
    2f11:	c7 04 90 01 00 00 00 	movl   $0x1,(%rax,%rdx,4)
    2f18:	4c 8d 0c 95 00 00 00 	lea    0x0(,%rdx,4),%r9
    2f1f:	00 
    2f20:	c7 44 30 04 01 00 00 	movl   $0x1,0x4(%rax,%rsi,1)
    2f27:	00 
    2f28:	83 fb 02             	cmp    $0x2,%ebx
    2f2b:	0f 84 37 02 00 00    	je     3168 <liber8tion_coding_bitmatrix+0x428>
    2f31:	c7 44 28 1c 01 00 00 	movl   $0x1,0x1c(%rax,%rbp,1)
    2f38:	00 
    2f39:	c7 44 38 1c 01 00 00 	movl   $0x1,0x1c(%rax,%rdi,1)
    2f40:	00 
    2f41:	42 c7 44 00 30 01 00 	movl   $0x1,0x30(%rax,%r8,1)
    2f48:	00 00 
    2f4a:	42 c7 44 18 18 01 00 	movl   $0x1,0x18(%rax,%r11,1)
    2f51:	00 00 
    2f53:	c7 44 30 24 01 00 00 	movl   $0x1,0x24(%rax,%rsi,1)
    2f5a:	00 
    2f5b:	42 c7 44 20 28 01 00 	movl   $0x1,0x28(%rax,%r12,1)
    2f62:	00 00 
    2f64:	c7 44 08 10 01 00 00 	movl   $0x1,0x10(%rax,%rcx,1)
    2f6b:	00 
    2f6c:	42 c7 44 08 24 01 00 	movl   $0x1,0x24(%rax,%r9,1)
    2f73:	00 00 
    2f75:	c7 44 38 20 01 00 00 	movl   $0x1,0x20(%rax,%rdi,1)
    2f7c:	00 
    2f7d:	83 fb 03             	cmp    $0x3,%ebx
    2f80:	0f 84 e2 01 00 00    	je     3168 <liber8tion_coding_bitmatrix+0x428>
    2f86:	c7 44 28 2c 01 00 00 	movl   $0x1,0x2c(%rax,%rbp,1)
    2f8d:	00 
    2f8e:	c7 44 38 48 01 00 00 	movl   $0x1,0x48(%rax,%rdi,1)
    2f95:	00 
    2f96:	42 c7 44 00 5c 01 00 	movl   $0x1,0x5c(%rax,%r8,1)
    2f9d:	00 00 
    2f9f:	42 c7 44 18 50 01 00 	movl   $0x1,0x50(%rax,%r11,1)
    2fa6:	00 00 
    2fa8:	c7 44 30 28 01 00 00 	movl   $0x1,0x28(%rax,%rsi,1)
    2faf:	00 
    2fb0:	42 c7 44 20 48 01 00 	movl   $0x1,0x48(%rax,%r12,1)
    2fb7:	00 00 
    2fb9:	c7 44 08 3c 01 00 00 	movl   $0x1,0x3c(%rax,%rcx,1)
    2fc0:	00 
    2fc1:	42 c7 44 08 34 01 00 	movl   $0x1,0x34(%rax,%r9,1)
    2fc8:	00 00 
    2fca:	42 c7 44 20 4c 01 00 	movl   $0x1,0x4c(%rax,%r12,1)
    2fd1:	00 00 
    2fd3:	83 fb 04             	cmp    $0x4,%ebx
    2fd6:	0f 84 8c 01 00 00    	je     3168 <liber8tion_coding_bitmatrix+0x428>
    2fdc:	c7 44 28 58 01 00 00 	movl   $0x1,0x58(%rax,%rbp,1)
    2fe3:	00 
    2fe4:	c7 44 38 6c 01 00 00 	movl   $0x1,0x6c(%rax,%rdi,1)
    2feb:	00 
    2fec:	42 c7 44 00 64 01 00 	movl   $0x1,0x64(%rax,%r8,1)
    2ff3:	00 00 
    2ff5:	42 c7 44 18 74 01 00 	movl   $0x1,0x74(%rax,%r11,1)
    2ffc:	00 00 
    2ffe:	c7 44 30 50 01 00 00 	movl   $0x1,0x50(%rax,%rsi,1)
    3005:	00 
    3006:	42 c7 44 20 6c 01 00 	movl   $0x1,0x6c(%rax,%r12,1)
    300d:	00 00 
    300f:	c7 44 08 58 01 00 00 	movl   $0x1,0x58(%rax,%rcx,1)
    3016:	00 
    3017:	42 c7 44 08 50 01 00 	movl   $0x1,0x50(%rax,%r9,1)
    301e:	00 00 
    3020:	42 c7 44 00 60 01 00 	movl   $0x1,0x60(%rax,%r8,1)
    3027:	00 00 
    3029:	83 fb 05             	cmp    $0x5,%ebx
    302c:	0f 84 36 01 00 00    	je     3168 <liber8tion_coding_bitmatrix+0x428>
    3032:	c7 44 28 68 01 00 00 	movl   $0x1,0x68(%rax,%rbp,1)
    3039:	00 
    303a:	c7 44 38 7c 01 00 00 	movl   $0x1,0x7c(%rax,%rdi,1)
    3041:	00 
    3042:	42 c7 84 00 8c 00 00 	movl   $0x1,0x8c(%rax,%r8,1)
    3049:	00 01 00 00 00 
    304e:	42 c7 84 18 88 00 00 	movl   $0x1,0x88(%rax,%r11,1)
    3055:	00 01 00 00 00 
    305a:	c7 44 30 7c 01 00 00 	movl   $0x1,0x7c(%rax,%rsi,1)
    3061:	00 
    3062:	42 c7 84 20 94 00 00 	movl   $0x1,0x94(%rax,%r12,1)
    3069:	00 01 00 00 00 
    306e:	c7 84 08 88 00 00 00 	movl   $0x1,0x88(%rax,%rcx,1)
    3075:	01 00 00 00 
    3079:	42 c7 44 08 70 01 00 	movl   $0x1,0x70(%rax,%r9,1)
    3080:	00 00 
    3082:	42 c7 44 08 78 01 00 	movl   $0x1,0x78(%rax,%r9,1)
    3089:	00 00 
    308b:	83 fb 06             	cmp    $0x6,%ebx
    308e:	0f 84 d4 00 00 00    	je     3168 <liber8tion_coding_bitmatrix+0x428>
    3094:	c7 84 28 90 00 00 00 	movl   $0x1,0x90(%rax,%rbp,1)
    309b:	01 00 00 00 
    309f:	c7 84 38 94 00 00 00 	movl   $0x1,0x94(%rax,%rdi,1)
    30a6:	01 00 00 00 
    30aa:	42 c7 84 00 b8 00 00 	movl   $0x1,0xb8(%rax,%r8,1)
    30b1:	00 01 00 00 00 
    30b6:	42 c7 84 18 ac 00 00 	movl   $0x1,0xac(%rax,%r11,1)
    30bd:	00 01 00 00 00 
    30c2:	c7 84 30 8c 00 00 00 	movl   $0x1,0x8c(%rax,%rsi,1)
    30c9:	01 00 00 00 
    30cd:	42 c7 84 20 b8 00 00 	movl   $0x1,0xb8(%rax,%r12,1)
    30d4:	00 01 00 00 00 
    30d9:	c7 84 08 9c 00 00 00 	movl   $0x1,0x9c(%rax,%rcx,1)
    30e0:	01 00 00 00 
    30e4:	42 c7 84 08 98 00 00 	movl   $0x1,0x98(%rax,%r9,1)
    30eb:	00 01 00 00 00 
    30f0:	c7 84 08 a0 00 00 00 	movl   $0x1,0xa0(%rax,%rcx,1)
    30f7:	01 00 00 00 
    30fb:	83 fb 07             	cmp    $0x7,%ebx
    30fe:	74 68                	je     3168 <liber8tion_coding_bitmatrix+0x428>
    3100:	c7 84 28 b4 00 00 00 	movl   $0x1,0xb4(%rax,%rbp,1)
    3107:	01 00 00 00 
    310b:	c7 84 38 d0 00 00 00 	movl   $0x1,0xd0(%rax,%rdi,1)
    3112:	01 00 00 00 
    3116:	42 c7 84 00 c4 00 00 	movl   $0x1,0xc4(%rax,%r8,1)
    311d:	00 01 00 00 00 
    3122:	42 c7 84 18 cc 00 00 	movl   $0x1,0xcc(%rax,%r11,1)
    3129:	00 01 00 00 00 
    312e:	c7 84 30 b4 00 00 00 	movl   $0x1,0xb4(%rax,%rsi,1)
    3135:	01 00 00 00 
    3139:	42 c7 84 20 c4 00 00 	movl   $0x1,0xc4(%rax,%r12,1)
    3140:	00 01 00 00 00 
    3145:	c7 84 08 ac 00 00 00 	movl   $0x1,0xac(%rax,%rcx,1)
    314c:	01 00 00 00 
    3150:	42 c7 84 08 c8 00 00 	movl   $0x1,0xc8(%rax,%r9,1)
    3157:	00 01 00 00 00 
    315c:	42 c7 84 18 bc 00 00 	movl   $0x1,0xbc(%rax,%r11,1)
    3163:	00 01 00 00 00 
    3168:	5b                   	pop    %rbx
    3169:	5d                   	pop    %rbp
    316a:	41 5c                	pop    %r12
    316c:	c3                   	retq   
    316d:	5b                   	pop    %rbx
    316e:	31 c0                	xor    %eax,%eax
    3170:	5d                   	pop    %rbp
    3171:	41 5c                	pop    %r12
    3173:	c3                   	retq   
    3174:	31 c0                	xor    %eax,%eax
    3176:	c3                   	retq   
    3177:	66 0f 1f 84 00 00 00 	nopw   0x0(%rax,%rax,1)
    317e:	00 00 

0000000000003180 <blaum_roth_coding_bitmatrix>:
    3180:	f3 0f 1e fa          	endbr64 
    3184:	39 f7                	cmp    %esi,%edi
    3186:	0f 8f db 01 00 00    	jg     3367 <blaum_roth_coding_bitmatrix+0x1e7>
    318c:	41 57                	push   %r15
    318e:	41 56                	push   %r14
    3190:	41 55                	push   %r13
    3192:	41 54                	push   %r12
    3194:	41 89 fc             	mov    %edi,%r12d
    3197:	44 0f af e6          	imul   %esi,%r12d
    319b:	55                   	push   %rbp
    319c:	89 f5                	mov    %esi,%ebp
    319e:	53                   	push   %rbx
    319f:	89 fb                	mov    %edi,%ebx
    31a1:	45 89 e6             	mov    %r12d,%r14d
    31a4:	44 0f af f6          	imul   %esi,%r14d
    31a8:	48 83 ec 18          	sub    $0x18,%rsp
    31ac:	43 8d 3c 36          	lea    (%r14,%r14,1),%edi
    31b0:	48 63 ff             	movslq %edi,%rdi
    31b3:	48 c1 e7 02          	shl    $0x2,%rdi
    31b7:	e8 34 e2 ff ff       	callq  13f0 <malloc@plt>
    31bc:	49 89 c1             	mov    %rax,%r9
    31bf:	48 85 c0             	test   %rax,%rax
    31c2:	0f 84 9a 01 00 00    	je     3362 <blaum_roth_coding_bitmatrix+0x1e2>
    31c8:	4c 63 ed             	movslq %ebp,%r13
    31cb:	48 63 c3             	movslq %ebx,%rax
    31ce:	4c 89 cf             	mov    %r9,%rdi
    31d1:	31 f6                	xor    %esi,%esi
    31d3:	4c 89 ea             	mov    %r13,%rdx
    31d6:	49 0f af d5          	imul   %r13,%rdx
    31da:	48 0f af d0          	imul   %rax,%rdx
    31de:	48 c1 e2 03          	shl    $0x3,%rdx
    31e2:	e8 59 e1 ff ff       	callq  1340 <memset@plt>
    31e7:	49 89 c1             	mov    %rax,%r9
    31ea:	85 ed                	test   %ebp,%ebp
    31ec:	7e 4c                	jle    323a <blaum_roth_coding_bitmatrix+0xba>
    31ee:	49 63 c4             	movslq %r12d,%rax
    31f1:	4c 89 cf             	mov    %r9,%rdi
    31f4:	4a 8d 0c ad 00 00 00 	lea    0x0(,%r13,4),%rcx
    31fb:	00 
    31fc:	31 f6                	xor    %esi,%esi
    31fe:	4c 8d 04 85 04 00 00 	lea    0x4(,%rax,4),%r8
    3205:	00 
    3206:	66 2e 0f 1f 84 00 00 	nopw   %cs:0x0(%rax,%rax,1)
    320d:	00 00 00 
    3210:	48 89 fa             	mov    %rdi,%rdx
    3213:	31 c0                	xor    %eax,%eax
    3215:	85 db                	test   %ebx,%ebx
    3217:	7e 17                	jle    3230 <blaum_roth_coding_bitmatrix+0xb0>
    3219:	0f 1f 80 00 00 00 00 	nopl   0x0(%rax)
    3220:	83 c0 01             	add    $0x1,%eax
    3223:	c7 02 01 00 00 00    	movl   $0x1,(%rdx)
    3229:	48 01 ca             	add    %rcx,%rdx
    322c:	39 c3                	cmp    %eax,%ebx
    322e:	75 f0                	jne    3220 <blaum_roth_coding_bitmatrix+0xa0>
    3230:	83 c6 01             	add    $0x1,%esi
    3233:	4c 01 c7             	add    %r8,%rdi
    3236:	39 f5                	cmp    %esi,%ebp
    3238:	75 d6                	jne    3210 <blaum_roth_coding_bitmatrix+0x90>
    323a:	44 8d 45 01          	lea    0x1(%rbp),%r8d
    323e:	85 db                	test   %ebx,%ebx
    3240:	0f 8e e1 00 00 00    	jle    3327 <blaum_roth_coding_bitmatrix+0x1a7>
    3246:	44 89 c0             	mov    %r8d,%eax
    3249:	89 5c 24 08          	mov    %ebx,0x8(%rsp)
    324d:	44 89 c6             	mov    %r8d,%esi
    3250:	31 ff                	xor    %edi,%edi
    3252:	c1 e8 1f             	shr    $0x1f,%eax
    3255:	44 01 c0             	add    %r8d,%eax
    3258:	d1 f8                	sar    %eax
    325a:	83 c0 01             	add    $0x1,%eax
    325d:	89 44 24 0c          	mov    %eax,0xc(%rsp)
    3261:	4a 8d 04 ad 00 00 00 	lea    0x0(,%r13,4),%rax
    3268:	00 
    3269:	48 89 04 24          	mov    %rax,(%rsp)
    326d:	49 63 c6             	movslq %r14d,%rax
    3270:	4d 8d 2c 81          	lea    (%r9,%rax,4),%r13
    3274:	49 63 c4             	movslq %r12d,%rax
    3277:	4c 8d 3c 85 04 00 00 	lea    0x4(,%rax,4),%r15
    327e:	00 
    327f:	90                   	nop
    3280:	44 89 f2             	mov    %r14d,%edx
    3283:	85 ff                	test   %edi,%edi
    3285:	0f 84 b5 00 00 00    	je     3340 <blaum_roth_coding_bitmatrix+0x1c0>
    328b:	85 ed                	test   %ebp,%ebp
    328d:	0f 8e 7d 00 00 00    	jle    3310 <blaum_roth_coding_bitmatrix+0x190>
    3293:	8b 44 24 0c          	mov    0xc(%rsp),%eax
    3297:	89 fb                	mov    %edi,%ebx
    3299:	d1 fb                	sar    %ebx
    329b:	01 d8                	add    %ebx,%eax
    329d:	40 f6 c7 01          	test   $0x1,%dil
    32a1:	0f 45 d8             	cmovne %eax,%ebx
    32a4:	b8 01 00 00 00       	mov    $0x1,%eax
    32a9:	83 eb 01             	sub    $0x1,%ebx
    32ac:	eb 2c                	jmp    32da <blaum_roth_coding_bitmatrix+0x15a>
    32ae:	66 90                	xchg   %ax,%ax
    32b0:	8d 0c 38             	lea    (%rax,%rdi,1),%ecx
    32b3:	41 89 c3             	mov    %eax,%r11d
    32b6:	41 29 f3             	sub    %esi,%r11d
    32b9:	44 39 c1             	cmp    %r8d,%ecx
    32bc:	41 0f 4d cb          	cmovge %r11d,%ecx
    32c0:	83 c0 01             	add    $0x1,%eax
    32c3:	8d 4c 11 ff          	lea    -0x1(%rcx,%rdx,1),%ecx
    32c7:	44 01 e2             	add    %r12d,%edx
    32ca:	48 63 c9             	movslq %ecx,%rcx
    32cd:	41 c7 04 89 01 00 00 	movl   $0x1,(%r9,%rcx,4)
    32d4:	00 
    32d5:	44 39 c0             	cmp    %r8d,%eax
    32d8:	74 36                	je     3310 <blaum_roth_coding_bitmatrix+0x190>
    32da:	39 f0                	cmp    %esi,%eax
    32dc:	75 d2                	jne    32b0 <blaum_roth_coding_bitmatrix+0x130>
    32de:	8d 0c 3a             	lea    (%rdx,%rdi,1),%ecx
    32e1:	83 c0 01             	add    $0x1,%eax
    32e4:	48 63 c9             	movslq %ecx,%rcx
    32e7:	41 c7 44 89 fc 01 00 	movl   $0x1,-0x4(%r9,%rcx,4)
    32ee:	00 00 
    32f0:	8d 0c 13             	lea    (%rbx,%rdx,1),%ecx
    32f3:	44 01 e2             	add    %r12d,%edx
    32f6:	48 63 c9             	movslq %ecx,%rcx
    32f9:	41 c7 04 89 01 00 00 	movl   $0x1,(%r9,%rcx,4)
    3300:	00 
    3301:	44 39 c0             	cmp    %r8d,%eax
    3304:	75 d4                	jne    32da <blaum_roth_coding_bitmatrix+0x15a>
    3306:	66 2e 0f 1f 84 00 00 	nopw   %cs:0x0(%rax,%rax,1)
    330d:	00 00 00 
    3310:	83 c7 01             	add    $0x1,%edi
    3313:	41 01 ee             	add    %ebp,%r14d
    3316:	83 ee 01             	sub    $0x1,%esi
    3319:	4c 03 2c 24          	add    (%rsp),%r13
    331d:	39 7c 24 08          	cmp    %edi,0x8(%rsp)
    3321:	0f 85 59 ff ff ff    	jne    3280 <blaum_roth_coding_bitmatrix+0x100>
    3327:	48 83 c4 18          	add    $0x18,%rsp
    332b:	4c 89 c8             	mov    %r9,%rax
    332e:	5b                   	pop    %rbx
    332f:	5d                   	pop    %rbp
    3330:	41 5c                	pop    %r12
    3332:	41 5d                	pop    %r13
    3334:	41 5e                	pop    %r14
    3336:	41 5f                	pop    %r15
    3338:	c3                   	retq   
    3339:	0f 1f 80 00 00 00 00 	nopl   0x0(%rax)
    3340:	85 ed                	test   %ebp,%ebp
    3342:	7e cc                	jle    3310 <blaum_roth_coding_bitmatrix+0x190>
    3344:	4c 89 ea             	mov    %r13,%rdx
    3347:	31 c0                	xor    %eax,%eax
    3349:	0f 1f 80 00 00 00 00 	nopl   0x0(%rax)
    3350:	83 c0 01             	add    $0x1,%eax
    3353:	c7 02 01 00 00 00    	movl   $0x1,(%rdx)
    3359:	4c 01 fa             	add    %r15,%rdx
    335c:	39 c5                	cmp    %eax,%ebp
    335e:	75 f0                	jne    3350 <blaum_roth_coding_bitmatrix+0x1d0>
    3360:	eb ae                	jmp    3310 <blaum_roth_coding_bitmatrix+0x190>
    3362:	45 31 c9             	xor    %r9d,%r9d
    3365:	eb c0                	jmp    3327 <blaum_roth_coding_bitmatrix+0x1a7>
    3367:	45 31 c9             	xor    %r9d,%r9d
    336a:	4c 89 c8             	mov    %r9,%rax
    336d:	c3                   	retq   
    336e:	66 90                	xchg   %ax,%ax

0000000000003370 <jerasure_print_matrix>:
    3370:	f3 0f 1e fa          	endbr64 
    3374:	41 57                	push   %r15
    3376:	41 56                	push   %r14
    3378:	41 89 d6             	mov    %edx,%r14d
    337b:	41 55                	push   %r13
    337d:	41 54                	push   %r12
    337f:	55                   	push   %rbp
    3380:	bd 0a 00 00 00       	mov    $0xa,%ebp
    3385:	53                   	push   %rbx
    3386:	48 83 ec 48          	sub    $0x48,%rsp
    338a:	48 89 7c 24 08       	mov    %rdi,0x8(%rsp)
    338f:	89 74 24 04          	mov    %esi,0x4(%rsp)
    3393:	64 48 8b 04 25 28 00 	mov    %fs:0x28,%rax
    339a:	00 00 
    339c:	48 89 44 24 38       	mov    %rax,0x38(%rsp)
    33a1:	31 c0                	xor    %eax,%eax
    33a3:	83 f9 20             	cmp    $0x20,%ecx
    33a6:	0f 85 a2 00 00 00    	jne    344e <jerasure_print_matrix+0xde>
    33ac:	8b 44 24 04          	mov    0x4(%rsp),%eax
    33b0:	85 c0                	test   %eax,%eax
    33b2:	7e 7b                	jle    342f <jerasure_print_matrix+0xbf>
    33b4:	c7 04 24 00 00 00 00 	movl   $0x0,(%rsp)
    33bb:	45 31 ff             	xor    %r15d,%r15d
    33be:	4c 8d 2d 26 73 00 00 	lea    0x7326(%rip),%r13        # a6eb <__PRETTY_FUNCTION__.5230+0x1a>
    33c5:	0f 1f 00             	nopl   (%rax)
    33c8:	45 85 f6             	test   %r14d,%r14d
    33cb:	7e 49                	jle    3416 <jerasure_print_matrix+0xa6>
    33cd:	48 63 14 24          	movslq (%rsp),%rdx
    33d1:	48 8b 74 24 08       	mov    0x8(%rsp),%rsi
    33d6:	41 8d 46 ff          	lea    -0x1(%r14),%eax
    33da:	48 01 d0             	add    %rdx,%rax
    33dd:	48 8d 1c 96          	lea    (%rsi,%rdx,4),%rbx
    33e1:	4c 8d 64 86 04       	lea    0x4(%rsi,%rax,4),%r12
    33e6:	eb 12                	jmp    33fa <jerasure_print_matrix+0x8a>
    33e8:	0f 1f 84 00 00 00 00 	nopl   0x0(%rax,%rax,1)
    33ef:	00 
    33f0:	bf 20 00 00 00       	mov    $0x20,%edi
    33f5:	e8 86 de ff ff       	callq  1280 <putchar@plt>
    33fa:	8b 0b                	mov    (%rbx),%ecx
    33fc:	89 ea                	mov    %ebp,%edx
    33fe:	4c 89 ee             	mov    %r13,%rsi
    3401:	bf 01 00 00 00       	mov    $0x1,%edi
    3406:	31 c0                	xor    %eax,%eax
    3408:	48 83 c3 04          	add    $0x4,%rbx
    340c:	e8 0f e0 ff ff       	callq  1420 <__printf_chk@plt>
    3411:	4c 39 e3             	cmp    %r12,%rbx
    3414:	75 da                	jne    33f0 <jerasure_print_matrix+0x80>
    3416:	bf 0a 00 00 00       	mov    $0xa,%edi
    341b:	41 83 c7 01          	add    $0x1,%r15d
    341f:	e8 5c de ff ff       	callq  1280 <putchar@plt>
    3424:	44 01 34 24          	add    %r14d,(%rsp)
    3428:	44 39 7c 24 04       	cmp    %r15d,0x4(%rsp)
    342d:	75 99                	jne    33c8 <jerasure_print_matrix+0x58>
    342f:	48 8b 44 24 38       	mov    0x38(%rsp),%rax
    3434:	64 48 33 04 25 28 00 	xor    %fs:0x28,%rax
    343b:	00 00 
    343d:	75 79                	jne    34b8 <jerasure_print_matrix+0x148>
    343f:	48 83 c4 48          	add    $0x48,%rsp
    3443:	5b                   	pop    %rbx
    3444:	5d                   	pop    %rbp
    3445:	41 5c                	pop    %r12
    3447:	41 5d                	pop    %r13
    3449:	41 5e                	pop    %r14
    344b:	41 5f                	pop    %r15
    344d:	c3                   	retq   
    344e:	b8 01 00 00 00       	mov    $0x1,%eax
    3453:	48 8d 5c 24 10       	lea    0x10(%rsp),%rbx
    3458:	ba 1e 00 00 00       	mov    $0x1e,%edx
    345d:	be 01 00 00 00       	mov    $0x1,%esi
    3462:	d3 e0                	shl    %cl,%eax
    3464:	48 89 df             	mov    %rbx,%rdi
    3467:	48 8d 0d 7a 72 00 00 	lea    0x727a(%rip),%rcx        # a6e8 <__PRETTY_FUNCTION__.5230+0x17>
    346e:	48 89 dd             	mov    %rbx,%rbp
    3471:	44 8d 40 ff          	lea    -0x1(%rax),%r8d
    3475:	31 c0                	xor    %eax,%eax
    3477:	e8 14 e0 ff ff       	callq  1490 <__sprintf_chk@plt>
    347c:	8b 55 00             	mov    0x0(%rbp),%edx
    347f:	48 83 c5 04          	add    $0x4,%rbp
    3483:	8d 82 ff fe fe fe    	lea    -0x1010101(%rdx),%eax
    3489:	f7 d2                	not    %edx
    348b:	21 d0                	and    %edx,%eax
    348d:	25 80 80 80 80       	and    $0x80808080,%eax
    3492:	74 e8                	je     347c <jerasure_print_matrix+0x10c>
    3494:	89 c2                	mov    %eax,%edx
    3496:	c1 ea 10             	shr    $0x10,%edx
    3499:	a9 80 80 00 00       	test   $0x8080,%eax
    349e:	0f 44 c2             	cmove  %edx,%eax
    34a1:	48 8d 55 02          	lea    0x2(%rbp),%rdx
    34a5:	48 0f 44 ea          	cmove  %rdx,%rbp
    34a9:	89 c1                	mov    %eax,%ecx
    34ab:	00 c1                	add    %al,%cl
    34ad:	48 83 dd 03          	sbb    $0x3,%rbp
    34b1:	29 dd                	sub    %ebx,%ebp
    34b3:	e9 f4 fe ff ff       	jmpq   33ac <jerasure_print_matrix+0x3c>
    34b8:	e8 43 de ff ff       	callq  1300 <__stack_chk_fail@plt>
    34bd:	0f 1f 00             	nopl   (%rax)

00000000000034c0 <jerasure_print_bitmatrix>:
    34c0:	f3 0f 1e fa          	endbr64 
    34c4:	41 57                	push   %r15
    34c6:	41 56                	push   %r14
    34c8:	41 55                	push   %r13
    34ca:	41 54                	push   %r12
    34cc:	55                   	push   %rbp
    34cd:	53                   	push   %rbx
    34ce:	48 83 ec 28          	sub    $0x28,%rsp
    34d2:	48 89 7c 24 18       	mov    %rdi,0x18(%rsp)
    34d7:	89 74 24 14          	mov    %esi,0x14(%rsp)
    34db:	89 54 24 0c          	mov    %edx,0xc(%rsp)
    34df:	85 f6                	test   %esi,%esi
    34e1:	0f 8e c1 00 00 00    	jle    35a8 <jerasure_print_bitmatrix+0xe8>
    34e7:	44 8d 62 ff          	lea    -0x1(%rdx),%r12d
    34eb:	89 cb                	mov    %ecx,%ebx
    34ed:	4c 8d 2d 43 6b 00 00 	lea    0x6b43(%rip),%r13        # a037 <_IO_stdin_used+0x37>
    34f4:	45 31 f6             	xor    %r14d,%r14d
    34f7:	c7 44 24 10 00 00 00 	movl   $0x0,0x10(%rsp)
    34fe:	00 
    34ff:	49 83 c4 01          	add    $0x1,%r12
    3503:	0f 1f 44 00 00       	nopl   0x0(%rax,%rax,1)
    3508:	8b 44 24 0c          	mov    0xc(%rsp),%eax
    350c:	85 c0                	test   %eax,%eax
    350e:	7e 58                	jle    3568 <jerasure_print_bitmatrix+0xa8>
    3510:	48 63 44 24 10       	movslq 0x10(%rsp),%rax
    3515:	48 8b 4c 24 18       	mov    0x18(%rsp),%rcx
    351a:	41 bf 01 00 00 00    	mov    $0x1,%r15d
    3520:	48 8d 2c 81          	lea    (%rcx,%rax,4),%rbp
    3524:	eb 0e                	jmp    3534 <jerasure_print_bitmatrix+0x74>
    3526:	66 2e 0f 1f 84 00 00 	nopw   %cs:0x0(%rax,%rax,1)
    352d:	00 00 00 
    3530:	49 83 c7 01          	add    $0x1,%r15
    3534:	42 8b 54 bd fc       	mov    -0x4(%rbp,%r15,4),%edx
    3539:	4c 89 ee             	mov    %r13,%rsi
    353c:	bf 01 00 00 00       	mov    $0x1,%edi
    3541:	31 c0                	xor    %eax,%eax
    3543:	e8 d8 de ff ff       	callq  1420 <__printf_chk@plt>
    3548:	44 89 f8             	mov    %r15d,%eax
    354b:	4d 39 fc             	cmp    %r15,%r12
    354e:	74 18                	je     3568 <jerasure_print_bitmatrix+0xa8>
    3550:	99                   	cltd   
    3551:	f7 fb                	idiv   %ebx
    3553:	85 d2                	test   %edx,%edx
    3555:	75 d9                	jne    3530 <jerasure_print_bitmatrix+0x70>
    3557:	bf 20 00 00 00       	mov    $0x20,%edi
    355c:	e8 1f dd ff ff       	callq  1280 <putchar@plt>
    3561:	eb cd                	jmp    3530 <jerasure_print_bitmatrix+0x70>
    3563:	0f 1f 44 00 00       	nopl   0x0(%rax,%rax,1)
    3568:	bf 0a 00 00 00       	mov    $0xa,%edi
    356d:	41 83 c6 01          	add    $0x1,%r14d
    3571:	e8 0a dd ff ff       	callq  1280 <putchar@plt>
    3576:	44 39 74 24 14       	cmp    %r14d,0x14(%rsp)
    357b:	74 2b                	je     35a8 <jerasure_print_bitmatrix+0xe8>
    357d:	44 89 f0             	mov    %r14d,%eax
    3580:	99                   	cltd   
    3581:	f7 fb                	idiv   %ebx
    3583:	85 d2                	test   %edx,%edx
    3585:	74 11                	je     3598 <jerasure_print_bitmatrix+0xd8>
    3587:	8b 4c 24 0c          	mov    0xc(%rsp),%ecx
    358b:	01 4c 24 10          	add    %ecx,0x10(%rsp)
    358f:	e9 74 ff ff ff       	jmpq   3508 <jerasure_print_bitmatrix+0x48>
    3594:	0f 1f 40 00          	nopl   0x0(%rax)
    3598:	bf 0a 00 00 00       	mov    $0xa,%edi
    359d:	e8 de dc ff ff       	callq  1280 <putchar@plt>
    35a2:	eb e3                	jmp    3587 <jerasure_print_bitmatrix+0xc7>
    35a4:	0f 1f 40 00          	nopl   0x0(%rax)
    35a8:	48 83 c4 28          	add    $0x28,%rsp
    35ac:	5b                   	pop    %rbx
    35ad:	5d                   	pop    %rbp
    35ae:	41 5c                	pop    %r12
    35b0:	41 5d                	pop    %r13
    35b2:	41 5e                	pop    %r14
    35b4:	41 5f                	pop    %r15
    35b6:	c3                   	retq   
    35b7:	66 0f 1f 84 00 00 00 	nopw   0x0(%rax,%rax,1)
    35be:	00 00 

00000000000035c0 <jerasure_matrix_to_bitmatrix>:
    35c0:	f3 0f 1e fa          	endbr64 
    35c4:	41 57                	push   %r15
    35c6:	41 89 d7             	mov    %edx,%r15d
    35c9:	41 56                	push   %r14
    35cb:	41 89 f6             	mov    %esi,%r14d
    35ce:	41 55                	push   %r13
    35d0:	41 54                	push   %r12
    35d2:	55                   	push   %rbp
    35d3:	48 89 cd             	mov    %rcx,%rbp
    35d6:	53                   	push   %rbx
    35d7:	89 fb                	mov    %edi,%ebx
    35d9:	48 83 ec 68          	sub    $0x68,%rsp
    35dd:	89 7c 24 40          	mov    %edi,0x40(%rsp)
    35e1:	0f af fe             	imul   %esi,%edi
    35e4:	89 74 24 58          	mov    %esi,0x58(%rsp)
    35e8:	48 89 4c 24 50       	mov    %rcx,0x50(%rsp)
    35ed:	0f af fa             	imul   %edx,%edi
    35f0:	0f af fa             	imul   %edx,%edi
    35f3:	48 63 ff             	movslq %edi,%rdi
    35f6:	48 c1 e7 02          	shl    $0x2,%rdi
    35fa:	e8 f1 dd ff ff       	callq  13f0 <malloc@plt>
    35ff:	48 89 44 24 38       	mov    %rax,0x38(%rsp)
    3604:	48 85 ed             	test   %rbp,%rbp
    3607:	0f 84 5c 01 00 00    	je     3769 <jerasure_matrix_to_bitmatrix+0x1a9>
    360d:	48 89 c7             	mov    %rax,%rdi
    3610:	89 d8                	mov    %ebx,%eax
    3612:	89 de                	mov    %ebx,%esi
    3614:	41 0f af c7          	imul   %r15d,%eax
    3618:	45 85 f6             	test   %r14d,%r14d
    361b:	0f 8e 34 01 00 00    	jle    3755 <jerasure_matrix_to_bitmatrix+0x195>
    3621:	89 c3                	mov    %eax,%ebx
    3623:	48 98                	cltq   
    3625:	48 89 7c 24 28       	mov    %rdi,0x28(%rsp)
    362a:	41 0f af df          	imul   %r15d,%ebx
    362e:	c7 44 24 34 00 00 00 	movl   $0x0,0x34(%rsp)
    3635:	00 
    3636:	c7 44 24 24 00 00 00 	movl   $0x0,0x24(%rsp)
    363d:	00 
    363e:	c7 44 24 30 00 00 00 	movl   $0x0,0x30(%rsp)
    3645:	00 
    3646:	48 63 cb             	movslq %ebx,%rcx
    3649:	89 5c 24 44          	mov    %ebx,0x44(%rsp)
    364d:	48 8d 1c 8d 00 00 00 	lea    0x0(,%rcx,4),%rbx
    3654:	00 
    3655:	49 63 cf             	movslq %r15d,%rcx
    3658:	48 89 5c 24 48       	mov    %rbx,0x48(%rsp)
    365d:	48 8d 1c 8d 00 00 00 	lea    0x0(,%rcx,4),%rbx
    3664:	00 
    3665:	48 89 5c 24 10       	mov    %rbx,0x10(%rsp)
    366a:	48 8d 1c 85 00 00 00 	lea    0x0(,%rax,4),%rbx
    3671:	00 
    3672:	8d 46 ff             	lea    -0x1(%rsi),%eax
    3675:	89 44 24 5c          	mov    %eax,0x5c(%rsp)
    3679:	8b 44 24 40          	mov    0x40(%rsp),%eax
    367d:	85 c0                	test   %eax,%eax
    367f:	0f 8e a3 00 00 00    	jle    3728 <jerasure_matrix_to_bitmatrix+0x168>
    3685:	8b 44 24 30          	mov    0x30(%rsp),%eax
    3689:	48 63 4c 24 34       	movslq 0x34(%rsp),%rcx
    368e:	48 8b 74 24 50       	mov    0x50(%rsp),%rsi
    3693:	46 8d 24 38          	lea    (%rax,%r15,1),%r12d
    3697:	8b 44 24 5c          	mov    0x5c(%rsp),%eax
    369b:	4c 8d 2c 8e          	lea    (%rsi,%rcx,4),%r13
    369f:	48 01 c8             	add    %rcx,%rax
    36a2:	48 8d 44 86 04       	lea    0x4(%rsi,%rax,4),%rax
    36a7:	48 89 44 24 18       	mov    %rax,0x18(%rsp)
    36ac:	48 8b 44 24 28       	mov    0x28(%rsp),%rax
    36b1:	48 89 44 24 08       	mov    %rax,0x8(%rsp)
    36b6:	66 2e 0f 1f 84 00 00 	nopw   %cs:0x0(%rax,%rax,1)
    36bd:	00 00 00 
    36c0:	41 8b 7d 00          	mov    0x0(%r13),%edi
    36c4:	45 85 ff             	test   %r15d,%r15d
    36c7:	7e 47                	jle    3710 <jerasure_matrix_to_bitmatrix+0x150>
    36c9:	45 89 e6             	mov    %r12d,%r14d
    36cc:	48 8b 6c 24 08       	mov    0x8(%rsp),%rbp
    36d1:	45 29 fe             	sub    %r15d,%r14d
    36d4:	0f 1f 40 00          	nopl   0x0(%rax)
    36d8:	48 89 e8             	mov    %rbp,%rax
    36db:	31 c9                	xor    %ecx,%ecx
    36dd:	0f 1f 00             	nopl   (%rax)
    36e0:	89 fa                	mov    %edi,%edx
    36e2:	d3 fa                	sar    %cl,%edx
    36e4:	83 c1 01             	add    $0x1,%ecx
    36e7:	83 e2 01             	and    $0x1,%edx
    36ea:	89 10                	mov    %edx,(%rax)
    36ec:	48 01 d8             	add    %rbx,%rax
    36ef:	41 39 cf             	cmp    %ecx,%r15d
    36f2:	75 ec                	jne    36e0 <jerasure_matrix_to_bitmatrix+0x120>
    36f4:	44 89 fa             	mov    %r15d,%edx
    36f7:	be 02 00 00 00       	mov    $0x2,%esi
    36fc:	41 83 c6 01          	add    $0x1,%r14d
    3700:	48 83 c5 04          	add    $0x4,%rbp
    3704:	e8 07 4e 00 00       	callq  8510 <galois_single_multiply>
    3709:	89 c7                	mov    %eax,%edi
    370b:	45 39 f4             	cmp    %r14d,%r12d
    370e:	75 c8                	jne    36d8 <jerasure_matrix_to_bitmatrix+0x118>
    3710:	48 8b 74 24 10       	mov    0x10(%rsp),%rsi
    3715:	45 01 fc             	add    %r15d,%r12d
    3718:	48 01 74 24 08       	add    %rsi,0x8(%rsp)
    371d:	49 83 c5 04          	add    $0x4,%r13
    3721:	4c 3b 6c 24 18       	cmp    0x18(%rsp),%r13
    3726:	75 98                	jne    36c0 <jerasure_matrix_to_bitmatrix+0x100>
    3728:	48 8b 7c 24 48       	mov    0x48(%rsp),%rdi
    372d:	83 44 24 24 01       	addl   $0x1,0x24(%rsp)
    3732:	48 01 7c 24 28       	add    %rdi,0x28(%rsp)
    3737:	8b 74 24 44          	mov    0x44(%rsp),%esi
    373b:	8b 7c 24 40          	mov    0x40(%rsp),%edi
    373f:	01 74 24 30          	add    %esi,0x30(%rsp)
    3743:	01 7c 24 34          	add    %edi,0x34(%rsp)
    3747:	8b 44 24 24          	mov    0x24(%rsp),%eax
    374b:	39 44 24 58          	cmp    %eax,0x58(%rsp)
    374f:	0f 85 24 ff ff ff    	jne    3679 <jerasure_matrix_to_bitmatrix+0xb9>
    3755:	48 8b 44 24 38       	mov    0x38(%rsp),%rax
    375a:	48 83 c4 68          	add    $0x68,%rsp
    375e:	5b                   	pop    %rbx
    375f:	5d                   	pop    %rbp
    3760:	41 5c                	pop    %r12
    3762:	41 5d                	pop    %r13
    3764:	41 5e                	pop    %r14
    3766:	41 5f                	pop    %r15
    3768:	c3                   	retq   
    3769:	48 c7 44 24 38 00 00 	movq   $0x0,0x38(%rsp)
    3770:	00 00 
    3772:	eb e1                	jmp    3755 <jerasure_matrix_to_bitmatrix+0x195>
    3774:	66 66 2e 0f 1f 84 00 	data16 nopw %cs:0x0(%rax,%rax,1)
    377b:	00 00 00 00 
    377f:	90                   	nop

0000000000003780 <jerasure_bitmatrix_dotprod>:
    3780:	f3 0f 1e fa          	endbr64 
    3784:	41 57                	push   %r15
    3786:	89 f0                	mov    %esi,%eax
    3788:	41 56                	push   %r14
    378a:	41 55                	push   %r13
    378c:	41 54                	push   %r12
    378e:	55                   	push   %rbp
    378f:	53                   	push   %rbx
    3790:	48 81 ec 88 00 00 00 	sub    $0x88,%rsp
    3797:	44 8b bc 24 d0 00 00 	mov    0xd0(%rsp),%r15d
    379e:	00 
    379f:	89 7c 24 40          	mov    %edi,0x40(%rsp)
    37a3:	48 89 54 24 30       	mov    %rdx,0x30(%rsp)
    37a8:	41 0f af c7          	imul   %r15d,%eax
    37ac:	89 74 24 2c          	mov    %esi,0x2c(%rsp)
    37b0:	48 89 4c 24 20       	mov    %rcx,0x20(%rsp)
    37b5:	4c 89 4c 24 50       	mov    %r9,0x50(%rsp)
    37ba:	89 c7                	mov    %eax,%edi
    37bc:	89 44 24 6c          	mov    %eax,0x6c(%rsp)
    37c0:	8b 84 24 c8 00 00 00 	mov    0xc8(%rsp),%eax
    37c7:	99                   	cltd   
    37c8:	f7 ff                	idiv   %edi
    37ca:	85 d2                	test   %edx,%edx
    37cc:	0f 85 a7 02 00 00    	jne    3a79 <jerasure_bitmatrix_dotprod+0x2f9>
    37d2:	49 63 f0             	movslq %r8d,%rsi
    37d5:	3b 74 24 40          	cmp    0x40(%rsp),%esi
    37d9:	0f 8c f3 01 00 00    	jl     39d2 <jerasure_bitmatrix_dotprod+0x252>
    37df:	89 f0                	mov    %esi,%eax
    37e1:	48 8b bc 24 c0 00 00 	mov    0xc0(%rsp),%rdi
    37e8:	00 
    37e9:	2b 44 24 40          	sub    0x40(%rsp),%eax
    37ed:	48 98                	cltq   
    37ef:	8b b4 24 c8 00 00 00 	mov    0xc8(%rsp),%esi
    37f6:	48 8b 04 c7          	mov    (%rdi,%rax,8),%rax
    37fa:	48 89 44 24 70       	mov    %rax,0x70(%rsp)
    37ff:	85 f6                	test   %esi,%esi
    3801:	0f 8e e8 01 00 00    	jle    39ef <jerasure_bitmatrix_dotprod+0x26f>
    3807:	48 63 44 24 6c       	movslq 0x6c(%rsp),%rax
    380c:	c7 44 24 68 00 00 00 	movl   $0x0,0x68(%rsp)
    3813:	00 
    3814:	45 89 fe             	mov    %r15d,%r14d
    3817:	48 c7 44 24 08 00 00 	movq   $0x0,0x8(%rsp)
    381e:	00 00 
    3820:	48 89 44 24 78       	mov    %rax,0x78(%rsp)
    3825:	8b 44 24 40          	mov    0x40(%rsp),%eax
    3829:	83 e8 01             	sub    $0x1,%eax
    382c:	89 44 24 60          	mov    %eax,0x60(%rsp)
    3830:	0f af 44 24 2c       	imul   0x2c(%rsp),%eax
    3835:	89 44 24 64          	mov    %eax,0x64(%rsp)
    3839:	8b 44 24 2c          	mov    0x2c(%rsp),%eax
    383d:	85 c0                	test   %eax,%eax
    383f:	0f 8e 0c 02 00 00    	jle    3a51 <jerasure_bitmatrix_dotprod+0x2d1>
    3845:	49 63 c6             	movslq %r14d,%rax
    3848:	c7 44 24 5c 00 00 00 	movl   $0x0,0x5c(%rsp)
    384f:	00 
    3850:	4c 8b 7c 24 70       	mov    0x70(%rsp),%r15
    3855:	48 89 44 24 18       	mov    %rax,0x18(%rsp)
    385a:	4c 03 7c 24 08       	add    0x8(%rsp),%r15
    385f:	c7 44 24 58 00 00 00 	movl   $0x0,0x58(%rsp)
    3866:	00 
    3867:	66 0f 1f 84 00 00 00 	nopw   0x0(%rax,%rax,1)
    386e:	00 00 
    3870:	8b 4c 24 40          	mov    0x40(%rsp),%ecx
    3874:	85 c9                	test   %ecx,%ecx
    3876:	0f 8e bd 01 00 00    	jle    3a39 <jerasure_bitmatrix_dotprod+0x2b9>
    387c:	8b 44 24 60          	mov    0x60(%rsp),%eax
    3880:	8b 7c 24 2c          	mov    0x2c(%rsp),%edi
    3884:	4d 89 fd             	mov    %r15,%r13
    3887:	48 c7 44 24 10 00 00 	movq   $0x0,0x10(%rsp)
    388e:	00 00 
    3890:	8d 4f ff             	lea    -0x1(%rdi),%ecx
    3893:	48 89 44 24 38       	mov    %rax,0x38(%rsp)
    3898:	48 8b 7c 24 30       	mov    0x30(%rsp),%rdi
    389d:	8b 44 24 5c          	mov    0x5c(%rsp),%eax
    38a1:	89 4c 24 44          	mov    %ecx,0x44(%rsp)
    38a5:	48 8d 4f 04          	lea    0x4(%rdi),%rcx
    38a9:	89 44 24 28          	mov    %eax,0x28(%rsp)
    38ad:	31 c0                	xor    %eax,%eax
    38af:	48 83 7c 24 20 00    	cmpq   $0x0,0x20(%rsp)
    38b5:	48 89 4c 24 48       	mov    %rcx,0x48(%rsp)
    38ba:	41 89 c7             	mov    %eax,%r15d
    38bd:	0f 84 f8 00 00 00    	je     39bb <jerasure_bitmatrix_dotprod+0x23b>
    38c3:	0f 1f 44 00 00       	nopl   0x0(%rax,%rax,1)
    38c8:	48 8b 44 24 20       	mov    0x20(%rsp),%rax
    38cd:	48 8b 7c 24 10       	mov    0x10(%rsp),%rdi
    38d2:	48 63 14 b8          	movslq (%rax,%rdi,4),%rdx
    38d6:	3b 54 24 40          	cmp    0x40(%rsp),%edx
    38da:	0f 8d 28 01 00 00    	jge    3a08 <jerasure_bitmatrix_dotprod+0x288>
    38e0:	48 8b 44 24 50       	mov    0x50(%rsp),%rax
    38e5:	48 8b 04 d0          	mov    (%rax,%rdx,8),%rax
    38e9:	48 89 04 24          	mov    %rax,(%rsp)
    38ed:	48 63 4c 24 28       	movslq 0x28(%rsp),%rcx
    38f2:	48 8b 44 24 30       	mov    0x30(%rsp),%rax
    38f7:	31 ed                	xor    %ebp,%ebp
    38f9:	8b 54 24 44          	mov    0x44(%rsp),%edx
    38fd:	48 8d 1c 88          	lea    (%rax,%rcx,4),%rbx
    3901:	48 8b 44 24 48       	mov    0x48(%rsp),%rax
    3906:	48 01 ca             	add    %rcx,%rdx
    3909:	4c 8d 24 90          	lea    (%rax,%rdx,4),%r12
    390d:	eb 39                	jmp    3948 <jerasure_bitmatrix_dotprod+0x1c8>
    390f:	90                   	nop
    3910:	48 8b 54 24 18       	mov    0x18(%rsp),%rdx
    3915:	4c 89 ef             	mov    %r13,%rdi
    3918:	41 bf 01 00 00 00    	mov    $0x1,%r15d
    391e:	e8 8d da ff ff       	callq  13b0 <memcpy@plt>
    3923:	66 0f ef c0          	pxor   %xmm0,%xmm0
    3927:	f2 41 0f 2a c6       	cvtsi2sd %r14d,%xmm0
    392c:	f2 0f 58 05 1c d8 00 	addsd  0xd81c(%rip),%xmm0        # 11150 <jerasure_total_memcpy_bytes>
    3933:	00 
    3934:	f2 0f 11 05 14 d8 00 	movsd  %xmm0,0xd814(%rip)        # 11150 <jerasure_total_memcpy_bytes>
    393b:	00 
    393c:	48 83 c3 04          	add    $0x4,%rbx
    3940:	44 01 f5             	add    %r14d,%ebp
    3943:	4c 39 e3             	cmp    %r12,%rbx
    3946:	74 4a                	je     3992 <jerasure_bitmatrix_dotprod+0x212>
    3948:	8b 13                	mov    (%rbx),%edx
    394a:	85 d2                	test   %edx,%edx
    394c:	74 ee                	je     393c <jerasure_bitmatrix_dotprod+0x1bc>
    394e:	48 63 f5             	movslq %ebp,%rsi
    3951:	48 03 74 24 08       	add    0x8(%rsp),%rsi
    3956:	48 03 34 24          	add    (%rsp),%rsi
    395a:	45 85 ff             	test   %r15d,%r15d
    395d:	74 b1                	je     3910 <jerasure_bitmatrix_dotprod+0x190>
    395f:	44 89 f1             	mov    %r14d,%ecx
    3962:	4c 89 ea             	mov    %r13,%rdx
    3965:	4c 89 ef             	mov    %r13,%rdi
    3968:	48 83 c3 04          	add    $0x4,%rbx
    396c:	e8 6f 46 00 00       	callq  7fe0 <galois_region_xor>
    3971:	66 0f ef c0          	pxor   %xmm0,%xmm0
    3975:	44 01 f5             	add    %r14d,%ebp
    3978:	f2 41 0f 2a c6       	cvtsi2sd %r14d,%xmm0
    397d:	f2 0f 58 05 db d7 00 	addsd  0xd7db(%rip),%xmm0        # 11160 <jerasure_total_xor_bytes>
    3984:	00 
    3985:	f2 0f 11 05 d3 d7 00 	movsd  %xmm0,0xd7d3(%rip)        # 11160 <jerasure_total_xor_bytes>
    398c:	00 
    398d:	4c 39 e3             	cmp    %r12,%rbx
    3990:	75 b6                	jne    3948 <jerasure_bitmatrix_dotprod+0x1c8>
    3992:	48 8b 44 24 10       	mov    0x10(%rsp),%rax
    3997:	8b 7c 24 2c          	mov    0x2c(%rsp),%edi
    399b:	01 7c 24 28          	add    %edi,0x28(%rsp)
    399f:	48 8d 50 01          	lea    0x1(%rax),%rdx
    39a3:	48 3b 44 24 38       	cmp    0x38(%rsp),%rax
    39a8:	74 7e                	je     3a28 <jerasure_bitmatrix_dotprod+0x2a8>
    39aa:	48 83 7c 24 20 00    	cmpq   $0x0,0x20(%rsp)
    39b0:	48 89 54 24 10       	mov    %rdx,0x10(%rsp)
    39b5:	0f 85 0d ff ff ff    	jne    38c8 <jerasure_bitmatrix_dotprod+0x148>
    39bb:	48 8b 44 24 50       	mov    0x50(%rsp),%rax
    39c0:	48 8b 4c 24 10       	mov    0x10(%rsp),%rcx
    39c5:	48 8b 04 c8          	mov    (%rax,%rcx,8),%rax
    39c9:	48 89 04 24          	mov    %rax,(%rsp)
    39cd:	e9 1b ff ff ff       	jmpq   38ed <jerasure_bitmatrix_dotprod+0x16d>
    39d2:	48 8b 44 24 50       	mov    0x50(%rsp),%rax
    39d7:	48 8b 04 f0          	mov    (%rax,%rsi,8),%rax
    39db:	8b b4 24 c8 00 00 00 	mov    0xc8(%rsp),%esi
    39e2:	48 89 44 24 70       	mov    %rax,0x70(%rsp)
    39e7:	85 f6                	test   %esi,%esi
    39e9:	0f 8f 18 fe ff ff    	jg     3807 <jerasure_bitmatrix_dotprod+0x87>
    39ef:	48 81 c4 88 00 00 00 	add    $0x88,%rsp
    39f6:	5b                   	pop    %rbx
    39f7:	5d                   	pop    %rbp
    39f8:	41 5c                	pop    %r12
    39fa:	41 5d                	pop    %r13
    39fc:	41 5e                	pop    %r14
    39fe:	41 5f                	pop    %r15
    3a00:	c3                   	retq   
    3a01:	0f 1f 80 00 00 00 00 	nopl   0x0(%rax)
    3a08:	48 8b 84 24 c0 00 00 	mov    0xc0(%rsp),%rax
    3a0f:	00 
    3a10:	2b 54 24 40          	sub    0x40(%rsp),%edx
    3a14:	48 63 d2             	movslq %edx,%rdx
    3a17:	48 8b 04 d0          	mov    (%rax,%rdx,8),%rax
    3a1b:	48 89 04 24          	mov    %rax,(%rsp)
    3a1f:	e9 c9 fe ff ff       	jmpq   38ed <jerasure_bitmatrix_dotprod+0x16d>
    3a24:	0f 1f 40 00          	nopl   0x0(%rax)
    3a28:	8b 44 24 5c          	mov    0x5c(%rsp),%eax
    3a2c:	4d 89 ef             	mov    %r13,%r15
    3a2f:	01 f8                	add    %edi,%eax
    3a31:	03 44 24 64          	add    0x64(%rsp),%eax
    3a35:	89 44 24 5c          	mov    %eax,0x5c(%rsp)
    3a39:	83 44 24 58 01       	addl   $0x1,0x58(%rsp)
    3a3e:	4c 03 7c 24 18       	add    0x18(%rsp),%r15
    3a43:	8b 44 24 58          	mov    0x58(%rsp),%eax
    3a47:	39 44 24 2c          	cmp    %eax,0x2c(%rsp)
    3a4b:	0f 85 1f fe ff ff    	jne    3870 <jerasure_bitmatrix_dotprod+0xf0>
    3a51:	8b 7c 24 6c          	mov    0x6c(%rsp),%edi
    3a55:	48 8b 4c 24 78       	mov    0x78(%rsp),%rcx
    3a5a:	01 7c 24 68          	add    %edi,0x68(%rsp)
    3a5e:	8b 44 24 68          	mov    0x68(%rsp),%eax
    3a62:	48 01 4c 24 08       	add    %rcx,0x8(%rsp)
    3a67:	39 84 24 c8 00 00 00 	cmp    %eax,0xc8(%rsp)
    3a6e:	0f 8f c5 fd ff ff    	jg     3839 <jerasure_bitmatrix_dotprod+0xb9>
    3a74:	e9 76 ff ff ff       	jmpq   39ef <jerasure_bitmatrix_dotprod+0x26f>
    3a79:	48 8b 3d c0 d6 00 00 	mov    0xd6c0(%rip),%rdi        # 11140 <stderr@@GLIBC_2.2.5>
    3a80:	b9 25 00 00 00       	mov    $0x25,%ecx
    3a85:	48 8d 15 64 6c 00 00 	lea    0x6c64(%rip),%rdx        # a6f0 <__PRETTY_FUNCTION__.5230+0x1f>
    3a8c:	31 c0                	xor    %eax,%eax
    3a8e:	be 01 00 00 00       	mov    $0x1,%esi
    3a93:	e8 d8 d9 ff ff       	callq  1470 <__fprintf_chk@plt>
    3a98:	bf 01 00 00 00       	mov    $0x1,%edi
    3a9d:	e8 ae d9 ff ff       	callq  1450 <exit@plt>
    3aa2:	66 66 2e 0f 1f 84 00 	data16 nopw %cs:0x0(%rax,%rax,1)
    3aa9:	00 00 00 00 
    3aad:	0f 1f 00             	nopl   (%rax)

0000000000003ab0 <jerasure_do_parity>:
    3ab0:	f3 0f 1e fa          	endbr64 
    3ab4:	41 56                	push   %r14
    3ab6:	41 89 fe             	mov    %edi,%r14d
    3ab9:	41 55                	push   %r13
    3abb:	49 89 f5             	mov    %rsi,%r13
    3abe:	41 54                	push   %r12
    3ac0:	55                   	push   %rbp
    3ac1:	48 89 d5             	mov    %rdx,%rbp
    3ac4:	48 63 d1             	movslq %ecx,%rdx
    3ac7:	53                   	push   %rbx
    3ac8:	48 89 ef             	mov    %rbp,%rdi
    3acb:	49 89 d4             	mov    %rdx,%r12
    3ace:	48 83 ec 10          	sub    $0x10,%rsp
    3ad2:	48 8b 36             	mov    (%rsi),%rsi
    3ad5:	e8 d6 d8 ff ff       	callq  13b0 <memcpy@plt>
    3ada:	66 0f ef c9          	pxor   %xmm1,%xmm1
    3ade:	f2 0f 10 05 6a d6 00 	movsd  0xd66a(%rip),%xmm0        # 11150 <jerasure_total_memcpy_bytes>
    3ae5:	00 
    3ae6:	f2 41 0f 2a cc       	cvtsi2sd %r12d,%xmm1
    3aeb:	f2 0f 58 c1          	addsd  %xmm1,%xmm0
    3aef:	f2 0f 11 4c 24 08    	movsd  %xmm1,0x8(%rsp)
    3af5:	f2 0f 11 05 53 d6 00 	movsd  %xmm0,0xd653(%rip)        # 11150 <jerasure_total_memcpy_bytes>
    3afc:	00 
    3afd:	41 83 fe 01          	cmp    $0x1,%r14d
    3b01:	7e 3d                	jle    3b40 <jerasure_do_parity+0x90>
    3b03:	41 8d 46 fe          	lea    -0x2(%r14),%eax
    3b07:	49 8d 5d 08          	lea    0x8(%r13),%rbx
    3b0b:	4d 8d 6c c5 10       	lea    0x10(%r13,%rax,8),%r13
    3b10:	48 8b 3b             	mov    (%rbx),%rdi
    3b13:	44 89 e1             	mov    %r12d,%ecx
    3b16:	48 89 ea             	mov    %rbp,%rdx
    3b19:	48 89 ee             	mov    %rbp,%rsi
    3b1c:	48 83 c3 08          	add    $0x8,%rbx
    3b20:	e8 bb 44 00 00       	callq  7fe0 <galois_region_xor>
    3b25:	f2 0f 10 44 24 08    	movsd  0x8(%rsp),%xmm0
    3b2b:	f2 0f 58 05 2d d6 00 	addsd  0xd62d(%rip),%xmm0        # 11160 <jerasure_total_xor_bytes>
    3b32:	00 
    3b33:	f2 0f 11 05 25 d6 00 	movsd  %xmm0,0xd625(%rip)        # 11160 <jerasure_total_xor_bytes>
    3b3a:	00 
    3b3b:	4c 39 eb             	cmp    %r13,%rbx
    3b3e:	75 d0                	jne    3b10 <jerasure_do_parity+0x60>
    3b40:	48 83 c4 10          	add    $0x10,%rsp
    3b44:	5b                   	pop    %rbx
    3b45:	5d                   	pop    %rbp
    3b46:	41 5c                	pop    %r12
    3b48:	41 5d                	pop    %r13
    3b4a:	41 5e                	pop    %r14
    3b4c:	c3                   	retq   
    3b4d:	0f 1f 00             	nopl   (%rax)

0000000000003b50 <jerasure_invert_matrix>:
    3b50:	f3 0f 1e fa          	endbr64 
    3b54:	41 57                	push   %r15
    3b56:	41 56                	push   %r14
    3b58:	41 55                	push   %r13
    3b5a:	41 54                	push   %r12
    3b5c:	55                   	push   %rbp
    3b5d:	53                   	push   %rbx
    3b5e:	48 89 f3             	mov    %rsi,%rbx
    3b61:	8d 72 ff             	lea    -0x1(%rdx),%esi
    3b64:	48 81 ec a8 00 00 00 	sub    $0xa8,%rsp
    3b6b:	89 54 24 30          	mov    %edx,0x30(%rsp)
    3b6f:	c7 44 24 38 00 00 00 	movl   $0x0,0x38(%rsp)
    3b76:	00 
    3b77:	89 b4 24 9c 00 00 00 	mov    %esi,0x9c(%rsp)
    3b7e:	85 d2                	test   %edx,%edx
    3b80:	0f 8e da 04 00 00    	jle    4060 <jerasure_invert_matrix+0x510>
    3b86:	44 8b 64 24 30       	mov    0x30(%rsp),%r12d
    3b8b:	48 89 fd             	mov    %rdi,%rbp
    3b8e:	41 89 cf             	mov    %ecx,%r15d
    3b91:	31 ff                	xor    %edi,%edi
    3b93:	31 c9                	xor    %ecx,%ecx
    3b95:	0f 1f 00             	nopl   (%rax)
    3b98:	48 63 c7             	movslq %edi,%rax
    3b9b:	4c 8d 1c 83          	lea    (%rbx,%rax,4),%r11
    3b9f:	31 c0                	xor    %eax,%eax
    3ba1:	0f 1f 80 00 00 00 00 	nopl   0x0(%rax)
    3ba8:	31 d2                	xor    %edx,%edx
    3baa:	39 c1                	cmp    %eax,%ecx
    3bac:	0f 94 c2             	sete   %dl
    3baf:	41 89 14 83          	mov    %edx,(%r11,%rax,4)
    3bb3:	48 89 c2             	mov    %rax,%rdx
    3bb6:	48 83 c0 01          	add    $0x1,%rax
    3bba:	48 39 f2             	cmp    %rsi,%rdx
    3bbd:	75 e9                	jne    3ba8 <jerasure_invert_matrix+0x58>
    3bbf:	8d 41 01             	lea    0x1(%rcx),%eax
    3bc2:	44 01 e7             	add    %r12d,%edi
    3bc5:	41 39 c4             	cmp    %eax,%r12d
    3bc8:	74 04                	je     3bce <jerasure_invert_matrix+0x7e>
    3bca:	89 c1                	mov    %eax,%ecx
    3bcc:	eb ca                	jmp    3b98 <jerasure_invert_matrix+0x48>
    3bce:	89 84 24 98 00 00 00 	mov    %eax,0x98(%rsp)
    3bd5:	48 63 44 24 30       	movslq 0x30(%rsp),%rax
    3bda:	89 4c 24 38          	mov    %ecx,0x38(%rsp)
    3bde:	48 8d 3c 85 04 00 00 	lea    0x4(,%rax,4),%rdi
    3be5:	00 
    3be6:	48 89 44 24 40       	mov    %rax,0x40(%rsp)
    3beb:	48 c1 e0 02          	shl    $0x2,%rax
    3bef:	48 89 bc 24 90 00 00 	mov    %rdi,0x90(%rsp)
    3bf6:	00 
    3bf7:	48 8d 7d 04          	lea    0x4(%rbp),%rdi
    3bfb:	48 89 44 24 28       	mov    %rax,0x28(%rsp)
    3c00:	89 c8                	mov    %ecx,%eax
    3c02:	48 89 44 24 58       	mov    %rax,0x58(%rsp)
    3c07:	48 89 bc 24 88 00 00 	mov    %rdi,0x88(%rsp)
    3c0e:	00 
    3c0f:	48 8d 3c 87          	lea    (%rdi,%rax,4),%rdi
    3c13:	48 83 c0 01          	add    $0x1,%rax
    3c17:	48 89 bc 24 80 00 00 	mov    %rdi,0x80(%rsp)
    3c1e:	00 
    3c1f:	48 89 44 24 70       	mov    %rax,0x70(%rsp)
    3c24:	48 89 6c 24 60       	mov    %rbp,0x60(%rsp)
    3c29:	48 c7 44 24 50 00 00 	movq   $0x0,0x50(%rsp)
    3c30:	00 00 
    3c32:	48 c7 44 24 78 00 00 	movq   $0x0,0x78(%rsp)
    3c39:	00 00 
    3c3b:	c7 44 24 6c 00 00 00 	movl   $0x0,0x6c(%rsp)
    3c42:	00 
    3c43:	48 c7 44 24 48 00 00 	movq   $0x0,0x48(%rsp)
    3c4a:	00 00 
    3c4c:	0f 1f 40 00          	nopl   0x0(%rax)
    3c50:	48 8b 44 24 60       	mov    0x60(%rsp),%rax
    3c55:	8b 30                	mov    (%rax),%esi
    3c57:	8b 44 24 48          	mov    0x48(%rsp),%eax
    3c5b:	83 c0 01             	add    $0x1,%eax
    3c5e:	89 44 24 18          	mov    %eax,0x18(%rsp)
    3c62:	85 f6                	test   %esi,%esi
    3c64:	0f 84 96 01 00 00    	je     3e00 <jerasure_invert_matrix+0x2b0>
    3c6a:	83 fe 01             	cmp    $0x1,%esi
    3c6d:	0f 85 36 02 00 00    	jne    3ea9 <jerasure_invert_matrix+0x359>
    3c73:	48 8b 7c 24 58       	mov    0x58(%rsp),%rdi
    3c78:	48 39 7c 24 48       	cmp    %rdi,0x48(%rsp)
    3c7d:	0f 84 a4 02 00 00    	je     3f27 <jerasure_invert_matrix+0x3d7>
    3c83:	48 8b 44 24 60       	mov    0x60(%rsp),%rax
    3c88:	48 03 44 24 28       	add    0x28(%rsp),%rax
    3c8d:	48 89 44 24 10       	mov    %rax,0x10(%rsp)
    3c92:	8b 7c 24 30          	mov    0x30(%rsp),%edi
    3c96:	01 7c 24 6c          	add    %edi,0x6c(%rsp)
    3c9a:	8b 44 24 6c          	mov    0x6c(%rsp),%eax
    3c9e:	89 44 24 20          	mov    %eax,0x20(%rsp)
    3ca2:	48 89 d8             	mov    %rbx,%rax
    3ca5:	48 89 eb             	mov    %rbp,%rbx
    3ca8:	48 89 c5             	mov    %rax,%rbp
    3cab:	0f 1f 44 00 00       	nopl   0x0(%rax,%rax,1)
    3cb0:	48 8b 44 24 10       	mov    0x10(%rsp),%rax
    3cb5:	44 8b 30             	mov    (%rax),%r14d
    3cb8:	45 85 f6             	test   %r14d,%r14d
    3cbb:	74 6a                	je     3d27 <jerasure_invert_matrix+0x1d7>
    3cbd:	41 83 fe 01          	cmp    $0x1,%r14d
    3cc1:	0f 84 89 00 00 00    	je     3d50 <jerasure_invert_matrix+0x200>
    3cc7:	48 63 44 24 20       	movslq 0x20(%rsp),%rax
    3ccc:	4c 8b 6c 24 50       	mov    0x50(%rsp),%r13
    3cd1:	4c 8d 24 85 00 00 00 	lea    0x0(,%rax,4),%r12
    3cd8:	00 
    3cd9:	48 03 44 24 70       	add    0x70(%rsp),%rax
    3cde:	48 c1 e0 02          	shl    $0x2,%rax
    3ce2:	48 89 44 24 08       	mov    %rax,0x8(%rsp)
    3ce7:	66 0f 1f 84 00 00 00 	nopw   0x0(%rax,%rax,1)
    3cee:	00 00 
    3cf0:	42 8b 34 2b          	mov    (%rbx,%r13,1),%esi
    3cf4:	44 89 fa             	mov    %r15d,%edx
    3cf7:	44 89 f7             	mov    %r14d,%edi
    3cfa:	e8 11 48 00 00       	callq  8510 <galois_single_multiply>
    3cff:	42 31 04 23          	xor    %eax,(%rbx,%r12,1)
    3d03:	44 89 fa             	mov    %r15d,%edx
    3d06:	44 89 f7             	mov    %r14d,%edi
    3d09:	42 8b 74 2d 00       	mov    0x0(%rbp,%r13,1),%esi
    3d0e:	49 83 c5 04          	add    $0x4,%r13
    3d12:	e8 f9 47 00 00       	callq  8510 <galois_single_multiply>
    3d17:	42 31 44 25 00       	xor    %eax,0x0(%rbp,%r12,1)
    3d1c:	49 83 c4 04          	add    $0x4,%r12
    3d20:	4c 3b 64 24 08       	cmp    0x8(%rsp),%r12
    3d25:	75 c9                	jne    3cf0 <jerasure_invert_matrix+0x1a0>
    3d27:	8b 4c 24 18          	mov    0x18(%rsp),%ecx
    3d2b:	48 8b 54 24 28       	mov    0x28(%rsp),%rdx
    3d30:	48 01 54 24 10       	add    %rdx,0x10(%rsp)
    3d35:	8b 54 24 30          	mov    0x30(%rsp),%edx
    3d39:	8d 41 01             	lea    0x1(%rcx),%eax
    3d3c:	01 54 24 20          	add    %edx,0x20(%rsp)
    3d40:	3b 4c 24 38          	cmp    0x38(%rsp),%ecx
    3d44:	74 62                	je     3da8 <jerasure_invert_matrix+0x258>
    3d46:	89 44 24 18          	mov    %eax,0x18(%rsp)
    3d4a:	e9 61 ff ff ff       	jmpq   3cb0 <jerasure_invert_matrix+0x160>
    3d4f:	90                   	nop
    3d50:	48 63 74 24 20       	movslq 0x20(%rsp),%rsi
    3d55:	48 8b 7c 24 58       	mov    0x58(%rsp),%rdi
    3d5a:	48 8b 8c 24 88 00 00 	mov    0x88(%rsp),%rcx
    3d61:	00 
    3d62:	48 01 f7             	add    %rsi,%rdi
    3d65:	48 8d 14 b5 00 00 00 	lea    0x0(,%rsi,4),%rdx
    3d6c:	00 
    3d6d:	48 8d 3c b9          	lea    (%rcx,%rdi,4),%rdi
    3d71:	48 8b 4c 24 78       	mov    0x78(%rsp),%rcx
    3d76:	48 8d 04 13          	lea    (%rbx,%rdx,1),%rax
    3d7a:	48 01 ea             	add    %rbp,%rdx
    3d7d:	48 29 f1             	sub    %rsi,%rcx
    3d80:	48 89 ce             	mov    %rcx,%rsi
    3d83:	0f 1f 44 00 00       	nopl   0x0(%rax,%rax,1)
    3d88:	8b 0c b0             	mov    (%rax,%rsi,4),%ecx
    3d8b:	31 08                	xor    %ecx,(%rax)
    3d8d:	48 83 c0 04          	add    $0x4,%rax
    3d91:	8b 0c b2             	mov    (%rdx,%rsi,4),%ecx
    3d94:	31 0a                	xor    %ecx,(%rdx)
    3d96:	48 83 c2 04          	add    $0x4,%rdx
    3d9a:	48 39 f8             	cmp    %rdi,%rax
    3d9d:	75 e9                	jne    3d88 <jerasure_invert_matrix+0x238>
    3d9f:	e9 83 ff ff ff       	jmpq   3d27 <jerasure_invert_matrix+0x1d7>
    3da4:	0f 1f 40 00          	nopl   0x0(%rax)
    3da8:	48 8b 7c 24 48       	mov    0x48(%rsp),%rdi
    3dad:	48 89 e8             	mov    %rbp,%rax
    3db0:	48 8b 4c 24 40       	mov    0x40(%rsp),%rcx
    3db5:	48 89 dd             	mov    %rbx,%rbp
    3db8:	48 8b 94 24 90 00 00 	mov    0x90(%rsp),%rdx
    3dbf:	00 
    3dc0:	48 89 c3             	mov    %rax,%rbx
    3dc3:	48 01 54 24 60       	add    %rdx,0x60(%rsp)
    3dc8:	48 01 4c 24 78       	add    %rcx,0x78(%rsp)
    3dcd:	48 8b 54 24 28       	mov    0x28(%rsp),%rdx
    3dd2:	48 8d 47 01          	lea    0x1(%rdi),%rax
    3dd6:	48 01 54 24 50       	add    %rdx,0x50(%rsp)
    3ddb:	48 01 94 24 80 00 00 	add    %rdx,0x80(%rsp)
    3de2:	00 
    3de3:	48 3b 7c 24 58       	cmp    0x58(%rsp),%rdi
    3de8:	0f 84 39 01 00 00    	je     3f27 <jerasure_invert_matrix+0x3d7>
    3dee:	48 89 44 24 48       	mov    %rax,0x48(%rsp)
    3df3:	e9 58 fe ff ff       	jmpq   3c50 <jerasure_invert_matrix+0x100>
    3df8:	0f 1f 84 00 00 00 00 	nopl   0x0(%rax,%rax,1)
    3dff:	00 
    3e00:	89 c7                	mov    %eax,%edi
    3e02:	39 84 24 98 00 00 00 	cmp    %eax,0x98(%rsp)
    3e09:	0f 8e 55 02 00 00    	jle    4064 <jerasure_invert_matrix+0x514>
    3e0f:	8b 44 24 6c          	mov    0x6c(%rsp),%eax
    3e13:	03 44 24 30          	add    0x30(%rsp),%eax
    3e17:	48 98                	cltq   
    3e19:	48 03 44 24 48       	add    0x48(%rsp),%rax
    3e1e:	8b 74 24 38          	mov    0x38(%rsp),%esi
    3e22:	48 8d 54 85 00       	lea    0x0(%rbp,%rax,4),%rdx
    3e27:	89 f8                	mov    %edi,%eax
    3e29:	48 8b 7c 24 28       	mov    0x28(%rsp),%rdi
    3e2e:	eb 10                	jmp    3e40 <jerasure_invert_matrix+0x2f0>
    3e30:	8d 48 01             	lea    0x1(%rax),%ecx
    3e33:	48 01 fa             	add    %rdi,%rdx
    3e36:	39 f0                	cmp    %esi,%eax
    3e38:	0f 84 d1 01 00 00    	je     400f <jerasure_invert_matrix+0x4bf>
    3e3e:	89 c8                	mov    %ecx,%eax
    3e40:	8b 0a                	mov    (%rdx),%ecx
    3e42:	85 c9                	test   %ecx,%ecx
    3e44:	74 ea                	je     3e30 <jerasure_invert_matrix+0x2e0>
    3e46:	8b bc 24 98 00 00 00 	mov    0x98(%rsp),%edi
    3e4d:	39 c7                	cmp    %eax,%edi
    3e4f:	0f 84 ba 01 00 00    	je     400f <jerasure_invert_matrix+0x4bf>
    3e55:	0f af c7             	imul   %edi,%eax
    3e58:	48 8b 7c 24 50       	mov    0x50(%rsp),%rdi
    3e5d:	4c 8b 9c 24 80 00 00 	mov    0x80(%rsp),%r11
    3e64:	00 
    3e65:	48 8d 54 3d 00       	lea    0x0(%rbp,%rdi,1),%rdx
    3e6a:	48 8d 0c 3b          	lea    (%rbx,%rdi,1),%rcx
    3e6e:	48 98                	cltq   
    3e70:	48 2b 44 24 78       	sub    0x78(%rsp),%rax
    3e75:	0f 1f 00             	nopl   (%rax)
    3e78:	8b 32                	mov    (%rdx),%esi
    3e7a:	8b 3c 82             	mov    (%rdx,%rax,4),%edi
    3e7d:	89 3a                	mov    %edi,(%rdx)
    3e7f:	89 34 82             	mov    %esi,(%rdx,%rax,4)
    3e82:	8b 31                	mov    (%rcx),%esi
    3e84:	48 83 c2 04          	add    $0x4,%rdx
    3e88:	8b 3c 81             	mov    (%rcx,%rax,4),%edi
    3e8b:	89 39                	mov    %edi,(%rcx)
    3e8d:	89 34 81             	mov    %esi,(%rcx,%rax,4)
    3e90:	48 83 c1 04          	add    $0x4,%rcx
    3e94:	4c 39 da             	cmp    %r11,%rdx
    3e97:	75 df                	jne    3e78 <jerasure_invert_matrix+0x328>
    3e99:	48 8b 44 24 60       	mov    0x60(%rsp),%rax
    3e9e:	8b 30                	mov    (%rax),%esi
    3ea0:	83 fe 01             	cmp    $0x1,%esi
    3ea3:	0f 84 ca fd ff ff    	je     3c73 <jerasure_invert_matrix+0x123>
    3ea9:	44 89 fa             	mov    %r15d,%edx
    3eac:	bf 01 00 00 00       	mov    $0x1,%edi
    3eb1:	e8 7a 46 00 00       	callq  8530 <galois_single_divide>
    3eb6:	48 89 5c 24 08       	mov    %rbx,0x8(%rsp)
    3ebb:	41 89 c5             	mov    %eax,%r13d
    3ebe:	48 8b 44 24 50       	mov    0x50(%rsp),%rax
    3ec3:	4c 8d 74 05 00       	lea    0x0(%rbp,%rax,1),%r14
    3ec8:	4c 8d 24 03          	lea    (%rbx,%rax,1),%r12
    3ecc:	4c 89 f3             	mov    %r14,%rbx
    3ecf:	4c 8b b4 24 80 00 00 	mov    0x80(%rsp),%r14
    3ed6:	00 
    3ed7:	66 0f 1f 84 00 00 00 	nopw   0x0(%rax,%rax,1)
    3ede:	00 00 
    3ee0:	8b 3b                	mov    (%rbx),%edi
    3ee2:	44 89 fa             	mov    %r15d,%edx
    3ee5:	44 89 ee             	mov    %r13d,%esi
    3ee8:	48 83 c3 04          	add    $0x4,%rbx
    3eec:	49 83 c4 04          	add    $0x4,%r12
    3ef0:	e8 1b 46 00 00       	callq  8510 <galois_single_multiply>
    3ef5:	44 89 fa             	mov    %r15d,%edx
    3ef8:	44 89 ee             	mov    %r13d,%esi
    3efb:	89 43 fc             	mov    %eax,-0x4(%rbx)
    3efe:	41 8b 7c 24 fc       	mov    -0x4(%r12),%edi
    3f03:	e8 08 46 00 00       	callq  8510 <galois_single_multiply>
    3f08:	41 89 44 24 fc       	mov    %eax,-0x4(%r12)
    3f0d:	4c 39 f3             	cmp    %r14,%rbx
    3f10:	75 ce                	jne    3ee0 <jerasure_invert_matrix+0x390>
    3f12:	48 8b 5c 24 08       	mov    0x8(%rsp),%rbx
    3f17:	48 8b 7c 24 58       	mov    0x58(%rsp),%rdi
    3f1c:	48 39 7c 24 48       	cmp    %rdi,0x48(%rsp)
    3f21:	0f 85 5c fd ff ff    	jne    3c83 <jerasure_invert_matrix+0x133>
    3f27:	48 63 44 24 38       	movslq 0x38(%rsp),%rax
    3f2c:	8b 7c 24 30          	mov    0x30(%rsp),%edi
    3f30:	89 44 24 10          	mov    %eax,0x10(%rsp)
    3f34:	48 89 c1             	mov    %rax,%rcx
    3f37:	48 8d 44 85 00       	lea    0x0(%rbp,%rax,4),%rax
    3f3c:	48 89 44 24 38       	mov    %rax,0x38(%rsp)
    3f41:	89 f8                	mov    %edi,%eax
    3f43:	0f af f9             	imul   %ecx,%edi
    3f46:	f7 d8                	neg    %eax
    3f48:	48 98                	cltq   
    3f4a:	48 89 44 24 30       	mov    %rax,0x30(%rsp)
    3f4f:	48 63 c7             	movslq %edi,%rax
    3f52:	48 89 44 24 28       	mov    %rax,0x28(%rsp)
    3f57:	48 8b 44 24 40       	mov    0x40(%rsp),%rax
    3f5c:	48 c1 e0 02          	shl    $0x2,%rax
    3f60:	48 89 44 24 18       	mov    %rax,0x18(%rsp)
    3f65:	8b 84 24 9c 00 00 00 	mov    0x9c(%rsp),%eax
    3f6c:	48 8d 5c 83 04       	lea    0x4(%rbx,%rax,4),%rbx
    3f71:	48 f7 d0             	not    %rax
    3f74:	48 c1 e0 02          	shl    $0x2,%rax
    3f78:	48 89 5c 24 48       	mov    %rbx,0x48(%rsp)
    3f7d:	48 89 44 24 20       	mov    %rax,0x20(%rsp)
    3f82:	8b 44 24 10          	mov    0x10(%rsp),%eax
    3f86:	85 c0                	test   %eax,%eax
    3f88:	0f 8e c7 00 00 00    	jle    4055 <jerasure_invert_matrix+0x505>
    3f8e:	c7 44 24 08 00 00 00 	movl   $0x0,0x8(%rsp)
    3f95:	00 
    3f96:	48 8b 5c 24 48       	mov    0x48(%rsp),%rbx
    3f9b:	4c 8b 74 24 28       	mov    0x28(%rsp),%r14
    3fa0:	48 8b 6c 24 38       	mov    0x38(%rsp),%rbp
    3fa5:	eb 28                	jmp    3fcf <jerasure_invert_matrix+0x47f>
    3fa7:	66 0f 1f 84 00 00 00 	nopw   0x0(%rax,%rax,1)
    3fae:	00 00 
    3fb0:	48 8b 4c 24 18       	mov    0x18(%rsp),%rcx
    3fb5:	83 44 24 08 01       	addl   $0x1,0x8(%rsp)
    3fba:	4c 2b 74 24 40       	sub    0x40(%rsp),%r14
    3fbf:	8b 44 24 08          	mov    0x8(%rsp),%eax
    3fc3:	48 01 cd             	add    %rcx,%rbp
    3fc6:	48 01 cb             	add    %rcx,%rbx
    3fc9:	3b 44 24 10          	cmp    0x10(%rsp),%eax
    3fcd:	74 61                	je     4030 <jerasure_invert_matrix+0x4e0>
    3fcf:	44 8b 65 00          	mov    0x0(%rbp),%r12d
    3fd3:	45 85 e4             	test   %r12d,%r12d
    3fd6:	74 d8                	je     3fb0 <jerasure_invert_matrix+0x460>
    3fd8:	48 8b 44 24 20       	mov    0x20(%rsp),%rax
    3fdd:	c7 45 00 00 00 00 00 	movl   $0x0,0x0(%rbp)
    3fe4:	4c 8d 2c 18          	lea    (%rax,%rbx,1),%r13
    3fe8:	0f 1f 84 00 00 00 00 	nopl   0x0(%rax,%rax,1)
    3fef:	00 
    3ff0:	43 8b 74 b5 00       	mov    0x0(%r13,%r14,4),%esi
    3ff5:	44 89 fa             	mov    %r15d,%edx
    3ff8:	44 89 e7             	mov    %r12d,%edi
    3ffb:	e8 10 45 00 00       	callq  8510 <galois_single_multiply>
    4000:	41 31 45 00          	xor    %eax,0x0(%r13)
    4004:	49 83 c5 04          	add    $0x4,%r13
    4008:	4c 39 eb             	cmp    %r13,%rbx
    400b:	75 e3                	jne    3ff0 <jerasure_invert_matrix+0x4a0>
    400d:	eb a1                	jmp    3fb0 <jerasure_invert_matrix+0x460>
    400f:	b8 ff ff ff ff       	mov    $0xffffffff,%eax
    4014:	48 81 c4 a8 00 00 00 	add    $0xa8,%rsp
    401b:	5b                   	pop    %rbx
    401c:	5d                   	pop    %rbp
    401d:	41 5c                	pop    %r12
    401f:	41 5d                	pop    %r13
    4021:	41 5e                	pop    %r14
    4023:	41 5f                	pop    %r15
    4025:	c3                   	retq   
    4026:	66 2e 0f 1f 84 00 00 	nopw   %cs:0x0(%rax,%rax,1)
    402d:	00 00 00 
    4030:	44 8d 70 ff          	lea    -0x1(%rax),%r14d
    4034:	44 89 74 24 10       	mov    %r14d,0x10(%rsp)
    4039:	8b 44 24 10          	mov    0x10(%rsp),%eax
    403d:	48 8b 5c 24 30       	mov    0x30(%rsp),%rbx
    4042:	48 83 6c 24 38 04    	subq   $0x4,0x38(%rsp)
    4048:	48 01 5c 24 28       	add    %rbx,0x28(%rsp)
    404d:	85 c0                	test   %eax,%eax
    404f:	0f 8f 39 ff ff ff    	jg     3f8e <jerasure_invert_matrix+0x43e>
    4055:	44 8b 74 24 10       	mov    0x10(%rsp),%r14d
    405a:	41 83 ee 01          	sub    $0x1,%r14d
    405e:	79 d4                	jns    4034 <jerasure_invert_matrix+0x4e4>
    4060:	31 c0                	xor    %eax,%eax
    4062:	eb b0                	jmp    4014 <jerasure_invert_matrix+0x4c4>
    4064:	8b 44 24 18          	mov    0x18(%rsp),%eax
    4068:	e9 d9 fd ff ff       	jmpq   3e46 <jerasure_invert_matrix+0x2f6>
    406d:	0f 1f 00             	nopl   (%rax)

0000000000004070 <jerasure_make_decoding_matrix>:
    4070:	f3 0f 1e fa          	endbr64 
    4074:	41 57                	push   %r15
    4076:	41 56                	push   %r14
    4078:	41 55                	push   %r13
    407a:	41 54                	push   %r12
    407c:	41 89 fc             	mov    %edi,%r12d
    407f:	0f af ff             	imul   %edi,%edi
    4082:	55                   	push   %rbp
    4083:	53                   	push   %rbx
    4084:	48 63 ff             	movslq %edi,%rdi
    4087:	48 c1 e7 02          	shl    $0x2,%rdi
    408b:	48 83 ec 28          	sub    $0x28,%rsp
    408f:	89 54 24 14          	mov    %edx,0x14(%rsp)
    4093:	48 8b 5c 24 60       	mov    0x60(%rsp),%rbx
    4098:	48 89 4c 24 08       	mov    %rcx,0x8(%rsp)
    409d:	4c 89 4c 24 18       	mov    %r9,0x18(%rsp)
    40a2:	45 85 e4             	test   %r12d,%r12d
    40a5:	0f 8e 02 01 00 00    	jle    41ad <jerasure_make_decoding_matrix+0x13d>
    40ab:	4c 89 c1             	mov    %r8,%rcx
    40ae:	31 c0                	xor    %eax,%eax
    40b0:	31 d2                	xor    %edx,%edx
    40b2:	66 0f 1f 44 00 00    	nopw   0x0(%rax,%rax,1)
    40b8:	8b 34 81             	mov    (%rcx,%rax,4),%esi
    40bb:	85 f6                	test   %esi,%esi
    40bd:	75 09                	jne    40c8 <jerasure_make_decoding_matrix+0x58>
    40bf:	48 63 f2             	movslq %edx,%rsi
    40c2:	83 c2 01             	add    $0x1,%edx
    40c5:	89 04 b3             	mov    %eax,(%rbx,%rsi,4)
    40c8:	48 83 c0 01          	add    $0x1,%rax
    40cc:	44 39 e2             	cmp    %r12d,%edx
    40cf:	7c e7                	jl     40b8 <jerasure_make_decoding_matrix+0x48>
    40d1:	e8 1a d3 ff ff       	callq  13f0 <malloc@plt>
    40d6:	48 89 c5             	mov    %rax,%rbp
    40d9:	48 85 c0             	test   %rax,%rax
    40dc:	0f 84 d8 00 00 00    	je     41ba <jerasure_make_decoding_matrix+0x14a>
    40e2:	48 89 df             	mov    %rbx,%rdi
    40e5:	41 8d 5c 24 ff       	lea    -0x1(%r12),%ebx
    40ea:	4d 63 f4             	movslq %r12d,%r14
    40ed:	48 89 e9             	mov    %rbp,%rcx
    40f0:	48 8d 04 9d 00 00 00 	lea    0x0(,%rbx,4),%rax
    40f7:	00 
    40f8:	49 c1 e6 02          	shl    $0x2,%r14
    40fc:	45 31 ed             	xor    %r13d,%r13d
    40ff:	48 8d 74 05 04       	lea    0x4(%rbp,%rax,1),%rsi
    4104:	4c 8d 7c 38 04       	lea    0x4(%rax,%rdi,1),%r15
    4109:	0f 1f 80 00 00 00 00 	nopl   0x0(%rax)
    4110:	8b 17                	mov    (%rdi),%edx
    4112:	44 39 e2             	cmp    %r12d,%edx
    4115:	7d 69                	jge    4180 <jerasure_make_decoding_matrix+0x110>
    4117:	48 89 c8             	mov    %rcx,%rax
    411a:	66 0f 1f 44 00 00    	nopw   0x0(%rax,%rax,1)
    4120:	c7 00 00 00 00 00    	movl   $0x0,(%rax)
    4126:	48 83 c0 04          	add    $0x4,%rax
    412a:	48 39 f0             	cmp    %rsi,%rax
    412d:	75 f1                	jne    4120 <jerasure_make_decoding_matrix+0xb0>
    412f:	44 01 ea             	add    %r13d,%edx
    4132:	48 63 d2             	movslq %edx,%rdx
    4135:	c7 44 95 00 01 00 00 	movl   $0x1,0x0(%rbp,%rdx,4)
    413c:	00 
    413d:	48 83 c7 04          	add    $0x4,%rdi
    4141:	45 01 e5             	add    %r12d,%r13d
    4144:	4c 01 f1             	add    %r14,%rcx
    4147:	4c 01 f6             	add    %r14,%rsi
    414a:	4c 39 ff             	cmp    %r15,%rdi
    414d:	75 c1                	jne    4110 <jerasure_make_decoding_matrix+0xa0>
    414f:	8b 4c 24 14          	mov    0x14(%rsp),%ecx
    4153:	48 8b 74 24 18       	mov    0x18(%rsp),%rsi
    4158:	44 89 e2             	mov    %r12d,%edx
    415b:	48 89 ef             	mov    %rbp,%rdi
    415e:	e8 ed f9 ff ff       	callq  3b50 <jerasure_invert_matrix>
    4163:	48 89 ef             	mov    %rbp,%rdi
    4166:	41 89 c4             	mov    %eax,%r12d
    4169:	e8 02 d1 ff ff       	callq  1270 <free@plt>
    416e:	48 83 c4 28          	add    $0x28,%rsp
    4172:	44 89 e0             	mov    %r12d,%eax
    4175:	5b                   	pop    %rbx
    4176:	5d                   	pop    %rbp
    4177:	41 5c                	pop    %r12
    4179:	41 5d                	pop    %r13
    417b:	41 5e                	pop    %r14
    417d:	41 5f                	pop    %r15
    417f:	c3                   	retq   
    4180:	44 29 e2             	sub    %r12d,%edx
    4183:	48 8b 44 24 08       	mov    0x8(%rsp),%rax
    4188:	41 0f af d4          	imul   %r12d,%edx
    418c:	48 63 d2             	movslq %edx,%rdx
    418f:	4c 8d 1c 90          	lea    (%rax,%rdx,4),%r11
    4193:	31 c0                	xor    %eax,%eax
    4195:	0f 1f 00             	nopl   (%rax)
    4198:	41 8b 14 83          	mov    (%r11,%rax,4),%edx
    419c:	89 14 81             	mov    %edx,(%rcx,%rax,4)
    419f:	48 89 c2             	mov    %rax,%rdx
    41a2:	48 83 c0 01          	add    $0x1,%rax
    41a6:	48 39 d3             	cmp    %rdx,%rbx
    41a9:	75 ed                	jne    4198 <jerasure_make_decoding_matrix+0x128>
    41ab:	eb 90                	jmp    413d <jerasure_make_decoding_matrix+0xcd>
    41ad:	e8 3e d2 ff ff       	callq  13f0 <malloc@plt>
    41b2:	48 89 c5             	mov    %rax,%rbp
    41b5:	48 85 c0             	test   %rax,%rax
    41b8:	75 95                	jne    414f <jerasure_make_decoding_matrix+0xdf>
    41ba:	41 83 cc ff          	or     $0xffffffff,%r12d
    41be:	eb ae                	jmp    416e <jerasure_make_decoding_matrix+0xfe>

00000000000041c0 <jerasure_invertible_matrix>:
    41c0:	f3 0f 1e fa          	endbr64 
    41c4:	41 57                	push   %r15
    41c6:	41 56                	push   %r14
    41c8:	41 55                	push   %r13
    41ca:	41 54                	push   %r12
    41cc:	55                   	push   %rbp
    41cd:	53                   	push   %rbx
    41ce:	48 83 ec 78          	sub    $0x78,%rsp
    41d2:	48 89 7c 24 28       	mov    %rdi,0x28(%rsp)
    41d7:	89 74 24 14          	mov    %esi,0x14(%rsp)
    41db:	85 f6                	test   %esi,%esi
    41dd:	0f 8e 99 02 00 00    	jle    447c <jerasure_invertible_matrix+0x2bc>
    41e3:	48 63 44 24 14       	movslq 0x14(%rsp),%rax
    41e8:	41 89 d5             	mov    %edx,%r13d
    41eb:	48 c7 44 24 20 00 00 	movq   $0x0,0x20(%rsp)
    41f2:	00 00 
    41f4:	c7 44 24 4c 00 00 00 	movl   $0x0,0x4c(%rsp)
    41fb:	00 
    41fc:	48 8d 1c 85 04 00 00 	lea    0x4(,%rax,4),%rbx
    4203:	00 
    4204:	48 89 c7             	mov    %rax,%rdi
    4207:	48 89 44 24 60       	mov    %rax,0x60(%rsp)
    420c:	48 c1 e0 02          	shl    $0x2,%rax
    4210:	48 89 5c 24 68       	mov    %rbx,0x68(%rsp)
    4215:	48 8b 5c 24 28       	mov    0x28(%rsp),%rbx
    421a:	48 89 44 24 08       	mov    %rax,0x8(%rsp)
    421f:	8d 47 ff             	lea    -0x1(%rdi),%eax
    4222:	48 8d 7b 04          	lea    0x4(%rbx),%rdi
    4226:	48 89 44 24 18       	mov    %rax,0x18(%rsp)
    422b:	48 8d 04 87          	lea    (%rdi,%rax,4),%rax
    422f:	48 89 5c 24 40       	mov    %rbx,0x40(%rsp)
    4234:	48 89 7c 24 38       	mov    %rdi,0x38(%rsp)
    4239:	48 89 44 24 58       	mov    %rax,0x58(%rsp)
    423e:	48 89 5c 24 50       	mov    %rbx,0x50(%rsp)
    4243:	48 c7 44 24 30 00 00 	movq   $0x0,0x30(%rsp)
    424a:	00 00 
    424c:	0f 1f 40 00          	nopl   0x0(%rax)
    4250:	48 8b 44 24 40       	mov    0x40(%rsp),%rax
    4255:	8b 30                	mov    (%rax),%esi
    4257:	8b 44 24 30          	mov    0x30(%rsp),%eax
    425b:	8d 58 01             	lea    0x1(%rax),%ebx
    425e:	85 f6                	test   %esi,%esi
    4260:	0f 84 42 01 00 00    	je     43a8 <jerasure_invertible_matrix+0x1e8>
    4266:	83 fe 01             	cmp    $0x1,%esi
    4269:	0f 85 c4 01 00 00    	jne    4433 <jerasure_invertible_matrix+0x273>
    426f:	48 8b 7c 24 18       	mov    0x18(%rsp),%rdi
    4274:	48 39 7c 24 30       	cmp    %rdi,0x30(%rsp)
    4279:	0f 84 fd 01 00 00    	je     447c <jerasure_invertible_matrix+0x2bc>
    427f:	8b 7c 24 14          	mov    0x14(%rsp),%edi
    4283:	01 7c 24 4c          	add    %edi,0x4c(%rsp)
    4287:	8b 44 24 4c          	mov    0x4c(%rsp),%eax
    428b:	48 8b 6c 24 40       	mov    0x40(%rsp),%rbp
    4290:	48 03 6c 24 08       	add    0x8(%rsp),%rbp
    4295:	89 44 24 10          	mov    %eax,0x10(%rsp)
    4299:	0f 1f 80 00 00 00 00 	nopl   0x0(%rax)
    42a0:	44 8b 65 00          	mov    0x0(%rbp),%r12d
    42a4:	45 85 e4             	test   %r12d,%r12d
    42a7:	74 5e                	je     4307 <jerasure_invertible_matrix+0x147>
    42a9:	41 83 fc 01          	cmp    $0x1,%r12d
    42ad:	0f 84 ad 00 00 00    	je     4360 <jerasure_invertible_matrix+0x1a0>
    42b3:	48 63 44 24 10       	movslq 0x10(%rsp),%rax
    42b8:	48 8b 7c 24 28       	mov    0x28(%rsp),%rdi
    42bd:	89 5c 24 48          	mov    %ebx,0x48(%rsp)
    42c1:	4c 8d 34 87          	lea    (%rdi,%rax,4),%r14
    42c5:	48 8b 7c 24 18       	mov    0x18(%rsp),%rdi
    42ca:	48 8d 14 38          	lea    (%rax,%rdi,1),%rdx
    42ce:	48 8b 7c 24 38       	mov    0x38(%rsp),%rdi
    42d3:	48 8d 14 97          	lea    (%rdi,%rdx,4),%rdx
    42d7:	48 8b 7c 24 20       	mov    0x20(%rsp),%rdi
    42dc:	49 89 d7             	mov    %rdx,%r15
    42df:	48 29 c7             	sub    %rax,%rdi
    42e2:	48 89 fb             	mov    %rdi,%rbx
    42e5:	0f 1f 00             	nopl   (%rax)
    42e8:	41 8b 34 9e          	mov    (%r14,%rbx,4),%esi
    42ec:	44 89 ea             	mov    %r13d,%edx
    42ef:	44 89 e7             	mov    %r12d,%edi
    42f2:	e8 19 42 00 00       	callq  8510 <galois_single_multiply>
    42f7:	41 31 06             	xor    %eax,(%r14)
    42fa:	49 83 c6 04          	add    $0x4,%r14
    42fe:	4d 39 f7             	cmp    %r14,%r15
    4301:	75 e5                	jne    42e8 <jerasure_invertible_matrix+0x128>
    4303:	8b 5c 24 48          	mov    0x48(%rsp),%ebx
    4307:	8b 4c 24 14          	mov    0x14(%rsp),%ecx
    430b:	83 c3 01             	add    $0x1,%ebx
    430e:	01 4c 24 10          	add    %ecx,0x10(%rsp)
    4312:	48 03 6c 24 08       	add    0x8(%rsp),%rbp
    4317:	39 d9                	cmp    %ebx,%ecx
    4319:	75 85                	jne    42a0 <jerasure_invertible_matrix+0xe0>
    431b:	48 8b 7c 24 30       	mov    0x30(%rsp),%rdi
    4320:	48 8b 54 24 68       	mov    0x68(%rsp),%rdx
    4325:	48 01 54 24 40       	add    %rdx,0x40(%rsp)
    432a:	48 8b 54 24 60       	mov    0x60(%rsp),%rdx
    432f:	48 8d 47 01          	lea    0x1(%rdi),%rax
    4333:	48 01 54 24 20       	add    %rdx,0x20(%rsp)
    4338:	48 8b 54 24 08       	mov    0x8(%rsp),%rdx
    433d:	48 01 54 24 50       	add    %rdx,0x50(%rsp)
    4342:	48 01 54 24 58       	add    %rdx,0x58(%rsp)
    4347:	48 3b 7c 24 18       	cmp    0x18(%rsp),%rdi
    434c:	0f 84 2a 01 00 00    	je     447c <jerasure_invertible_matrix+0x2bc>
    4352:	48 89 44 24 30       	mov    %rax,0x30(%rsp)
    4357:	e9 f4 fe ff ff       	jmpq   4250 <jerasure_invertible_matrix+0x90>
    435c:	0f 1f 40 00          	nopl   0x0(%rax)
    4360:	48 63 54 24 10       	movslq 0x10(%rsp),%rdx
    4365:	48 8b 7c 24 18       	mov    0x18(%rsp),%rdi
    436a:	48 8b 44 24 28       	mov    0x28(%rsp),%rax
    436f:	48 8d 0c 3a          	lea    (%rdx,%rdi,1),%rcx
    4373:	48 8b 7c 24 38       	mov    0x38(%rsp),%rdi
    4378:	48 8d 04 90          	lea    (%rax,%rdx,4),%rax
    437c:	48 8d 34 8f          	lea    (%rdi,%rcx,4),%rsi
    4380:	48 8b 4c 24 20       	mov    0x20(%rsp),%rcx
    4385:	48 29 d1             	sub    %rdx,%rcx
    4388:	0f 1f 84 00 00 00 00 	nopl   0x0(%rax,%rax,1)
    438f:	00 
    4390:	8b 14 88             	mov    (%rax,%rcx,4),%edx
    4393:	31 10                	xor    %edx,(%rax)
    4395:	48 83 c0 04          	add    $0x4,%rax
    4399:	48 39 f0             	cmp    %rsi,%rax
    439c:	75 f2                	jne    4390 <jerasure_invertible_matrix+0x1d0>
    439e:	e9 64 ff ff ff       	jmpq   4307 <jerasure_invertible_matrix+0x147>
    43a3:	0f 1f 44 00 00       	nopl   0x0(%rax,%rax,1)
    43a8:	44 8b 5c 24 14       	mov    0x14(%rsp),%r11d
    43ad:	41 39 db             	cmp    %ebx,%r11d
    43b0:	0f 8e dc 00 00 00    	jle    4492 <jerasure_invertible_matrix+0x2d2>
    43b6:	8b 44 24 4c          	mov    0x4c(%rsp),%eax
    43ba:	48 8b 7c 24 28       	mov    0x28(%rsp),%rdi
    43bf:	48 8b 6c 24 08       	mov    0x8(%rsp),%rbp
    43c4:	44 01 d8             	add    %r11d,%eax
    43c7:	48 63 d0             	movslq %eax,%rdx
    43ca:	48 03 54 24 30       	add    0x30(%rsp),%rdx
    43cf:	48 8d 0c 97          	lea    (%rdi,%rdx,4),%rcx
    43d3:	89 df                	mov    %ebx,%edi
    43d5:	eb 1b                	jmp    43f2 <jerasure_invertible_matrix+0x232>
    43d7:	66 0f 1f 84 00 00 00 	nopw   0x0(%rax,%rax,1)
    43de:	00 00 
    43e0:	83 c7 01             	add    $0x1,%edi
    43e3:	44 01 d8             	add    %r11d,%eax
    43e6:	48 01 e9             	add    %rbp,%rcx
    43e9:	41 39 fb             	cmp    %edi,%r11d
    43ec:	0f 84 8f 00 00 00    	je     4481 <jerasure_invertible_matrix+0x2c1>
    43f2:	8b 31                	mov    (%rcx),%esi
    43f4:	89 c2                	mov    %eax,%edx
    43f6:	85 f6                	test   %esi,%esi
    43f8:	74 e6                	je     43e0 <jerasure_invertible_matrix+0x220>
    43fa:	48 8b 44 24 50       	mov    0x50(%rsp),%rax
    43ff:	48 8b 7c 24 58       	mov    0x58(%rsp),%rdi
    4404:	48 63 d2             	movslq %edx,%rdx
    4407:	48 2b 54 24 20       	sub    0x20(%rsp),%rdx
    440c:	0f 1f 40 00          	nopl   0x0(%rax)
    4410:	8b 08                	mov    (%rax),%ecx
    4412:	8b 34 90             	mov    (%rax,%rdx,4),%esi
    4415:	89 30                	mov    %esi,(%rax)
    4417:	89 0c 90             	mov    %ecx,(%rax,%rdx,4)
    441a:	48 83 c0 04          	add    $0x4,%rax
    441e:	48 39 f8             	cmp    %rdi,%rax
    4421:	75 ed                	jne    4410 <jerasure_invertible_matrix+0x250>
    4423:	48 8b 44 24 40       	mov    0x40(%rsp),%rax
    4428:	8b 30                	mov    (%rax),%esi
    442a:	83 fe 01             	cmp    $0x1,%esi
    442d:	0f 84 3c fe ff ff    	je     426f <jerasure_invertible_matrix+0xaf>
    4433:	44 89 ea             	mov    %r13d,%edx
    4436:	bf 01 00 00 00       	mov    $0x1,%edi
    443b:	e8 f0 40 00 00       	callq  8530 <galois_single_divide>
    4440:	4c 8b 64 24 50       	mov    0x50(%rsp),%r12
    4445:	4c 8b 74 24 58       	mov    0x58(%rsp),%r14
    444a:	89 c5                	mov    %eax,%ebp
    444c:	0f 1f 40 00          	nopl   0x0(%rax)
    4450:	41 8b 3c 24          	mov    (%r12),%edi
    4454:	44 89 ea             	mov    %r13d,%edx
    4457:	89 ee                	mov    %ebp,%esi
    4459:	49 83 c4 04          	add    $0x4,%r12
    445d:	e8 ae 40 00 00       	callq  8510 <galois_single_multiply>
    4462:	41 89 44 24 fc       	mov    %eax,-0x4(%r12)
    4467:	4d 39 f4             	cmp    %r14,%r12
    446a:	75 e4                	jne    4450 <jerasure_invertible_matrix+0x290>
    446c:	48 8b 7c 24 18       	mov    0x18(%rsp),%rdi
    4471:	48 39 7c 24 30       	cmp    %rdi,0x30(%rsp)
    4476:	0f 85 03 fe ff ff    	jne    427f <jerasure_invertible_matrix+0xbf>
    447c:	be 01 00 00 00       	mov    $0x1,%esi
    4481:	48 83 c4 78          	add    $0x78,%rsp
    4485:	89 f0                	mov    %esi,%eax
    4487:	5b                   	pop    %rbx
    4488:	5d                   	pop    %rbp
    4489:	41 5c                	pop    %r12
    448b:	41 5d                	pop    %r13
    448d:	41 5e                	pop    %r14
    448f:	41 5f                	pop    %r15
    4491:	c3                   	retq   
    4492:	74 ed                	je     4481 <jerasure_invertible_matrix+0x2c1>
    4494:	8b 54 24 14          	mov    0x14(%rsp),%edx
    4498:	0f af d3             	imul   %ebx,%edx
    449b:	e9 5a ff ff ff       	jmpq   43fa <jerasure_invertible_matrix+0x23a>

00000000000044a0 <jerasure_erasures_to_erased>:
    44a0:	f3 0f 1e fa          	endbr64 
    44a4:	41 54                	push   %r12
    44a6:	41 89 fc             	mov    %edi,%r12d
    44a9:	55                   	push   %rbp
    44aa:	8d 2c 37             	lea    (%rdi,%rsi,1),%ebp
    44ad:	53                   	push   %rbx
    44ae:	48 63 fd             	movslq %ebp,%rdi
    44b1:	48 89 d3             	mov    %rdx,%rbx
    44b4:	48 c1 e7 02          	shl    $0x2,%rdi
    44b8:	e8 33 cf ff ff       	callq  13f0 <malloc@plt>
    44bd:	48 85 c0             	test   %rax,%rax
    44c0:	74 5a                	je     451c <jerasure_erasures_to_erased+0x7c>
    44c2:	85 ed                	test   %ebp,%ebp
    44c4:	7e 21                	jle    44e7 <jerasure_erasures_to_erased+0x47>
    44c6:	8d 4d ff             	lea    -0x1(%rbp),%ecx
    44c9:	48 89 c2             	mov    %rax,%rdx
    44cc:	48 8d 4c 88 04       	lea    0x4(%rax,%rcx,4),%rcx
    44d1:	0f 1f 80 00 00 00 00 	nopl   0x0(%rax)
    44d8:	c7 02 00 00 00 00    	movl   $0x0,(%rdx)
    44de:	48 83 c2 04          	add    $0x4,%rdx
    44e2:	48 39 ca             	cmp    %rcx,%rdx
    44e5:	75 f1                	jne    44d8 <jerasure_erasures_to_erased+0x38>
    44e7:	48 63 0b             	movslq (%rbx),%rcx
    44ea:	83 f9 ff             	cmp    $0xffffffff,%ecx
    44ed:	74 2d                	je     451c <jerasure_erasures_to_erased+0x7c>
    44ef:	48 8d 53 04          	lea    0x4(%rbx),%rdx
    44f3:	0f 1f 44 00 00       	nopl   0x0(%rax,%rax,1)
    44f8:	48 8d 0c 88          	lea    (%rax,%rcx,4),%rcx
    44fc:	8b 31                	mov    (%rcx),%esi
    44fe:	85 f6                	test   %esi,%esi
    4500:	75 0e                	jne    4510 <jerasure_erasures_to_erased+0x70>
    4502:	83 ed 01             	sub    $0x1,%ebp
    4505:	c7 01 01 00 00 00    	movl   $0x1,(%rcx)
    450b:	41 39 ec             	cmp    %ebp,%r12d
    450e:	7f 18                	jg     4528 <jerasure_erasures_to_erased+0x88>
    4510:	48 63 0a             	movslq (%rdx),%rcx
    4513:	48 83 c2 04          	add    $0x4,%rdx
    4517:	83 f9 ff             	cmp    $0xffffffff,%ecx
    451a:	75 dc                	jne    44f8 <jerasure_erasures_to_erased+0x58>
    451c:	5b                   	pop    %rbx
    451d:	5d                   	pop    %rbp
    451e:	41 5c                	pop    %r12
    4520:	c3                   	retq   
    4521:	0f 1f 80 00 00 00 00 	nopl   0x0(%rax)
    4528:	48 89 c7             	mov    %rax,%rdi
    452b:	e8 40 cd ff ff       	callq  1270 <free@plt>
    4530:	5b                   	pop    %rbx
    4531:	31 c0                	xor    %eax,%eax
    4533:	5d                   	pop    %rbp
    4534:	41 5c                	pop    %r12
    4536:	c3                   	retq   
    4537:	66 0f 1f 84 00 00 00 	nopw   0x0(%rax,%rax,1)
    453e:	00 00 

0000000000004540 <set_up_ptrs_for_scheduled_decoding>:
    4540:	41 57                	push   %r15
    4542:	41 89 f7             	mov    %esi,%r15d
    4545:	41 56                	push   %r14
    4547:	41 55                	push   %r13
    4549:	4d 89 c5             	mov    %r8,%r13
    454c:	41 54                	push   %r12
    454e:	49 89 cc             	mov    %rcx,%r12
    4551:	55                   	push   %rbp
    4552:	53                   	push   %rbx
    4553:	48 63 df             	movslq %edi,%rbx
    4556:	89 df                	mov    %ebx,%edi
    4558:	48 83 ec 18          	sub    $0x18,%rsp
    455c:	89 74 24 08          	mov    %esi,0x8(%rsp)
    4560:	e8 3b ff ff ff       	callq  44a0 <jerasure_erasures_to_erased>
    4565:	48 85 c0             	test   %rax,%rax
    4568:	0f 84 f2 00 00 00    	je     4660 <set_up_ptrs_for_scheduled_decoding+0x120>
    456e:	48 89 c5             	mov    %rax,%rbp
    4571:	42 8d 04 3b          	lea    (%rbx,%r15,1),%eax
    4575:	48 63 f8             	movslq %eax,%rdi
    4578:	89 44 24 0c          	mov    %eax,0xc(%rsp)
    457c:	48 c1 e7 03          	shl    $0x3,%rdi
    4580:	e8 6b ce ff ff       	callq  13f0 <malloc@plt>
    4585:	49 89 c6             	mov    %rax,%r14
    4588:	85 db                	test   %ebx,%ebx
    458a:	0f 8e d5 00 00 00    	jle    4665 <set_up_ptrs_for_scheduled_decoding+0x125>
    4590:	8d 4b ff             	lea    -0x1(%rbx),%ecx
    4593:	41 89 db             	mov    %ebx,%r11d
    4596:	89 df                	mov    %ebx,%edi
    4598:	31 f6                	xor    %esi,%esi
    459a:	eb 14                	jmp    45b0 <set_up_ptrs_for_scheduled_decoding+0x70>
    459c:	0f 1f 40 00          	nopl   0x0(%rax)
    45a0:	49 89 14 f6          	mov    %rdx,(%r14,%rsi,8)
    45a4:	48 8d 46 01          	lea    0x1(%rsi),%rax
    45a8:	48 39 f1             	cmp    %rsi,%rcx
    45ab:	74 59                	je     4606 <set_up_ptrs_for_scheduled_decoding+0xc6>
    45ad:	48 89 c6             	mov    %rax,%rsi
    45b0:	8b 44 b5 00          	mov    0x0(%rbp,%rsi,4),%eax
    45b4:	49 8b 14 f4          	mov    (%r12,%rsi,8),%rdx
    45b8:	85 c0                	test   %eax,%eax
    45ba:	74 e4                	je     45a0 <set_up_ptrs_for_scheduled_decoding+0x60>
    45bc:	4c 63 ff             	movslq %edi,%r15
    45bf:	8d 47 01             	lea    0x1(%rdi),%eax
    45c2:	46 8b 7c bd 00       	mov    0x0(%rbp,%r15,4),%r15d
    45c7:	48 98                	cltq   
    45c9:	45 85 ff             	test   %r15d,%r15d
    45cc:	74 12                	je     45e0 <set_up_ptrs_for_scheduled_decoding+0xa0>
    45ce:	66 90                	xchg   %ax,%ax
    45d0:	89 c7                	mov    %eax,%edi
    45d2:	48 83 c0 01          	add    $0x1,%rax
    45d6:	44 8b 7c 85 fc       	mov    -0x4(%rbp,%rax,4),%r15d
    45db:	45 85 ff             	test   %r15d,%r15d
    45de:	75 f0                	jne    45d0 <set_up_ptrs_for_scheduled_decoding+0x90>
    45e0:	89 f8                	mov    %edi,%eax
    45e2:	83 c7 01             	add    $0x1,%edi
    45e5:	29 d8                	sub    %ebx,%eax
    45e7:	48 98                	cltq   
    45e9:	49 8b 44 c5 00       	mov    0x0(%r13,%rax,8),%rax
    45ee:	49 89 04 f6          	mov    %rax,(%r14,%rsi,8)
    45f2:	49 63 c3             	movslq %r11d,%rax
    45f5:	41 83 c3 01          	add    $0x1,%r11d
    45f9:	49 89 14 c6          	mov    %rdx,(%r14,%rax,8)
    45fd:	48 8d 46 01          	lea    0x1(%rsi),%rax
    4601:	48 39 f1             	cmp    %rsi,%rcx
    4604:	75 a7                	jne    45ad <set_up_ptrs_for_scheduled_decoding+0x6d>
    4606:	39 5c 24 0c          	cmp    %ebx,0xc(%rsp)
    460a:	7e 3a                	jle    4646 <set_up_ptrs_for_scheduled_decoding+0x106>
    460c:	8b 44 24 08          	mov    0x8(%rsp),%eax
    4610:	48 8d 4c 9d 00       	lea    0x0(%rbp,%rbx,4),%rcx
    4615:	8d 70 ff             	lea    -0x1(%rax),%esi
    4618:	31 c0                	xor    %eax,%eax
    461a:	eb 07                	jmp    4623 <set_up_ptrs_for_scheduled_decoding+0xe3>
    461c:	0f 1f 40 00          	nopl   0x0(%rax)
    4620:	48 89 d0             	mov    %rdx,%rax
    4623:	8b 14 81             	mov    (%rcx,%rax,4),%edx
    4626:	85 d2                	test   %edx,%edx
    4628:	74 13                	je     463d <set_up_ptrs_for_scheduled_decoding+0xfd>
    462a:	48 63 f8             	movslq %eax,%rdi
    462d:	49 63 d3             	movslq %r11d,%rdx
    4630:	41 83 c3 01          	add    $0x1,%r11d
    4634:	49 8b 7c fd 00       	mov    0x0(%r13,%rdi,8),%rdi
    4639:	49 89 3c d6          	mov    %rdi,(%r14,%rdx,8)
    463d:	48 8d 50 01          	lea    0x1(%rax),%rdx
    4641:	48 39 c6             	cmp    %rax,%rsi
    4644:	75 da                	jne    4620 <set_up_ptrs_for_scheduled_decoding+0xe0>
    4646:	48 89 ef             	mov    %rbp,%rdi
    4649:	e8 22 cc ff ff       	callq  1270 <free@plt>
    464e:	48 83 c4 18          	add    $0x18,%rsp
    4652:	4c 89 f0             	mov    %r14,%rax
    4655:	5b                   	pop    %rbx
    4656:	5d                   	pop    %rbp
    4657:	41 5c                	pop    %r12
    4659:	41 5d                	pop    %r13
    465b:	41 5e                	pop    %r14
    465d:	41 5f                	pop    %r15
    465f:	c3                   	retq   
    4660:	45 31 f6             	xor    %r14d,%r14d
    4663:	eb e9                	jmp    464e <set_up_ptrs_for_scheduled_decoding+0x10e>
    4665:	41 89 db             	mov    %ebx,%r11d
    4668:	eb 9c                	jmp    4606 <set_up_ptrs_for_scheduled_decoding+0xc6>
    466a:	66 0f 1f 44 00 00    	nopw   0x0(%rax,%rax,1)

0000000000004670 <jerasure_free_schedule>:
    4670:	f3 0f 1e fa          	endbr64 
    4674:	55                   	push   %rbp
    4675:	48 89 fd             	mov    %rdi,%rbp
    4678:	53                   	push   %rbx
    4679:	48 83 ec 08          	sub    $0x8,%rsp
    467d:	48 8b 3f             	mov    (%rdi),%rdi
    4680:	8b 17                	mov    (%rdi),%edx
    4682:	85 d2                	test   %edx,%edx
    4684:	78 1c                	js     46a2 <jerasure_free_schedule+0x32>
    4686:	48 8d 5d 08          	lea    0x8(%rbp),%rbx
    468a:	66 0f 1f 44 00 00    	nopw   0x0(%rax,%rax,1)
    4690:	e8 db cb ff ff       	callq  1270 <free@plt>
    4695:	48 8b 3b             	mov    (%rbx),%rdi
    4698:	48 83 c3 08          	add    $0x8,%rbx
    469c:	8b 07                	mov    (%rdi),%eax
    469e:	85 c0                	test   %eax,%eax
    46a0:	79 ee                	jns    4690 <jerasure_free_schedule+0x20>
    46a2:	e8 c9 cb ff ff       	callq  1270 <free@plt>
    46a7:	48 83 c4 08          	add    $0x8,%rsp
    46ab:	48 89 ef             	mov    %rbp,%rdi
    46ae:	5b                   	pop    %rbx
    46af:	5d                   	pop    %rbp
    46b0:	e9 bb cb ff ff       	jmpq   1270 <free@plt>
    46b5:	66 66 2e 0f 1f 84 00 	data16 nopw %cs:0x0(%rax,%rax,1)
    46bc:	00 00 00 00 

00000000000046c0 <jerasure_free_schedule_cache>:
    46c0:	f3 0f 1e fa          	endbr64 
    46c4:	41 57                	push   %r15
    46c6:	41 56                	push   %r14
    46c8:	41 55                	push   %r13
    46ca:	41 54                	push   %r12
    46cc:	55                   	push   %rbp
    46cd:	53                   	push   %rbx
    46ce:	48 83 ec 28          	sub    $0x28,%rsp
    46d2:	48 89 54 24 18       	mov    %rdx,0x18(%rsp)
    46d7:	83 fe 02             	cmp    $0x2,%esi
    46da:	0f 85 88 00 00 00    	jne    4768 <jerasure_free_schedule_cache+0xa8>
    46e0:	8d 47 02             	lea    0x2(%rdi),%eax
    46e3:	89 44 24 0c          	mov    %eax,0xc(%rsp)
    46e7:	85 c0                	test   %eax,%eax
    46e9:	7e 65                	jle    4750 <jerasure_free_schedule_cache+0x90>
    46eb:	4c 63 f0             	movslq %eax,%r14
    46ee:	31 ed                	xor    %ebp,%ebp
    46f0:	4e 8d 3c f5 00 00 00 	lea    0x0(,%r14,8),%r15
    46f7:	00 
    46f8:	49 f7 de             	neg    %r14
    46fb:	49 8d 47 08          	lea    0x8(%r15),%rax
    46ff:	4e 8d 24 3a          	lea    (%rdx,%r15,1),%r12
    4703:	49 c1 e6 03          	shl    $0x3,%r14
    4707:	48 89 44 24 10       	mov    %rax,0x10(%rsp)
    470c:	4a 8d 5c 3a 08       	lea    0x8(%rdx,%r15,1),%rbx
    4711:	0f 1f 80 00 00 00 00 	nopl   0x0(%rax)
    4718:	4a 8b 7c 33 f8       	mov    -0x8(%rbx,%r14,1),%rdi
    471d:	83 c5 01             	add    $0x1,%ebp
    4720:	e8 4b ff ff ff       	callq  4670 <jerasure_free_schedule>
    4725:	3b 6c 24 0c          	cmp    0xc(%rsp),%ebp
    4729:	74 25                	je     4750 <jerasure_free_schedule_cache+0x90>
    472b:	4d 89 e5             	mov    %r12,%r13
    472e:	66 90                	xchg   %ax,%ax
    4730:	49 8b 7d 00          	mov    0x0(%r13),%rdi
    4734:	49 83 c5 08          	add    $0x8,%r13
    4738:	e8 33 ff ff ff       	callq  4670 <jerasure_free_schedule>
    473d:	49 39 dd             	cmp    %rbx,%r13
    4740:	75 ee                	jne    4730 <jerasure_free_schedule_cache+0x70>
    4742:	4d 01 fc             	add    %r15,%r12
    4745:	48 03 5c 24 10       	add    0x10(%rsp),%rbx
    474a:	eb cc                	jmp    4718 <jerasure_free_schedule_cache+0x58>
    474c:	0f 1f 40 00          	nopl   0x0(%rax)
    4750:	48 8b 7c 24 18       	mov    0x18(%rsp),%rdi
    4755:	48 83 c4 28          	add    $0x28,%rsp
    4759:	5b                   	pop    %rbx
    475a:	5d                   	pop    %rbp
    475b:	41 5c                	pop    %r12
    475d:	41 5d                	pop    %r13
    475f:	41 5e                	pop    %r14
    4761:	41 5f                	pop    %r15
    4763:	e9 08 cb ff ff       	jmpq   1270 <free@plt>
    4768:	48 8b 0d d1 c9 00 00 	mov    0xc9d1(%rip),%rcx        # 11140 <stderr@@GLIBC_2.2.5>
    476f:	ba 2f 00 00 00       	mov    $0x2f,%edx
    4774:	be 01 00 00 00       	mov    $0x1,%esi
    4779:	48 8d 3d b0 5f 00 00 	lea    0x5fb0(%rip),%rdi        # a730 <__PRETTY_FUNCTION__.5230+0x5f>
    4780:	e8 db cc ff ff       	callq  1460 <fwrite@plt>
    4785:	bf 01 00 00 00       	mov    $0x1,%edi
    478a:	e8 c1 cc ff ff       	callq  1450 <exit@plt>
    478f:	90                   	nop

0000000000004790 <jerasure_matrix_dotprod>:
    4790:	f3 0f 1e fa          	endbr64 
    4794:	41 57                	push   %r15
    4796:	41 56                	push   %r14
    4798:	41 55                	push   %r13
    479a:	41 54                	push   %r12
    479c:	55                   	push   %rbp
    479d:	53                   	push   %rbx
    479e:	48 83 ec 28          	sub    $0x28,%rsp
    47a2:	89 7c 24 18          	mov    %edi,0x18(%rsp)
    47a6:	44 8b 7c 24 68       	mov    0x68(%rsp),%r15d
    47ab:	4c 89 4c 24 08       	mov    %r9,0x8(%rsp)
    47b0:	83 fe 20             	cmp    $0x20,%esi
    47b3:	0f 87 af 01 00 00    	ja     4968 <jerasure_matrix_dotprod+0x1d8>
    47b9:	48 89 d5             	mov    %rdx,%rbp
    47bc:	41 89 f4             	mov    %esi,%r12d
    47bf:	48 ba 02 01 01 00 01 	movabs $0x100010102,%rdx
    47c6:	00 00 00 
    47c9:	48 0f a3 f2          	bt     %rsi,%rdx
    47cd:	0f 83 95 01 00 00    	jae    4968 <jerasure_matrix_dotprod+0x1d8>
    47d3:	49 89 ce             	mov    %rcx,%r14
    47d6:	49 63 c0             	movslq %r8d,%rax
    47d9:	3b 44 24 18          	cmp    0x18(%rsp),%eax
    47dd:	0f 8c ad 01 00 00    	jl     4990 <jerasure_matrix_dotprod+0x200>
    47e3:	48 8b 4c 24 60       	mov    0x60(%rsp),%rcx
    47e8:	2b 44 24 18          	sub    0x18(%rsp),%eax
    47ec:	48 98                	cltq   
    47ee:	4c 8b 1c c1          	mov    (%rcx,%rax,8),%r11
    47f2:	8b 44 24 18          	mov    0x18(%rsp),%eax
    47f6:	85 c0                	test   %eax,%eax
    47f8:	0f 8e a7 01 00 00    	jle    49a5 <jerasure_matrix_dotprod+0x215>
    47fe:	49 63 cf             	movslq %r15d,%rcx
    4801:	44 8d 68 ff          	lea    -0x1(%rax),%r13d
    4805:	31 c0                	xor    %eax,%eax
    4807:	44 89 64 24 1c       	mov    %r12d,0x1c(%rsp)
    480c:	48 89 4c 24 10       	mov    %rcx,0x10(%rsp)
    4811:	31 db                	xor    %ebx,%ebx
    4813:	44 89 f9             	mov    %r15d,%ecx
    4816:	41 89 c4             	mov    %eax,%r12d
    4819:	4d 89 df             	mov    %r11,%r15
    481c:	eb 0e                	jmp    482c <jerasure_matrix_dotprod+0x9c>
    481e:	66 90                	xchg   %ax,%ax
    4820:	48 8d 53 01          	lea    0x1(%rbx),%rdx
    4824:	49 39 dd             	cmp    %rbx,%r13
    4827:	74 77                	je     48a0 <jerasure_matrix_dotprod+0x110>
    4829:	48 89 d3             	mov    %rdx,%rbx
    482c:	83 7c 9d 00 01       	cmpl   $0x1,0x0(%rbp,%rbx,4)
    4831:	75 ed                	jne    4820 <jerasure_matrix_dotprod+0x90>
    4833:	4d 85 f6             	test   %r14,%r14
    4836:	0f 84 04 02 00 00    	je     4a40 <jerasure_matrix_dotprod+0x2b0>
    483c:	49 63 14 9e          	movslq (%r14,%rbx,4),%rdx
    4840:	3b 54 24 18          	cmp    0x18(%rsp),%edx
    4844:	0f 8d 9e 01 00 00    	jge    49e8 <jerasure_matrix_dotprod+0x258>
    484a:	48 8b 44 24 08       	mov    0x8(%rsp),%rax
    484f:	48 8b 3c d0          	mov    (%rax,%rdx,8),%rdi
    4853:	89 4c 24 68          	mov    %ecx,0x68(%rsp)
    4857:	45 85 e4             	test   %r12d,%r12d
    485a:	0f 85 58 01 00 00    	jne    49b8 <jerasure_matrix_dotprod+0x228>
    4860:	48 8b 54 24 10       	mov    0x10(%rsp),%rdx
    4865:	48 89 fe             	mov    %rdi,%rsi
    4868:	4c 89 ff             	mov    %r15,%rdi
    486b:	41 bc 01 00 00 00    	mov    $0x1,%r12d
    4871:	e8 3a cb ff ff       	callq  13b0 <memcpy@plt>
    4876:	8b 4c 24 68          	mov    0x68(%rsp),%ecx
    487a:	66 0f ef c0          	pxor   %xmm0,%xmm0
    487e:	48 8d 53 01          	lea    0x1(%rbx),%rdx
    4882:	f2 0f 2a c1          	cvtsi2sd %ecx,%xmm0
    4886:	f2 0f 58 05 c2 c8 00 	addsd  0xc8c2(%rip),%xmm0        # 11150 <jerasure_total_memcpy_bytes>
    488d:	00 
    488e:	f2 0f 11 05 ba c8 00 	movsd  %xmm0,0xc8ba(%rip)        # 11150 <jerasure_total_memcpy_bytes>
    4895:	00 
    4896:	49 39 dd             	cmp    %rbx,%r13
    4899:	75 8e                	jne    4829 <jerasure_matrix_dotprod+0x99>
    489b:	0f 1f 44 00 00       	nopl   0x0(%rax,%rax,1)
    48a0:	44 89 e0             	mov    %r12d,%eax
    48a3:	4d 89 fb             	mov    %r15,%r11
    48a6:	41 89 cf             	mov    %ecx,%r15d
    48a9:	44 8b 64 24 1c       	mov    0x1c(%rsp),%r12d
    48ae:	44 89 7c 24 68       	mov    %r15d,0x68(%rsp)
    48b3:	31 db                	xor    %ebx,%ebx
    48b5:	4d 89 ef             	mov    %r13,%r15
    48b8:	89 c1                	mov    %eax,%ecx
    48ba:	4c 89 5c 24 10       	mov    %r11,0x10(%rsp)
    48bf:	44 8b 6c 24 68       	mov    0x68(%rsp),%r13d
    48c4:	eb 5b                	jmp    4921 <jerasure_matrix_dotprod+0x191>
    48c6:	66 2e 0f 1f 84 00 00 	nopw   %cs:0x0(%rax,%rax,1)
    48cd:	00 00 00 
    48d0:	48 8b 44 24 08       	mov    0x8(%rsp),%rax
    48d5:	48 8b 3c f8          	mov    (%rax,%rdi,8),%rdi
    48d9:	41 83 fc 10          	cmp    $0x10,%r12d
    48dd:	74 74                	je     4953 <jerasure_matrix_dotprod+0x1c3>
    48df:	41 83 fc 20          	cmp    $0x20,%r12d
    48e3:	0f 84 3f 01 00 00    	je     4a28 <jerasure_matrix_dotprod+0x298>
    48e9:	41 83 fc 08          	cmp    $0x8,%r12d
    48ed:	0f 84 1d 01 00 00    	je     4a10 <jerasure_matrix_dotprod+0x280>
    48f3:	66 0f ef c0          	pxor   %xmm0,%xmm0
    48f7:	b9 01 00 00 00       	mov    $0x1,%ecx
    48fc:	f2 41 0f 2a c5       	cvtsi2sd %r13d,%xmm0
    4901:	f2 0f 58 05 4f c8 00 	addsd  0xc84f(%rip),%xmm0        # 11158 <jerasure_total_gf_bytes>
    4908:	00 
    4909:	f2 0f 11 05 47 c8 00 	movsd  %xmm0,0xc847(%rip)        # 11158 <jerasure_total_gf_bytes>
    4910:	00 
    4911:	48 8d 73 01          	lea    0x1(%rbx),%rsi
    4915:	49 39 df             	cmp    %rbx,%r15
    4918:	0f 84 87 00 00 00    	je     49a5 <jerasure_matrix_dotprod+0x215>
    491e:	48 89 f3             	mov    %rsi,%rbx
    4921:	8b 74 9d 00          	mov    0x0(%rbp,%rbx,4),%esi
    4925:	83 fe 01             	cmp    $0x1,%esi
    4928:	76 e7                	jbe    4911 <jerasure_matrix_dotprod+0x181>
    492a:	4d 85 f6             	test   %r14,%r14
    492d:	0f 84 cd 00 00 00    	je     4a00 <jerasure_matrix_dotprod+0x270>
    4933:	49 63 3c 9e          	movslq (%r14,%rbx,4),%rdi
    4937:	3b 7c 24 18          	cmp    0x18(%rsp),%edi
    493b:	7c 93                	jl     48d0 <jerasure_matrix_dotprod+0x140>
    493d:	48 8b 44 24 60       	mov    0x60(%rsp),%rax
    4942:	2b 7c 24 18          	sub    0x18(%rsp),%edi
    4946:	48 63 ff             	movslq %edi,%rdi
    4949:	48 8b 3c f8          	mov    (%rax,%rdi,8),%rdi
    494d:	41 83 fc 10          	cmp    $0x10,%r12d
    4951:	75 8c                	jne    48df <jerasure_matrix_dotprod+0x14f>
    4953:	41 89 c8             	mov    %ecx,%r8d
    4956:	48 8b 4c 24 10       	mov    0x10(%rsp),%rcx
    495b:	44 89 ea             	mov    %r13d,%edx
    495e:	e8 cd 30 00 00       	callq  7a30 <galois_w16_region_multiply>
    4963:	eb 8e                	jmp    48f3 <jerasure_matrix_dotprod+0x163>
    4965:	0f 1f 00             	nopl   (%rax)
    4968:	48 8b 0d d1 c7 00 00 	mov    0xc7d1(%rip),%rcx        # 11140 <stderr@@GLIBC_2.2.5>
    496f:	ba 44 00 00 00       	mov    $0x44,%edx
    4974:	be 01 00 00 00       	mov    $0x1,%esi
    4979:	48 8d 3d e0 5d 00 00 	lea    0x5de0(%rip),%rdi        # a760 <__PRETTY_FUNCTION__.5230+0x8f>
    4980:	e8 db ca ff ff       	callq  1460 <fwrite@plt>
    4985:	bf 01 00 00 00       	mov    $0x1,%edi
    498a:	e8 c1 ca ff ff       	callq  1450 <exit@plt>
    498f:	90                   	nop
    4990:	48 8b 4c 24 08       	mov    0x8(%rsp),%rcx
    4995:	4c 8b 1c c1          	mov    (%rcx,%rax,8),%r11
    4999:	8b 44 24 18          	mov    0x18(%rsp),%eax
    499d:	85 c0                	test   %eax,%eax
    499f:	0f 8f 59 fe ff ff    	jg     47fe <jerasure_matrix_dotprod+0x6e>
    49a5:	48 83 c4 28          	add    $0x28,%rsp
    49a9:	5b                   	pop    %rbx
    49aa:	5d                   	pop    %rbp
    49ab:	41 5c                	pop    %r12
    49ad:	41 5d                	pop    %r13
    49af:	41 5e                	pop    %r14
    49b1:	41 5f                	pop    %r15
    49b3:	c3                   	retq   
    49b4:	0f 1f 40 00          	nopl   0x0(%rax)
    49b8:	4c 89 fa             	mov    %r15,%rdx
    49bb:	4c 89 fe             	mov    %r15,%rsi
    49be:	e8 1d 36 00 00       	callq  7fe0 <galois_region_xor>
    49c3:	8b 4c 24 68          	mov    0x68(%rsp),%ecx
    49c7:	66 0f ef c0          	pxor   %xmm0,%xmm0
    49cb:	f2 0f 2a c1          	cvtsi2sd %ecx,%xmm0
    49cf:	f2 0f 58 05 89 c7 00 	addsd  0xc789(%rip),%xmm0        # 11160 <jerasure_total_xor_bytes>
    49d6:	00 
    49d7:	f2 0f 11 05 81 c7 00 	movsd  %xmm0,0xc781(%rip)        # 11160 <jerasure_total_xor_bytes>
    49de:	00 
    49df:	e9 3c fe ff ff       	jmpq   4820 <jerasure_matrix_dotprod+0x90>
    49e4:	0f 1f 40 00          	nopl   0x0(%rax)
    49e8:	48 8b 44 24 60       	mov    0x60(%rsp),%rax
    49ed:	2b 54 24 18          	sub    0x18(%rsp),%edx
    49f1:	48 63 d2             	movslq %edx,%rdx
    49f4:	48 8b 3c d0          	mov    (%rax,%rdx,8),%rdi
    49f8:	e9 56 fe ff ff       	jmpq   4853 <jerasure_matrix_dotprod+0xc3>
    49fd:	0f 1f 00             	nopl   (%rax)
    4a00:	48 8b 44 24 08       	mov    0x8(%rsp),%rax
    4a05:	48 8b 3c d8          	mov    (%rax,%rbx,8),%rdi
    4a09:	e9 cb fe ff ff       	jmpq   48d9 <jerasure_matrix_dotprod+0x149>
    4a0e:	66 90                	xchg   %ax,%ax
    4a10:	41 89 c8             	mov    %ecx,%r8d
    4a13:	48 8b 4c 24 10       	mov    0x10(%rsp),%rcx
    4a18:	44 89 ea             	mov    %r13d,%edx
    4a1b:	e8 a0 2e 00 00       	callq  78c0 <galois_w08_region_multiply>
    4a20:	e9 ce fe ff ff       	jmpq   48f3 <jerasure_matrix_dotprod+0x163>
    4a25:	0f 1f 00             	nopl   (%rax)
    4a28:	41 89 c8             	mov    %ecx,%r8d
    4a2b:	48 8b 4c 24 10       	mov    0x10(%rsp),%rcx
    4a30:	44 89 ea             	mov    %r13d,%edx
    4a33:	e8 38 37 00 00       	callq  8170 <galois_w32_region_multiply>
    4a38:	e9 b6 fe ff ff       	jmpq   48f3 <jerasure_matrix_dotprod+0x163>
    4a3d:	0f 1f 00             	nopl   (%rax)
    4a40:	48 8b 44 24 08       	mov    0x8(%rsp),%rax
    4a45:	48 8b 3c d8          	mov    (%rax,%rbx,8),%rdi
    4a49:	e9 05 fe ff ff       	jmpq   4853 <jerasure_matrix_dotprod+0xc3>
    4a4e:	66 90                	xchg   %ax,%ax

0000000000004a50 <jerasure_matrix_decode>:
    4a50:	f3 0f 1e fa          	endbr64 
    4a54:	41 57                	push   %r15
    4a56:	41 89 d7             	mov    %edx,%r15d
    4a59:	4c 89 ca             	mov    %r9,%rdx
    4a5c:	41 56                	push   %r14
    4a5e:	41 8d 47 f8          	lea    -0x8(%r15),%eax
    4a62:	41 55                	push   %r13
    4a64:	41 54                	push   %r12
    4a66:	55                   	push   %rbp
    4a67:	44 89 c5             	mov    %r8d,%ebp
    4a6a:	53                   	push   %rbx
    4a6b:	89 fb                	mov    %edi,%ebx
    4a6d:	48 83 ec 48          	sub    $0x48,%rsp
    4a71:	83 e0 f7             	and    $0xfffffff7,%eax
    4a74:	89 74 24 38          	mov    %esi,0x38(%rsp)
    4a78:	48 89 4c 24 20       	mov    %rcx,0x20(%rsp)
    4a7d:	74 0a                	je     4a89 <jerasure_matrix_decode+0x39>
    4a7f:	41 83 ff 20          	cmp    $0x20,%r15d
    4a83:	0f 85 29 04 00 00    	jne    4eb2 <jerasure_matrix_decode+0x462>
    4a89:	8b 74 24 38          	mov    0x38(%rsp),%esi
    4a8d:	89 df                	mov    %ebx,%edi
    4a8f:	e8 0c fa ff ff       	callq  44a0 <jerasure_erasures_to_erased>
    4a94:	49 89 c6             	mov    %rax,%r14
    4a97:	48 85 c0             	test   %rax,%rax
    4a9a:	0f 84 12 04 00 00    	je     4eb2 <jerasure_matrix_decode+0x462>
    4aa0:	85 db                	test   %ebx,%ebx
    4aa2:	0f 8e a8 03 00 00    	jle    4e50 <jerasure_matrix_decode+0x400>
    4aa8:	8d 4b ff             	lea    -0x1(%rbx),%ecx
    4aab:	41 89 db             	mov    %ebx,%r11d
    4aae:	31 c0                	xor    %eax,%eax
    4ab0:	45 31 ed             	xor    %r13d,%r13d
    4ab3:	89 4c 24 3c          	mov    %ecx,0x3c(%rsp)
    4ab7:	eb 0a                	jmp    4ac3 <jerasure_matrix_decode+0x73>
    4ab9:	0f 1f 80 00 00 00 00 	nopl   0x0(%rax)
    4ac0:	48 89 d0             	mov    %rdx,%rax
    4ac3:	41 8b 14 86          	mov    (%r14,%rax,4),%edx
    4ac7:	85 d2                	test   %edx,%edx
    4ac9:	74 07                	je     4ad2 <jerasure_matrix_decode+0x82>
    4acb:	41 83 c5 01          	add    $0x1,%r13d
    4acf:	41 89 c3             	mov    %eax,%r11d
    4ad2:	48 8d 50 01          	lea    0x1(%rax),%rdx
    4ad6:	48 39 c1             	cmp    %rax,%rcx
    4ad9:	75 e5                	jne    4ac0 <jerasure_matrix_decode+0x70>
    4adb:	85 ed                	test   %ebp,%ebp
    4add:	0f 84 4d 02 00 00    	je     4d30 <jerasure_matrix_decode+0x2e0>
    4ae3:	48 63 c3             	movslq %ebx,%rax
    4ae6:	41 8b 04 86          	mov    (%r14,%rax,4),%eax
    4aea:	85 c0                	test   %eax,%eax
    4aec:	44 0f 45 db          	cmovne %ebx,%r11d
    4af0:	41 83 fd 01          	cmp    $0x1,%r13d
    4af4:	0f 8f 43 02 00 00    	jg     4d3d <jerasure_matrix_decode+0x2ed>
    4afa:	0f 85 30 03 00 00    	jne    4e30 <jerasure_matrix_decode+0x3e0>
    4b00:	48 63 c3             	movslq %ebx,%rax
    4b03:	48 89 44 24 28       	mov    %rax,0x28(%rsp)
    4b08:	48 8d 3c 85 00 00 00 	lea    0x0(,%rax,4),%rdi
    4b0f:	00 
    4b10:	85 ed                	test   %ebp,%ebp
    4b12:	0f 85 c0 02 00 00    	jne    4dd8 <jerasure_matrix_decode+0x388>
    4b18:	44 89 5c 24 10       	mov    %r11d,0x10(%rsp)
    4b1d:	e8 ce c8 ff ff       	callq  13f0 <malloc@plt>
    4b22:	44 8b 5c 24 10       	mov    0x10(%rsp),%r11d
    4b27:	48 85 c0             	test   %rax,%rax
    4b2a:	48 89 44 24 08       	mov    %rax,0x8(%rsp)
    4b2f:	0f 84 75 03 00 00    	je     4eaa <jerasure_matrix_decode+0x45a>
    4b35:	89 df                	mov    %ebx,%edi
    4b37:	44 89 5c 24 18       	mov    %r11d,0x18(%rsp)
    4b3c:	0f af fb             	imul   %ebx,%edi
    4b3f:	48 63 ff             	movslq %edi,%rdi
    4b42:	48 c1 e7 02          	shl    $0x2,%rdi
    4b46:	e8 a5 c8 ff ff       	callq  13f0 <malloc@plt>
    4b4b:	44 8b 5c 24 18       	mov    0x18(%rsp),%r11d
    4b50:	48 85 c0             	test   %rax,%rax
    4b53:	48 89 44 24 10       	mov    %rax,0x10(%rsp)
    4b58:	0f 84 86 03 00 00    	je     4ee4 <jerasure_matrix_decode+0x494>
    4b5e:	44 89 5c 24 18       	mov    %r11d,0x18(%rsp)
    4b63:	48 83 ec 08          	sub    $0x8,%rsp
    4b67:	4d 89 f0             	mov    %r14,%r8
    4b6a:	44 89 fa             	mov    %r15d,%edx
    4b6d:	ff 74 24 10          	pushq  0x10(%rsp)
    4b71:	4c 8b 4c 24 20       	mov    0x20(%rsp),%r9
    4b76:	89 df                	mov    %ebx,%edi
    4b78:	48 8b 4c 24 30       	mov    0x30(%rsp),%rcx
    4b7d:	8b 74 24 48          	mov    0x48(%rsp),%esi
    4b81:	e8 ea f4 ff ff       	callq  4070 <jerasure_make_decoding_matrix>
    4b86:	41 5b                	pop    %r11
    4b88:	5d                   	pop    %rbp
    4b89:	85 c0                	test   %eax,%eax
    4b8b:	0f 88 2c 03 00 00    	js     4ebd <jerasure_matrix_decode+0x46d>
    4b91:	44 8b 5c 24 18       	mov    0x18(%rsp),%r11d
    4b96:	45 85 db             	test   %r11d,%r11d
    4b99:	0f 8e b9 01 00 00    	jle    4d58 <jerasure_matrix_decode+0x308>
    4b9f:	31 c0                	xor    %eax,%eax
    4ba1:	4c 89 74 24 30       	mov    %r14,0x30(%rsp)
    4ba6:	4d 89 f4             	mov    %r14,%r12
    4ba9:	44 89 fe             	mov    %r15d,%esi
    4bac:	41 89 de             	mov    %ebx,%r14d
    4baf:	45 89 ef             	mov    %r13d,%r15d
    4bb2:	31 ed                	xor    %ebp,%ebp
    4bb4:	89 c3                	mov    %eax,%ebx
    4bb6:	45 89 dd             	mov    %r11d,%r13d
    4bb9:	eb 19                	jmp    4bd4 <jerasure_matrix_decode+0x184>
    4bbb:	0f 1f 44 00 00       	nopl   0x0(%rax,%rax,1)
    4bc0:	83 c5 01             	add    $0x1,%ebp
    4bc3:	49 83 c4 04          	add    $0x4,%r12
    4bc7:	44 01 f3             	add    %r14d,%ebx
    4bca:	45 85 ff             	test   %r15d,%r15d
    4bcd:	7e 61                	jle    4c30 <jerasure_matrix_decode+0x1e0>
    4bcf:	41 39 ed             	cmp    %ebp,%r13d
    4bd2:	7e 5c                	jle    4c30 <jerasure_matrix_decode+0x1e0>
    4bd4:	41 8b 0c 24          	mov    (%r12),%ecx
    4bd8:	85 c9                	test   %ecx,%ecx
    4bda:	74 e4                	je     4bc0 <jerasure_matrix_decode+0x170>
    4bdc:	48 8b 44 24 10       	mov    0x10(%rsp),%rax
    4be1:	48 63 d3             	movslq %ebx,%rdx
    4be4:	41 89 e8             	mov    %ebp,%r8d
    4be7:	44 89 f7             	mov    %r14d,%edi
    4bea:	41 83 ef 01          	sub    $0x1,%r15d
    4bee:	83 c5 01             	add    $0x1,%ebp
    4bf1:	49 83 c4 04          	add    $0x4,%r12
    4bf5:	44 01 f3             	add    %r14d,%ebx
    4bf8:	48 8d 14 90          	lea    (%rax,%rdx,4),%rdx
    4bfc:	8b 84 24 90 00 00 00 	mov    0x90(%rsp),%eax
    4c03:	50                   	push   %rax
    4c04:	ff b4 24 90 00 00 00 	pushq  0x90(%rsp)
    4c0b:	4c 8b 8c 24 90 00 00 	mov    0x90(%rsp),%r9
    4c12:	00 
    4c13:	48 8b 4c 24 18       	mov    0x18(%rsp),%rcx
    4c18:	89 74 24 28          	mov    %esi,0x28(%rsp)
    4c1c:	e8 6f fb ff ff       	callq  4790 <jerasure_matrix_dotprod>
    4c21:	58                   	pop    %rax
    4c22:	5a                   	pop    %rdx
    4c23:	8b 74 24 18          	mov    0x18(%rsp),%esi
    4c27:	45 85 ff             	test   %r15d,%r15d
    4c2a:	7f a3                	jg     4bcf <jerasure_matrix_decode+0x17f>
    4c2c:	0f 1f 40 00          	nopl   0x0(%rax)
    4c30:	45 89 eb             	mov    %r13d,%r11d
    4c33:	45 89 fd             	mov    %r15d,%r13d
    4c36:	44 89 f3             	mov    %r14d,%ebx
    4c39:	41 89 f7             	mov    %esi,%r15d
    4c3c:	4c 8b 74 24 30       	mov    0x30(%rsp),%r14
    4c41:	45 85 ed             	test   %r13d,%r13d
    4c44:	0f 85 0e 01 00 00    	jne    4d58 <jerasure_matrix_decode+0x308>
    4c4a:	8b 7c 24 38          	mov    0x38(%rsp),%edi
    4c4e:	48 63 c3             	movslq %ebx,%rax
    4c51:	48 89 44 24 28       	mov    %rax,0x28(%rsp)
    4c56:	85 ff                	test   %edi,%edi
    4c58:	0f 8e 91 00 00 00    	jle    4cef <jerasure_matrix_decode+0x29f>
    4c5e:	48 8b 44 24 28       	mov    0x28(%rsp),%rax
    4c63:	45 31 ed             	xor    %r13d,%r13d
    4c66:	4c 89 74 24 18       	mov    %r14,0x18(%rsp)
    4c6b:	89 dd                	mov    %ebx,%ebp
    4c6d:	4d 8d 24 86          	lea    (%r14,%rax,4),%r12
    4c71:	8b 44 24 38          	mov    0x38(%rsp),%eax
    4c75:	45 89 ee             	mov    %r13d,%r14d
    4c78:	01 d8                	add    %ebx,%eax
    4c7a:	41 89 c5             	mov    %eax,%r13d
    4c7d:	44 89 f8             	mov    %r15d,%eax
    4c80:	41 89 df             	mov    %ebx,%r15d
    4c83:	89 c3                	mov    %eax,%ebx
    4c85:	eb 18                	jmp    4c9f <jerasure_matrix_decode+0x24f>
    4c87:	66 0f 1f 84 00 00 00 	nopw   0x0(%rax,%rax,1)
    4c8e:	00 00 
    4c90:	83 c5 01             	add    $0x1,%ebp
    4c93:	49 83 c4 04          	add    $0x4,%r12
    4c97:	45 01 fe             	add    %r15d,%r14d
    4c9a:	41 39 ed             	cmp    %ebp,%r13d
    4c9d:	74 4b                	je     4cea <jerasure_matrix_decode+0x29a>
    4c9f:	41 8b 34 24          	mov    (%r12),%esi
    4ca3:	85 f6                	test   %esi,%esi
    4ca5:	74 e9                	je     4c90 <jerasure_matrix_decode+0x240>
    4ca7:	48 8b 44 24 20       	mov    0x20(%rsp),%rax
    4cac:	49 63 d6             	movslq %r14d,%rdx
    4caf:	41 89 e8             	mov    %ebp,%r8d
    4cb2:	31 c9                	xor    %ecx,%ecx
    4cb4:	89 de                	mov    %ebx,%esi
    4cb6:	44 89 ff             	mov    %r15d,%edi
    4cb9:	83 c5 01             	add    $0x1,%ebp
    4cbc:	49 83 c4 04          	add    $0x4,%r12
    4cc0:	48 8d 14 90          	lea    (%rax,%rdx,4),%rdx
    4cc4:	8b 84 24 90 00 00 00 	mov    0x90(%rsp),%eax
    4ccb:	45 01 fe             	add    %r15d,%r14d
    4cce:	50                   	push   %rax
    4ccf:	ff b4 24 90 00 00 00 	pushq  0x90(%rsp)
    4cd6:	4c 8b 8c 24 90 00 00 	mov    0x90(%rsp),%r9
    4cdd:	00 
    4cde:	e8 ad fa ff ff       	callq  4790 <jerasure_matrix_dotprod>
    4ce3:	5a                   	pop    %rdx
    4ce4:	59                   	pop    %rcx
    4ce5:	41 39 ed             	cmp    %ebp,%r13d
    4ce8:	75 b5                	jne    4c9f <jerasure_matrix_decode+0x24f>
    4cea:	4c 8b 74 24 18       	mov    0x18(%rsp),%r14
    4cef:	4c 89 f7             	mov    %r14,%rdi
    4cf2:	e8 79 c5 ff ff       	callq  1270 <free@plt>
    4cf7:	48 83 7c 24 08 00    	cmpq   $0x0,0x8(%rsp)
    4cfd:	74 0a                	je     4d09 <jerasure_matrix_decode+0x2b9>
    4cff:	48 8b 7c 24 08       	mov    0x8(%rsp),%rdi
    4d04:	e8 67 c5 ff ff       	callq  1270 <free@plt>
    4d09:	48 8b 44 24 10       	mov    0x10(%rsp),%rax
    4d0e:	45 31 e4             	xor    %r12d,%r12d
    4d11:	48 85 c0             	test   %rax,%rax
    4d14:	74 08                	je     4d1e <jerasure_matrix_decode+0x2ce>
    4d16:	48 89 c7             	mov    %rax,%rdi
    4d19:	e8 52 c5 ff ff       	callq  1270 <free@plt>
    4d1e:	48 83 c4 48          	add    $0x48,%rsp
    4d22:	44 89 e0             	mov    %r12d,%eax
    4d25:	5b                   	pop    %rbx
    4d26:	5d                   	pop    %rbp
    4d27:	41 5c                	pop    %r12
    4d29:	41 5d                	pop    %r13
    4d2b:	41 5e                	pop    %r14
    4d2d:	41 5f                	pop    %r15
    4d2f:	c3                   	retq   
    4d30:	41 89 db             	mov    %ebx,%r11d
    4d33:	41 83 fd 01          	cmp    $0x1,%r13d
    4d37:	0f 8e bd fd ff ff    	jle    4afa <jerasure_matrix_decode+0xaa>
    4d3d:	48 63 c3             	movslq %ebx,%rax
    4d40:	48 89 44 24 28       	mov    %rax,0x28(%rsp)
    4d45:	48 8d 3c 85 00 00 00 	lea    0x0(,%rax,4),%rdi
    4d4c:	00 
    4d4d:	e9 c6 fd ff ff       	jmpq   4b18 <jerasure_matrix_decode+0xc8>
    4d52:	66 0f 1f 44 00 00    	nopw   0x0(%rax,%rax,1)
    4d58:	48 8b 7c 24 28       	mov    0x28(%rsp),%rdi
    4d5d:	44 89 5c 24 18       	mov    %r11d,0x18(%rsp)
    4d62:	48 c1 e7 02          	shl    $0x2,%rdi
    4d66:	e8 85 c6 ff ff       	callq  13f0 <malloc@plt>
    4d6b:	85 db                	test   %ebx,%ebx
    4d6d:	44 8b 5c 24 18       	mov    0x18(%rsp),%r11d
    4d72:	48 89 c5             	mov    %rax,%rbp
    4d75:	7e 22                	jle    4d99 <jerasure_matrix_decode+0x349>
    4d77:	8b 4c 24 3c          	mov    0x3c(%rsp),%ecx
    4d7b:	31 d2                	xor    %edx,%edx
    4d7d:	eb 04                	jmp    4d83 <jerasure_matrix_decode+0x333>
    4d7f:	90                   	nop
    4d80:	48 89 c2             	mov    %rax,%rdx
    4d83:	8d 42 01             	lea    0x1(%rdx),%eax
    4d86:	41 39 d3             	cmp    %edx,%r11d
    4d89:	0f 4f c2             	cmovg  %edx,%eax
    4d8c:	89 44 95 00          	mov    %eax,0x0(%rbp,%rdx,4)
    4d90:	48 8d 42 01          	lea    0x1(%rdx),%rax
    4d94:	48 39 ca             	cmp    %rcx,%rdx
    4d97:	75 e7                	jne    4d80 <jerasure_matrix_decode+0x330>
    4d99:	8b 84 24 90 00 00 00 	mov    0x90(%rsp),%eax
    4da0:	45 89 d8             	mov    %r11d,%r8d
    4da3:	48 89 e9             	mov    %rbp,%rcx
    4da6:	44 89 fe             	mov    %r15d,%esi
    4da9:	89 df                	mov    %ebx,%edi
    4dab:	50                   	push   %rax
    4dac:	ff b4 24 90 00 00 00 	pushq  0x90(%rsp)
    4db3:	48 8b 54 24 30       	mov    0x30(%rsp),%rdx
    4db8:	4c 8b 8c 24 90 00 00 	mov    0x90(%rsp),%r9
    4dbf:	00 
    4dc0:	e8 cb f9 ff ff       	callq  4790 <jerasure_matrix_dotprod>
    4dc5:	48 89 ef             	mov    %rbp,%rdi
    4dc8:	e8 a3 c4 ff ff       	callq  1270 <free@plt>
    4dcd:	41 5b                	pop    %r11
    4dcf:	5d                   	pop    %rbp
    4dd0:	e9 75 fe ff ff       	jmpq   4c4a <jerasure_matrix_decode+0x1fa>
    4dd5:	0f 1f 00             	nopl   (%rax)
    4dd8:	45 8b 24 86          	mov    (%r14,%rax,4),%r12d
    4ddc:	45 85 e4             	test   %r12d,%r12d
    4ddf:	0f 85 33 fd ff ff    	jne    4b18 <jerasure_matrix_decode+0xc8>
    4de5:	48 c7 44 24 08 00 00 	movq   $0x0,0x8(%rsp)
    4dec:	00 00 
    4dee:	48 c7 44 24 10 00 00 	movq   $0x0,0x10(%rsp)
    4df5:	00 00 
    4df7:	45 85 db             	test   %r11d,%r11d
    4dfa:	0f 85 9f fd ff ff    	jne    4b9f <jerasure_matrix_decode+0x14f>
    4e00:	44 89 5c 24 18       	mov    %r11d,0x18(%rsp)
    4e05:	e8 e6 c5 ff ff       	callq  13f0 <malloc@plt>
    4e0a:	44 8b 5c 24 18       	mov    0x18(%rsp),%r11d
    4e0f:	48 89 c5             	mov    %rax,%rbp
    4e12:	e9 60 ff ff ff       	jmpq   4d77 <jerasure_matrix_decode+0x327>
    4e17:	48 63 c3             	movslq %ebx,%rax
    4e1a:	48 89 44 24 28       	mov    %rax,0x28(%rsp)
    4e1f:	41 8b 04 86          	mov    (%r14,%rax,4),%eax
    4e23:	85 c0                	test   %eax,%eax
    4e25:	74 55                	je     4e7c <jerasure_matrix_decode+0x42c>
    4e27:	66 0f 1f 84 00 00 00 	nopw   0x0(%rax,%rax,1)
    4e2e:	00 00 
    4e30:	48 c7 44 24 08 00 00 	movq   $0x0,0x8(%rsp)
    4e37:	00 00 
    4e39:	48 c7 44 24 10 00 00 	movq   $0x0,0x10(%rsp)
    4e40:	00 00 
    4e42:	e9 03 fe ff ff       	jmpq   4c4a <jerasure_matrix_decode+0x1fa>
    4e47:	66 0f 1f 84 00 00 00 	nopw   0x0(%rax,%rax,1)
    4e4e:	00 00 
    4e50:	85 ed                	test   %ebp,%ebp
    4e52:	75 c3                	jne    4e17 <jerasure_matrix_decode+0x3c7>
    4e54:	48 c7 44 24 08 00 00 	movq   $0x0,0x8(%rsp)
    4e5b:	00 00 
    4e5d:	8b 7c 24 38          	mov    0x38(%rsp),%edi
    4e61:	48 63 c3             	movslq %ebx,%rax
    4e64:	48 c7 44 24 10 00 00 	movq   $0x0,0x10(%rsp)
    4e6b:	00 00 
    4e6d:	48 89 44 24 28       	mov    %rax,0x28(%rsp)
    4e72:	85 ff                	test   %edi,%edi
    4e74:	0f 8f e4 fd ff ff    	jg     4c5e <jerasure_matrix_decode+0x20e>
    4e7a:	eb 1e                	jmp    4e9a <jerasure_matrix_decode+0x44a>
    4e7c:	48 c7 44 24 08 00 00 	movq   $0x0,0x8(%rsp)
    4e83:	00 00 
    4e85:	8b 74 24 38          	mov    0x38(%rsp),%esi
    4e89:	48 c7 44 24 10 00 00 	movq   $0x0,0x10(%rsp)
    4e90:	00 00 
    4e92:	85 f6                	test   %esi,%esi
    4e94:	0f 8f c4 fd ff ff    	jg     4c5e <jerasure_matrix_decode+0x20e>
    4e9a:	4c 89 f7             	mov    %r14,%rdi
    4e9d:	45 31 e4             	xor    %r12d,%r12d
    4ea0:	e8 cb c3 ff ff       	callq  1270 <free@plt>
    4ea5:	e9 74 fe ff ff       	jmpq   4d1e <jerasure_matrix_decode+0x2ce>
    4eaa:	4c 89 f7             	mov    %r14,%rdi
    4ead:	e8 be c3 ff ff       	callq  1270 <free@plt>
    4eb2:	41 bc ff ff ff ff    	mov    $0xffffffff,%r12d
    4eb8:	e9 61 fe ff ff       	jmpq   4d1e <jerasure_matrix_decode+0x2ce>
    4ebd:	4c 89 f7             	mov    %r14,%rdi
    4ec0:	41 bc ff ff ff ff    	mov    $0xffffffff,%r12d
    4ec6:	e8 a5 c3 ff ff       	callq  1270 <free@plt>
    4ecb:	48 8b 7c 24 08       	mov    0x8(%rsp),%rdi
    4ed0:	e8 9b c3 ff ff       	callq  1270 <free@plt>
    4ed5:	48 8b 7c 24 10       	mov    0x10(%rsp),%rdi
    4eda:	e8 91 c3 ff ff       	callq  1270 <free@plt>
    4edf:	e9 3a fe ff ff       	jmpq   4d1e <jerasure_matrix_decode+0x2ce>
    4ee4:	4c 89 f7             	mov    %r14,%rdi
    4ee7:	41 83 cc ff          	or     $0xffffffff,%r12d
    4eeb:	e8 80 c3 ff ff       	callq  1270 <free@plt>
    4ef0:	48 8b 7c 24 08       	mov    0x8(%rsp),%rdi
    4ef5:	e8 76 c3 ff ff       	callq  1270 <free@plt>
    4efa:	e9 1f fe ff ff       	jmpq   4d1e <jerasure_matrix_decode+0x2ce>
    4eff:	90                   	nop

0000000000004f00 <jerasure_matrix_encode>:
    4f00:	f3 0f 1e fa          	endbr64 
    4f04:	41 57                	push   %r15
    4f06:	8d 42 f8             	lea    -0x8(%rdx),%eax
    4f09:	41 89 ff             	mov    %edi,%r15d
    4f0c:	41 56                	push   %r14
    4f0e:	4d 89 ce             	mov    %r9,%r14
    4f11:	41 55                	push   %r13
    4f13:	4d 89 c5             	mov    %r8,%r13
    4f16:	41 54                	push   %r12
    4f18:	55                   	push   %rbp
    4f19:	89 d5                	mov    %edx,%ebp
    4f1b:	53                   	push   %rbx
    4f1c:	48 83 ec 18          	sub    $0x18,%rsp
    4f20:	83 e0 f7             	and    $0xfffffff7,%eax
    4f23:	74 05                	je     4f2a <jerasure_matrix_encode+0x2a>
    4f25:	83 fa 20             	cmp    $0x20,%edx
    4f28:	75 63                	jne    4f8d <jerasure_matrix_encode+0x8d>
    4f2a:	85 f6                	test   %esi,%esi
    4f2c:	7e 50                	jle    4f7e <jerasure_matrix_encode+0x7e>
    4f2e:	4d 63 e7             	movslq %r15d,%r12
    4f31:	48 89 cb             	mov    %rcx,%rbx
    4f34:	4a 8d 04 a5 00 00 00 	lea    0x0(,%r12,4),%rax
    4f3b:	00 
    4f3c:	45 89 fc             	mov    %r15d,%r12d
    4f3f:	48 89 04 24          	mov    %rax,(%rsp)
    4f43:	42 8d 04 3e          	lea    (%rsi,%r15,1),%eax
    4f47:	89 44 24 0c          	mov    %eax,0xc(%rsp)
    4f4b:	0f 1f 44 00 00       	nopl   0x0(%rax,%rax,1)
    4f50:	8b 44 24 50          	mov    0x50(%rsp),%eax
    4f54:	48 89 da             	mov    %rbx,%rdx
    4f57:	45 89 e0             	mov    %r12d,%r8d
    4f5a:	4d 89 e9             	mov    %r13,%r9
    4f5d:	31 c9                	xor    %ecx,%ecx
    4f5f:	89 ee                	mov    %ebp,%esi
    4f61:	44 89 ff             	mov    %r15d,%edi
    4f64:	41 83 c4 01          	add    $0x1,%r12d
    4f68:	50                   	push   %rax
    4f69:	41 56                	push   %r14
    4f6b:	e8 20 f8 ff ff       	callq  4790 <jerasure_matrix_dotprod>
    4f70:	48 03 5c 24 10       	add    0x10(%rsp),%rbx
    4f75:	58                   	pop    %rax
    4f76:	5a                   	pop    %rdx
    4f77:	44 3b 64 24 0c       	cmp    0xc(%rsp),%r12d
    4f7c:	75 d2                	jne    4f50 <jerasure_matrix_encode+0x50>
    4f7e:	48 83 c4 18          	add    $0x18,%rsp
    4f82:	5b                   	pop    %rbx
    4f83:	5d                   	pop    %rbp
    4f84:	41 5c                	pop    %r12
    4f86:	41 5d                	pop    %r13
    4f88:	41 5e                	pop    %r14
    4f8a:	41 5f                	pop    %r15
    4f8c:	c3                   	retq   
    4f8d:	48 8b 0d ac c1 00 00 	mov    0xc1ac(%rip),%rcx        # 11140 <stderr@@GLIBC_2.2.5>
    4f94:	ba 39 00 00 00       	mov    $0x39,%edx
    4f99:	be 01 00 00 00       	mov    $0x1,%esi
    4f9e:	48 8d 3d 03 58 00 00 	lea    0x5803(%rip),%rdi        # a7a8 <__PRETTY_FUNCTION__.5230+0xd7>
    4fa5:	e8 b6 c4 ff ff       	callq  1460 <fwrite@plt>
    4faa:	bf 01 00 00 00       	mov    $0x1,%edi
    4faf:	e8 9c c4 ff ff       	callq  1450 <exit@plt>
    4fb4:	66 66 2e 0f 1f 84 00 	data16 nopw %cs:0x0(%rax,%rax,1)
    4fbb:	00 00 00 00 
    4fbf:	90                   	nop

0000000000004fc0 <jerasure_invert_bitmatrix>:
    4fc0:	f3 0f 1e fa          	endbr64 
    4fc4:	41 57                	push   %r15
    4fc6:	41 56                	push   %r14
    4fc8:	41 55                	push   %r13
    4fca:	41 54                	push   %r12
    4fcc:	55                   	push   %rbp
    4fcd:	53                   	push   %rbx
    4fce:	48 89 74 24 c0       	mov    %rsi,-0x40(%rsp)
    4fd3:	8d 72 ff             	lea    -0x1(%rdx),%esi
    4fd6:	48 89 7c 24 b8       	mov    %rdi,-0x48(%rsp)
    4fdb:	89 54 24 e0          	mov    %edx,-0x20(%rsp)
    4fdf:	89 74 24 f4          	mov    %esi,-0xc(%rsp)
    4fe3:	85 d2                	test   %edx,%edx
    4fe5:	0f 8e ef 02 00 00    	jle    52da <jerasure_invert_bitmatrix+0x31a>
    4feb:	48 8b 6c 24 c0       	mov    -0x40(%rsp),%rbp
    4ff0:	44 8b 5c 24 e0       	mov    -0x20(%rsp),%r11d
    4ff5:	31 ff                	xor    %edi,%edi
    4ff7:	31 db                	xor    %ebx,%ebx
    4ff9:	0f 1f 80 00 00 00 00 	nopl   0x0(%rax)
    5000:	48 63 c7             	movslq %edi,%rax
    5003:	48 8d 4c 85 00       	lea    0x0(%rbp,%rax,4),%rcx
    5008:	31 c0                	xor    %eax,%eax
    500a:	66 0f 1f 44 00 00    	nopw   0x0(%rax,%rax,1)
    5010:	31 d2                	xor    %edx,%edx
    5012:	39 c3                	cmp    %eax,%ebx
    5014:	0f 94 c2             	sete   %dl
    5017:	89 14 81             	mov    %edx,(%rcx,%rax,4)
    501a:	48 89 c2             	mov    %rax,%rdx
    501d:	48 83 c0 01          	add    $0x1,%rax
    5021:	48 39 f2             	cmp    %rsi,%rdx
    5024:	75 ea                	jne    5010 <jerasure_invert_bitmatrix+0x50>
    5026:	8d 43 01             	lea    0x1(%rbx),%eax
    5029:	44 01 df             	add    %r11d,%edi
    502c:	41 39 c3             	cmp    %eax,%r11d
    502f:	74 04                	je     5035 <jerasure_invert_bitmatrix+0x75>
    5031:	89 c3                	mov    %eax,%ebx
    5033:	eb cb                	jmp    5000 <jerasure_invert_bitmatrix+0x40>
    5035:	4c 63 64 24 e0       	movslq -0x20(%rsp),%r12
    503a:	89 44 24 f0          	mov    %eax,-0x10(%rsp)
    503e:	89 de                	mov    %ebx,%esi
    5040:	45 31 f6             	xor    %r14d,%r14d
    5043:	48 89 74 24 d0       	mov    %rsi,-0x30(%rsp)
    5048:	45 8d 5e 01          	lea    0x1(%r14),%r11d
    504c:	4a 8d 04 a5 04 00 00 	lea    0x4(,%r12,4),%rax
    5053:	00 
    5054:	c7 44 24 e4 00 00 00 	movl   $0x0,-0x1c(%rsp)
    505b:	00 
    505c:	4a 8d 2c a5 00 00 00 	lea    0x0(,%r12,4),%rbp
    5063:	00 
    5064:	48 89 44 24 e8       	mov    %rax,-0x18(%rsp)
    5069:	48 8b 44 24 b8       	mov    -0x48(%rsp),%rax
    506e:	48 8d 48 04          	lea    0x4(%rax),%rcx
    5072:	48 89 44 24 c8       	mov    %rax,-0x38(%rsp)
    5077:	49 89 c5             	mov    %rax,%r13
    507a:	48 8b 44 24 c8       	mov    -0x38(%rsp),%rax
    507f:	4c 8d 3c b1          	lea    (%rcx,%rsi,4),%r15
    5083:	48 89 4c 24 f8       	mov    %rcx,-0x8(%rsp)
    5088:	31 f6                	xor    %esi,%esi
    508a:	8b 38                	mov    (%rax),%edi
    508c:	85 ff                	test   %edi,%edi
    508e:	0f 84 d4 00 00 00    	je     5168 <jerasure_invert_bitmatrix+0x1a8>
    5094:	0f 1f 40 00          	nopl   0x0(%rax)
    5098:	4c 3b 74 24 d0       	cmp    -0x30(%rsp),%r14
    509d:	0f 84 66 01 00 00    	je     5209 <jerasure_invert_bitmatrix+0x249>
    50a3:	8b 4c 24 e0          	mov    -0x20(%rsp),%ecx
    50a7:	49 8d 04 34          	lea    (%r12,%rsi,1),%rax
    50ab:	01 4c 24 e4          	add    %ecx,-0x1c(%rsp)
    50af:	49 01 ef             	add    %rbp,%r15
    50b2:	4c 89 e1             	mov    %r12,%rcx
    50b5:	48 8d 7c b5 00       	lea    0x0(%rbp,%rsi,4),%rdi
    50ba:	48 89 44 24 d8       	mov    %rax,-0x28(%rsp)
    50bf:	4c 89 fe             	mov    %r15,%rsi
    50c2:	48 f7 d9             	neg    %rcx
    50c5:	eb 1e                	jmp    50e5 <jerasure_invert_bitmatrix+0x125>
    50c7:	66 0f 1f 84 00 00 00 	nopw   0x0(%rax,%rax,1)
    50ce:	00 00 
    50d0:	41 8d 43 01          	lea    0x1(%r11),%eax
    50d4:	4c 29 e1             	sub    %r12,%rcx
    50d7:	48 01 ee             	add    %rbp,%rsi
    50da:	48 01 ef             	add    %rbp,%rdi
    50dd:	41 39 db             	cmp    %ebx,%r11d
    50e0:	74 4e                	je     5130 <jerasure_invert_bitmatrix+0x170>
    50e2:	41 89 c3             	mov    %eax,%r11d
    50e5:	41 8b 54 3d 00       	mov    0x0(%r13,%rdi,1),%edx
    50ea:	85 d2                	test   %edx,%edx
    50ec:	74 e2                	je     50d0 <jerasure_invert_bitmatrix+0x110>
    50ee:	48 8b 44 24 b8       	mov    -0x48(%rsp),%rax
    50f3:	48 8b 54 24 c0       	mov    -0x40(%rsp),%rdx
    50f8:	48 89 7c 24 b0       	mov    %rdi,-0x50(%rsp)
    50fd:	48 01 f8             	add    %rdi,%rax
    5100:	48 01 fa             	add    %rdi,%rdx
    5103:	0f 1f 44 00 00       	nopl   0x0(%rax,%rax,1)
    5108:	8b 3c 88             	mov    (%rax,%rcx,4),%edi
    510b:	31 38                	xor    %edi,(%rax)
    510d:	48 83 c0 04          	add    $0x4,%rax
    5111:	8b 3c 8a             	mov    (%rdx,%rcx,4),%edi
    5114:	31 3a                	xor    %edi,(%rdx)
    5116:	48 83 c2 04          	add    $0x4,%rdx
    511a:	48 39 f0             	cmp    %rsi,%rax
    511d:	75 e9                	jne    5108 <jerasure_invert_bitmatrix+0x148>
    511f:	48 8b 7c 24 b0       	mov    -0x50(%rsp),%rdi
    5124:	eb aa                	jmp    50d0 <jerasure_invert_bitmatrix+0x110>
    5126:	66 2e 0f 1f 84 00 00 	nopw   %cs:0x0(%rax,%rax,1)
    512d:	00 00 00 
    5130:	48 8b 4c 24 e8       	mov    -0x18(%rsp),%rcx
    5135:	49 8d 46 01          	lea    0x1(%r14),%rax
    5139:	48 01 4c 24 c8       	add    %rcx,-0x38(%rsp)
    513e:	49 83 c5 04          	add    $0x4,%r13
    5142:	4c 3b 74 24 d0       	cmp    -0x30(%rsp),%r14
    5147:	0f 84 bc 00 00 00    	je     5209 <jerasure_invert_bitmatrix+0x249>
    514d:	49 89 c6             	mov    %rax,%r14
    5150:	48 8b 44 24 c8       	mov    -0x38(%rsp),%rax
    5155:	48 8b 74 24 d8       	mov    -0x28(%rsp),%rsi
    515a:	45 8d 5e 01          	lea    0x1(%r14),%r11d
    515e:	8b 38                	mov    (%rax),%edi
    5160:	85 ff                	test   %edi,%edi
    5162:	0f 85 30 ff ff ff    	jne    5098 <jerasure_invert_bitmatrix+0xd8>
    5168:	44 39 5c 24 f0       	cmp    %r11d,-0x10(%rsp)
    516d:	0f 8e 74 01 00 00    	jle    52e7 <jerasure_invert_bitmatrix+0x327>
    5173:	8b 44 24 e4          	mov    -0x1c(%rsp),%eax
    5177:	03 44 24 e0          	add    -0x20(%rsp),%eax
    517b:	48 8b 4c 24 b8       	mov    -0x48(%rsp),%rcx
    5180:	48 98                	cltq   
    5182:	4c 01 f0             	add    %r14,%rax
    5185:	48 8d 14 81          	lea    (%rcx,%rax,4),%rdx
    5189:	44 89 d8             	mov    %r11d,%eax
    518c:	eb 12                	jmp    51a0 <jerasure_invert_bitmatrix+0x1e0>
    518e:	66 90                	xchg   %ax,%ax
    5190:	8d 48 01             	lea    0x1(%rax),%ecx
    5193:	48 01 ea             	add    %rbp,%rdx
    5196:	39 d8                	cmp    %ebx,%eax
    5198:	0f 84 08 01 00 00    	je     52a6 <jerasure_invert_bitmatrix+0x2e6>
    519e:	89 c8                	mov    %ecx,%eax
    51a0:	8b 0a                	mov    (%rdx),%ecx
    51a2:	85 c9                	test   %ecx,%ecx
    51a4:	74 ea                	je     5190 <jerasure_invert_bitmatrix+0x1d0>
    51a6:	8b 4c 24 f0          	mov    -0x10(%rsp),%ecx
    51aa:	39 c1                	cmp    %eax,%ecx
    51ac:	0f 84 f4 00 00 00    	je     52a6 <jerasure_invert_bitmatrix+0x2e6>
    51b2:	0f af c1             	imul   %ecx,%eax
    51b5:	48 8b 54 24 b8       	mov    -0x48(%rsp),%rdx
    51ba:	48 89 74 24 b0       	mov    %rsi,-0x50(%rsp)
    51bf:	48 8d 0c b5 00 00 00 	lea    0x0(,%rsi,4),%rcx
    51c6:	00 
    51c7:	48 01 ca             	add    %rcx,%rdx
    51ca:	48 03 4c 24 c0       	add    -0x40(%rsp),%rcx
    51cf:	48 98                	cltq   
    51d1:	48 29 f0             	sub    %rsi,%rax
    51d4:	0f 1f 40 00          	nopl   0x0(%rax)
    51d8:	8b 3a                	mov    (%rdx),%edi
    51da:	8b 34 82             	mov    (%rdx,%rax,4),%esi
    51dd:	89 32                	mov    %esi,(%rdx)
    51df:	89 3c 82             	mov    %edi,(%rdx,%rax,4)
    51e2:	8b 39                	mov    (%rcx),%edi
    51e4:	48 83 c2 04          	add    $0x4,%rdx
    51e8:	8b 34 81             	mov    (%rcx,%rax,4),%esi
    51eb:	89 31                	mov    %esi,(%rcx)
    51ed:	89 3c 81             	mov    %edi,(%rcx,%rax,4)
    51f0:	48 83 c1 04          	add    $0x4,%rcx
    51f4:	4c 39 fa             	cmp    %r15,%rdx
    51f7:	75 df                	jne    51d8 <jerasure_invert_bitmatrix+0x218>
    51f9:	48 8b 74 24 b0       	mov    -0x50(%rsp),%rsi
    51fe:	4c 3b 74 24 d0       	cmp    -0x30(%rsp),%r14
    5203:	0f 85 9a fe ff ff    	jne    50a3 <jerasure_invert_bitmatrix+0xe3>
    5209:	48 8b 74 24 b8       	mov    -0x48(%rsp),%rsi
    520e:	48 63 c3             	movslq %ebx,%rax
    5211:	44 8b 74 24 e0       	mov    -0x20(%rsp),%r14d
    5216:	4a 8d 2c a5 00 00 00 	lea    0x0(,%r12,4),%rbp
    521d:	00 
    521e:	44 0f af f3          	imul   %ebx,%r14d
    5222:	4c 8d 2c 86          	lea    (%rsi,%rax,4),%r13
    5226:	8b 44 24 f4          	mov    -0xc(%rsp),%eax
    522a:	48 8b 74 24 f8       	mov    -0x8(%rsp),%rsi
    522f:	4c 8d 3c 86          	lea    (%rsi,%rax,4),%r15
    5233:	4c 89 7c 24 c8       	mov    %r15,-0x38(%rsp)
    5238:	4c 8b 7c 24 c0       	mov    -0x40(%rsp),%r15
    523d:	85 db                	test   %ebx,%ebx
    523f:	0f 8e 90 00 00 00    	jle    52d5 <jerasure_invert_bitmatrix+0x315>
    5245:	48 8b 74 24 c8       	mov    -0x38(%rsp),%rsi
    524a:	49 63 ce             	movslq %r14d,%rcx
    524d:	31 ff                	xor    %edi,%edi
    524f:	45 31 db             	xor    %r11d,%r11d
    5252:	eb 16                	jmp    526a <jerasure_invert_bitmatrix+0x2aa>
    5254:	0f 1f 40 00          	nopl   0x0(%rax)
    5258:	41 83 c3 01          	add    $0x1,%r11d
    525c:	4c 29 e1             	sub    %r12,%rcx
    525f:	48 01 ee             	add    %rbp,%rsi
    5262:	48 01 ef             	add    %rbp,%rdi
    5265:	41 39 db             	cmp    %ebx,%r11d
    5268:	74 56                	je     52c0 <jerasure_invert_bitmatrix+0x300>
    526a:	41 8b 44 3d 00       	mov    0x0(%r13,%rdi,1),%eax
    526f:	85 c0                	test   %eax,%eax
    5271:	74 e5                	je     5258 <jerasure_invert_bitmatrix+0x298>
    5273:	48 8b 44 24 b8       	mov    -0x48(%rsp),%rax
    5278:	48 89 7c 24 b0       	mov    %rdi,-0x50(%rsp)
    527d:	49 8d 14 3f          	lea    (%r15,%rdi,1),%rdx
    5281:	48 01 f8             	add    %rdi,%rax
    5284:	0f 1f 40 00          	nopl   0x0(%rax)
    5288:	8b 3c 88             	mov    (%rax,%rcx,4),%edi
    528b:	31 38                	xor    %edi,(%rax)
    528d:	48 83 c0 04          	add    $0x4,%rax
    5291:	8b 3c 8a             	mov    (%rdx,%rcx,4),%edi
    5294:	31 3a                	xor    %edi,(%rdx)
    5296:	48 83 c2 04          	add    $0x4,%rdx
    529a:	48 39 c6             	cmp    %rax,%rsi
    529d:	75 e9                	jne    5288 <jerasure_invert_bitmatrix+0x2c8>
    529f:	48 8b 7c 24 b0       	mov    -0x50(%rsp),%rdi
    52a4:	eb b2                	jmp    5258 <jerasure_invert_bitmatrix+0x298>
    52a6:	5b                   	pop    %rbx
    52a7:	b8 ff ff ff ff       	mov    $0xffffffff,%eax
    52ac:	5d                   	pop    %rbp
    52ad:	41 5c                	pop    %r12
    52af:	41 5d                	pop    %r13
    52b1:	41 5e                	pop    %r14
    52b3:	41 5f                	pop    %r15
    52b5:	c3                   	retq   
    52b6:	66 2e 0f 1f 84 00 00 	nopw   %cs:0x0(%rax,%rax,1)
    52bd:	00 00 00 
    52c0:	41 8d 5b ff          	lea    -0x1(%r11),%ebx
    52c4:	49 83 ed 04          	sub    $0x4,%r13
    52c8:	44 2b 74 24 e0       	sub    -0x20(%rsp),%r14d
    52cd:	85 db                	test   %ebx,%ebx
    52cf:	0f 8f 70 ff ff ff    	jg     5245 <jerasure_invert_bitmatrix+0x285>
    52d5:	83 eb 01             	sub    $0x1,%ebx
    52d8:	79 ea                	jns    52c4 <jerasure_invert_bitmatrix+0x304>
    52da:	5b                   	pop    %rbx
    52db:	31 c0                	xor    %eax,%eax
    52dd:	5d                   	pop    %rbp
    52de:	41 5c                	pop    %r12
    52e0:	41 5d                	pop    %r13
    52e2:	41 5e                	pop    %r14
    52e4:	41 5f                	pop    %r15
    52e6:	c3                   	retq   
    52e7:	44 89 d8             	mov    %r11d,%eax
    52ea:	e9 b7 fe ff ff       	jmpq   51a6 <jerasure_invert_bitmatrix+0x1e6>
    52ef:	90                   	nop

00000000000052f0 <jerasure_make_decoding_bitmatrix>:
    52f0:	f3 0f 1e fa          	endbr64 
    52f4:	89 f8                	mov    %edi,%eax
    52f6:	41 57                	push   %r15
    52f8:	0f af c2             	imul   %edx,%eax
    52fb:	41 56                	push   %r14
    52fd:	41 55                	push   %r13
    52ff:	41 54                	push   %r12
    5301:	0f af c0             	imul   %eax,%eax
    5304:	55                   	push   %rbp
    5305:	89 fd                	mov    %edi,%ebp
    5307:	53                   	push   %rbx
    5308:	89 d3                	mov    %edx,%ebx
    530a:	48 63 f8             	movslq %eax,%rdi
    530d:	48 83 ec 38          	sub    $0x38,%rsp
    5311:	48 c1 e7 02          	shl    $0x2,%rdi
    5315:	48 89 4c 24 20       	mov    %rcx,0x20(%rsp)
    531a:	4c 8b 64 24 70       	mov    0x70(%rsp),%r12
    531f:	4c 89 4c 24 28       	mov    %r9,0x28(%rsp)
    5324:	85 ed                	test   %ebp,%ebp
    5326:	0f 8e 5c 01 00 00    	jle    5488 <jerasure_make_decoding_bitmatrix+0x198>
    532c:	4c 89 c1             	mov    %r8,%rcx
    532f:	31 c0                	xor    %eax,%eax
    5331:	31 d2                	xor    %edx,%edx
    5333:	0f 1f 44 00 00       	nopl   0x0(%rax,%rax,1)
    5338:	8b 34 81             	mov    (%rcx,%rax,4),%esi
    533b:	85 f6                	test   %esi,%esi
    533d:	75 0a                	jne    5349 <jerasure_make_decoding_bitmatrix+0x59>
    533f:	48 63 f2             	movslq %edx,%rsi
    5342:	83 c2 01             	add    $0x1,%edx
    5345:	41 89 04 b4          	mov    %eax,(%r12,%rsi,4)
    5349:	48 83 c0 01          	add    $0x1,%rax
    534d:	39 ea                	cmp    %ebp,%edx
    534f:	7c e7                	jl     5338 <jerasure_make_decoding_bitmatrix+0x48>
    5351:	e8 9a c0 ff ff       	callq  13f0 <malloc@plt>
    5356:	48 89 44 24 18       	mov    %rax,0x18(%rsp)
    535b:	48 85 c0             	test   %rax,%rax
    535e:	0f 84 33 01 00 00    	je     5497 <jerasure_make_decoding_bitmatrix+0x1a7>
    5364:	89 d8                	mov    %ebx,%eax
    5366:	41 89 df             	mov    %ebx,%r15d
    5369:	48 8b 7c 24 18       	mov    0x18(%rsp),%rdi
    536e:	4d 89 e3             	mov    %r12,%r11
    5371:	0f af c5             	imul   %ebp,%eax
    5374:	45 31 f6             	xor    %r14d,%r14d
    5377:	44 0f af f8          	imul   %eax,%r15d
    537b:	49 63 d7             	movslq %r15d,%rdx
    537e:	45 8d 6f ff          	lea    -0x1(%r15),%r13d
    5382:	48 8d 34 95 00 00 00 	lea    0x0(,%rdx,4),%rsi
    5389:	00 
    538a:	8d 55 ff             	lea    -0x1(%rbp),%edx
    538d:	49 8d 54 94 04       	lea    0x4(%r12,%rdx,4),%rdx
    5392:	48 89 74 24 08       	mov    %rsi,0x8(%rsp)
    5397:	48 89 fe             	mov    %rdi,%rsi
    539a:	4a 8d 7c af 04       	lea    0x4(%rdi,%r13,4),%rdi
    539f:	48 89 54 24 10       	mov    %rdx,0x10(%rsp)
    53a4:	8d 50 01             	lea    0x1(%rax),%edx
    53a7:	48 63 d2             	movslq %edx,%rdx
    53aa:	48 c1 e2 02          	shl    $0x2,%rdx
    53ae:	66 90                	xchg   %ax,%ax
    53b0:	41 8b 0b             	mov    (%r11),%ecx
    53b3:	39 e9                	cmp    %ebp,%ecx
    53b5:	0f 8d 95 00 00 00    	jge    5450 <jerasure_make_decoding_bitmatrix+0x160>
    53bb:	48 89 f0             	mov    %rsi,%rax
    53be:	45 85 ff             	test   %r15d,%r15d
    53c1:	7e 14                	jle    53d7 <jerasure_make_decoding_bitmatrix+0xe7>
    53c3:	0f 1f 44 00 00       	nopl   0x0(%rax,%rax,1)
    53c8:	c7 00 00 00 00 00    	movl   $0x0,(%rax)
    53ce:	48 83 c0 04          	add    $0x4,%rax
    53d2:	48 39 c7             	cmp    %rax,%rdi
    53d5:	75 f1                	jne    53c8 <jerasure_make_decoding_bitmatrix+0xd8>
    53d7:	0f af cb             	imul   %ebx,%ecx
    53da:	44 01 f1             	add    %r14d,%ecx
    53dd:	85 db                	test   %ebx,%ebx
    53df:	7e 1f                	jle    5400 <jerasure_make_decoding_bitmatrix+0x110>
    53e1:	48 8b 44 24 18       	mov    0x18(%rsp),%rax
    53e6:	48 63 c9             	movslq %ecx,%rcx
    53e9:	48 8d 0c 88          	lea    (%rax,%rcx,4),%rcx
    53ed:	31 c0                	xor    %eax,%eax
    53ef:	90                   	nop
    53f0:	83 c0 01             	add    $0x1,%eax
    53f3:	c7 01 01 00 00 00    	movl   $0x1,(%rcx)
    53f9:	48 01 d1             	add    %rdx,%rcx
    53fc:	39 c3                	cmp    %eax,%ebx
    53fe:	75 f0                	jne    53f0 <jerasure_make_decoding_bitmatrix+0x100>
    5400:	48 8b 44 24 08       	mov    0x8(%rsp),%rax
    5405:	49 83 c3 04          	add    $0x4,%r11
    5409:	45 01 fe             	add    %r15d,%r14d
    540c:	48 01 c6             	add    %rax,%rsi
    540f:	48 01 c7             	add    %rax,%rdi
    5412:	4c 39 5c 24 10       	cmp    %r11,0x10(%rsp)
    5417:	75 97                	jne    53b0 <jerasure_make_decoding_bitmatrix+0xc0>
    5419:	89 ea                	mov    %ebp,%edx
    541b:	48 8b 74 24 28       	mov    0x28(%rsp),%rsi
    5420:	0f af d3             	imul   %ebx,%edx
    5423:	48 8b 5c 24 18       	mov    0x18(%rsp),%rbx
    5428:	48 89 df             	mov    %rbx,%rdi
    542b:	e8 90 fb ff ff       	callq  4fc0 <jerasure_invert_bitmatrix>
    5430:	48 89 df             	mov    %rbx,%rdi
    5433:	41 89 c4             	mov    %eax,%r12d
    5436:	e8 35 be ff ff       	callq  1270 <free@plt>
    543b:	48 83 c4 38          	add    $0x38,%rsp
    543f:	44 89 e0             	mov    %r12d,%eax
    5442:	5b                   	pop    %rbx
    5443:	5d                   	pop    %rbp
    5444:	41 5c                	pop    %r12
    5446:	41 5d                	pop    %r13
    5448:	41 5e                	pop    %r14
    544a:	41 5f                	pop    %r15
    544c:	c3                   	retq   
    544d:	0f 1f 00             	nopl   (%rax)
    5450:	29 e9                	sub    %ebp,%ecx
    5452:	0f af cd             	imul   %ebp,%ecx
    5455:	0f af cb             	imul   %ebx,%ecx
    5458:	0f af cb             	imul   %ebx,%ecx
    545b:	45 85 ff             	test   %r15d,%r15d
    545e:	7e a0                	jle    5400 <jerasure_make_decoding_bitmatrix+0x110>
    5460:	48 8b 44 24 20       	mov    0x20(%rsp),%rax
    5465:	48 63 c9             	movslq %ecx,%rcx
    5468:	4c 8d 24 88          	lea    (%rax,%rcx,4),%r12
    546c:	31 c0                	xor    %eax,%eax
    546e:	66 90                	xchg   %ax,%ax
    5470:	41 8b 0c 84          	mov    (%r12,%rax,4),%ecx
    5474:	89 0c 86             	mov    %ecx,(%rsi,%rax,4)
    5477:	48 89 c1             	mov    %rax,%rcx
    547a:	48 83 c0 01          	add    $0x1,%rax
    547e:	4c 39 e9             	cmp    %r13,%rcx
    5481:	75 ed                	jne    5470 <jerasure_make_decoding_bitmatrix+0x180>
    5483:	e9 78 ff ff ff       	jmpq   5400 <jerasure_make_decoding_bitmatrix+0x110>
    5488:	e8 63 bf ff ff       	callq  13f0 <malloc@plt>
    548d:	48 89 44 24 18       	mov    %rax,0x18(%rsp)
    5492:	48 85 c0             	test   %rax,%rax
    5495:	75 82                	jne    5419 <jerasure_make_decoding_bitmatrix+0x129>
    5497:	41 83 cc ff          	or     $0xffffffff,%r12d
    549b:	eb 9e                	jmp    543b <jerasure_make_decoding_bitmatrix+0x14b>
    549d:	0f 1f 00             	nopl   (%rax)

00000000000054a0 <jerasure_bitmatrix_decode>:
    54a0:	f3 0f 1e fa          	endbr64 
    54a4:	41 57                	push   %r15
    54a6:	41 89 d7             	mov    %edx,%r15d
    54a9:	4c 89 ca             	mov    %r9,%rdx
    54ac:	41 56                	push   %r14
    54ae:	41 55                	push   %r13
    54b0:	41 89 fd             	mov    %edi,%r13d
    54b3:	41 54                	push   %r12
    54b5:	55                   	push   %rbp
    54b6:	53                   	push   %rbx
    54b7:	44 89 c3             	mov    %r8d,%ebx
    54ba:	48 83 ec 48          	sub    $0x48,%rsp
    54be:	89 74 24 38          	mov    %esi,0x38(%rsp)
    54c2:	48 89 4c 24 28       	mov    %rcx,0x28(%rsp)
    54c7:	e8 d4 ef ff ff       	callq  44a0 <jerasure_erasures_to_erased>
    54cc:	48 89 44 24 20       	mov    %rax,0x20(%rsp)
    54d1:	48 85 c0             	test   %rax,%rax
    54d4:	0f 84 6b 04 00 00    	je     5945 <jerasure_bitmatrix_decode+0x4a5>
    54da:	45 85 ed             	test   %r13d,%r13d
    54dd:	0f 8e ed 03 00 00    	jle    58d0 <jerasure_bitmatrix_decode+0x430>
    54e3:	41 8d 4d ff          	lea    -0x1(%r13),%ecx
    54e7:	48 89 c6             	mov    %rax,%rsi
    54ea:	45 89 eb             	mov    %r13d,%r11d
    54ed:	31 c0                	xor    %eax,%eax
    54ef:	89 4c 24 3c          	mov    %ecx,0x3c(%rsp)
    54f3:	45 31 e4             	xor    %r12d,%r12d
    54f6:	eb 0b                	jmp    5503 <jerasure_bitmatrix_decode+0x63>
    54f8:	0f 1f 84 00 00 00 00 	nopl   0x0(%rax,%rax,1)
    54ff:	00 
    5500:	48 89 d0             	mov    %rdx,%rax
    5503:	8b 3c 86             	mov    (%rsi,%rax,4),%edi
    5506:	85 ff                	test   %edi,%edi
    5508:	74 07                	je     5511 <jerasure_bitmatrix_decode+0x71>
    550a:	41 83 c4 01          	add    $0x1,%r12d
    550e:	41 89 c3             	mov    %eax,%r11d
    5511:	48 8d 50 01          	lea    0x1(%rax),%rdx
    5515:	48 39 c8             	cmp    %rcx,%rax
    5518:	75 e6                	jne    5500 <jerasure_bitmatrix_decode+0x60>
    551a:	83 fb 01             	cmp    $0x1,%ebx
    551d:	0f 84 25 03 00 00    	je     5848 <jerasure_bitmatrix_decode+0x3a8>
    5523:	45 89 eb             	mov    %r13d,%r11d
    5526:	41 83 fc 01          	cmp    $0x1,%r12d
    552a:	0f 8f 00 03 00 00    	jg     5830 <jerasure_bitmatrix_decode+0x390>
    5530:	0f 85 2a 03 00 00    	jne    5860 <jerasure_bitmatrix_decode+0x3c0>
    5536:	49 63 c5             	movslq %r13d,%rax
    5539:	48 89 44 24 30       	mov    %rax,0x30(%rsp)
    553e:	48 8d 3c 85 00 00 00 	lea    0x0(,%rax,4),%rdi
    5545:	00 
    5546:	83 fb 01             	cmp    $0x1,%ebx
    5549:	0f 84 31 03 00 00    	je     5880 <jerasure_bitmatrix_decode+0x3e0>
    554f:	44 89 5c 24 10       	mov    %r11d,0x10(%rsp)
    5554:	e8 97 be ff ff       	callq  13f0 <malloc@plt>
    5559:	44 8b 5c 24 10       	mov    0x10(%rsp),%r11d
    555e:	48 85 c0             	test   %rax,%rax
    5561:	48 89 44 24 08       	mov    %rax,0x8(%rsp)
    5566:	0f 84 2a 04 00 00    	je     5996 <jerasure_bitmatrix_decode+0x4f6>
    556c:	44 89 ef             	mov    %r13d,%edi
    556f:	44 89 5c 24 18       	mov    %r11d,0x18(%rsp)
    5574:	41 0f af ff          	imul   %r15d,%edi
    5578:	0f af ff             	imul   %edi,%edi
    557b:	48 63 ff             	movslq %edi,%rdi
    557e:	48 c1 e7 02          	shl    $0x2,%rdi
    5582:	e8 69 be ff ff       	callq  13f0 <malloc@plt>
    5587:	44 8b 5c 24 18       	mov    0x18(%rsp),%r11d
    558c:	48 85 c0             	test   %rax,%rax
    558f:	48 89 44 24 10       	mov    %rax,0x10(%rsp)
    5594:	0f 84 df 03 00 00    	je     5979 <jerasure_bitmatrix_decode+0x4d9>
    559a:	44 89 5c 24 18       	mov    %r11d,0x18(%rsp)
    559f:	48 83 ec 08          	sub    $0x8,%rsp
    55a3:	44 89 fa             	mov    %r15d,%edx
    55a6:	44 89 ef             	mov    %r13d,%edi
    55a9:	ff 74 24 10          	pushq  0x10(%rsp)
    55ad:	4c 8b 4c 24 20       	mov    0x20(%rsp),%r9
    55b2:	4c 8b 44 24 30       	mov    0x30(%rsp),%r8
    55b7:	48 8b 4c 24 38       	mov    0x38(%rsp),%rcx
    55bc:	8b 74 24 48          	mov    0x48(%rsp),%esi
    55c0:	e8 2b fd ff ff       	callq  52f0 <jerasure_make_decoding_bitmatrix>
    55c5:	41 5e                	pop    %r14
    55c7:	5a                   	pop    %rdx
    55c8:	85 c0                	test   %eax,%eax
    55ca:	0f 88 80 03 00 00    	js     5950 <jerasure_bitmatrix_decode+0x4b0>
    55d0:	44 8b 5c 24 18       	mov    0x18(%rsp),%r11d
    55d5:	45 85 db             	test   %r11d,%r11d
    55d8:	0f 8e bb 00 00 00    	jle    5699 <jerasure_bitmatrix_decode+0x1f9>
    55de:	44 89 f8             	mov    %r15d,%eax
    55e1:	44 89 ef             	mov    %r13d,%edi
    55e4:	44 89 fe             	mov    %r15d,%esi
    55e7:	48 8b 6c 24 20       	mov    0x20(%rsp),%rbp
    55ec:	41 0f af c7          	imul   %r15d,%eax
    55f0:	45 31 f6             	xor    %r14d,%r14d
    55f3:	31 db                	xor    %ebx,%ebx
    55f5:	41 0f af c5          	imul   %r13d,%eax
    55f9:	45 89 dd             	mov    %r11d,%r13d
    55fc:	41 89 c7             	mov    %eax,%r15d
    55ff:	eb 1b                	jmp    561c <jerasure_bitmatrix_decode+0x17c>
    5601:	0f 1f 80 00 00 00 00 	nopl   0x0(%rax)
    5608:	83 c3 01             	add    $0x1,%ebx
    560b:	48 83 c5 04          	add    $0x4,%rbp
    560f:	45 01 fe             	add    %r15d,%r14d
    5612:	45 85 e4             	test   %r12d,%r12d
    5615:	7e 79                	jle    5690 <jerasure_bitmatrix_decode+0x1f0>
    5617:	41 39 dd             	cmp    %ebx,%r13d
    561a:	7e 74                	jle    5690 <jerasure_bitmatrix_decode+0x1f0>
    561c:	44 8b 5d 00          	mov    0x0(%rbp),%r11d
    5620:	45 85 db             	test   %r11d,%r11d
    5623:	74 e3                	je     5608 <jerasure_bitmatrix_decode+0x168>
    5625:	48 8b 44 24 10       	mov    0x10(%rsp),%rax
    562a:	49 63 d6             	movslq %r14d,%rdx
    562d:	48 83 ec 08          	sub    $0x8,%rsp
    5631:	41 89 d8             	mov    %ebx,%r8d
    5634:	41 83 ec 01          	sub    $0x1,%r12d
    5638:	83 c3 01             	add    $0x1,%ebx
    563b:	48 83 c5 04          	add    $0x4,%rbp
    563f:	45 01 fe             	add    %r15d,%r14d
    5642:	48 8d 14 90          	lea    (%rax,%rdx,4),%rdx
    5646:	8b 84 24 a0 00 00 00 	mov    0xa0(%rsp),%eax
    564d:	50                   	push   %rax
    564e:	8b 84 24 a0 00 00 00 	mov    0xa0(%rsp),%eax
    5655:	50                   	push   %rax
    5656:	ff b4 24 a0 00 00 00 	pushq  0xa0(%rsp)
    565d:	4c 8b 8c 24 a0 00 00 	mov    0xa0(%rsp),%r9
    5664:	00 
    5665:	48 8b 4c 24 28       	mov    0x28(%rsp),%rcx
    566a:	89 74 24 3c          	mov    %esi,0x3c(%rsp)
    566e:	89 7c 24 38          	mov    %edi,0x38(%rsp)
    5672:	e8 09 e1 ff ff       	callq  3780 <jerasure_bitmatrix_dotprod>
    5677:	48 83 c4 20          	add    $0x20,%rsp
    567b:	8b 74 24 1c          	mov    0x1c(%rsp),%esi
    567f:	8b 7c 24 18          	mov    0x18(%rsp),%edi
    5683:	45 85 e4             	test   %r12d,%r12d
    5686:	7f 8f                	jg     5617 <jerasure_bitmatrix_decode+0x177>
    5688:	0f 1f 84 00 00 00 00 	nopl   0x0(%rax,%rax,1)
    568f:	00 
    5690:	45 89 eb             	mov    %r13d,%r11d
    5693:	41 89 f7             	mov    %esi,%r15d
    5696:	41 89 fd             	mov    %edi,%r13d
    5699:	44 89 5c 24 18       	mov    %r11d,0x18(%rsp)
    569e:	45 85 e4             	test   %r12d,%r12d
    56a1:	0f 85 f9 00 00 00    	jne    57a0 <jerasure_bitmatrix_decode+0x300>
    56a7:	8b 4c 24 38          	mov    0x38(%rsp),%ecx
    56ab:	49 63 c5             	movslq %r13d,%rax
    56ae:	48 89 44 24 30       	mov    %rax,0x30(%rsp)
